TN:
SF:/home/marija/Desktop/2024_Analysis_12-Uno/12-UNO/UNO/build/run_tests_autogen/K6S233IZAZ/moc_client.cpp
FN:129,173,_ZN6Client18qt_static_metacallEP7QObjectN11QMetaObject4CallEiPPv
FN:175,178,_ZNK6Client10metaObjectEv
FN:180,186,_ZN6Client11qt_metacastEPKc
FN:188,203,_ZN6Client11qt_metacallEN11QMetaObject4CallEiPPv
FN:206,209,_ZN6Client15signalInitLobbyEv
FN:212,215,_ZN6Client15signalInitNamesEv
FN:218,221,_ZN6Client15signalStartGameEv
FN:224,227,_ZN6Client11signalCloseEv
FNDA:0,_ZN6Client18qt_static_metacallEP7QObjectN11QMetaObject4CallEiPPv
FNDA:0,_ZNK6Client10metaObjectEv
FNDA:0,_ZN6Client11qt_metacastEPKc
FNDA:0,_ZN6Client11qt_metacallEN11QMetaObject4CallEiPPv
FNDA:0,_ZN6Client15signalInitLobbyEv
FNDA:0,_ZN6Client15signalInitNamesEv
FNDA:0,_ZN6Client15signalStartGameEv
FNDA:0,_ZN6Client11signalCloseEv
FNF:8
FNH:0
DA:129,0
DA:131,0
DA:132,0
DA:134,0
DA:135,0
DA:136,0
DA:137,0
DA:138,0
DA:139,0
DA:141,0
DA:142,0
DA:145,0
DA:146,0
DA:147,0
DA:152,0
DA:153,0
DA:154,0
DA:159,0
DA:160,0
DA:161,0
DA:166,0
DA:167,0
DA:168,0
DA:175,0
DA:177,0
DA:180,0
DA:182,0
DA:183,0
DA:184,0
DA:185,0
DA:188,0
DA:190,0
DA:191,0
DA:192,0
DA:193,0
DA:194,0
DA:195,0
DA:196,0
DA:197,0
DA:198,0
DA:199,0
DA:200,0
DA:202,0
DA:206,0
DA:208,0
DA:209,0
DA:212,0
DA:214,0
DA:215,0
DA:218,0
DA:220,0
DA:221,0
DA:224,0
DA:226,0
DA:227,0
LF:55
LH:0
end_of_record
TN:
SF:/home/marija/Desktop/2024_Analysis_12-Uno/12-UNO/UNO/build/run_tests_autogen/K6S233IZAZ/moc_game.cpp
FN:178,237,_ZN4Game18qt_static_metacallEP7QObjectN11QMetaObject4CallEiPPv
FN:239,242,_ZNK4Game10metaObjectEv
FN:244,250,_ZN4Game11qt_metacastEPKc
FN:252,267,_ZN4Game11qt_metacallEN11QMetaObject4CallEiPPv
FN:270,274,_ZN4Game24emitterRenderPileTopCardEP4Card
FN:277,280,_ZN4Game22emitterChosenWildColorEv
FN:283,286,_ZN4Game15signalGameEndedEv
FN:289,293,_ZN4Game20signalRenderBotCardsEP6Playeri
FN:296,300,_ZN4Game17signalRenderTableEP4Card
FN:303,307,_ZN4Game16signalBotSaidUnoE7QString
FNDA:0,_ZN4Game18qt_static_metacallEP7QObjectN11QMetaObject4CallEiPPv
FNDA:0,_ZNK4Game10metaObjectEv
FNDA:0,_ZN4Game11qt_metacastEPKc
FNDA:0,_ZN4Game11qt_metacallEN11QMetaObject4CallEiPPv
FNDA:0,_ZN4Game24emitterRenderPileTopCardEP4Card
FNDA:0,_ZN4Game22emitterChosenWildColorEv
FNDA:0,_ZN4Game15signalGameEndedEv
FNDA:0,_ZN4Game20signalRenderBotCardsEP6Playeri
FNDA:0,_ZN4Game17signalRenderTableEP4Card
FNDA:0,_ZN4Game16signalBotSaidUnoE7QString
FNF:10
FNH:0
DA:178,0
DA:180,0
DA:181,0
DA:183,0
DA:184,0
DA:185,0
DA:186,0
DA:187,0
DA:188,0
DA:189,0
DA:190,0
DA:192,0
DA:193,0
DA:196,0
DA:197,0
DA:198,0
DA:203,0
DA:204,0
DA:205,0
DA:210,0
DA:211,0
DA:212,0
DA:217,0
DA:218,0
DA:219,0
DA:224,0
DA:225,0
DA:226,0
DA:231,0
DA:232,0
DA:233,0
DA:239,0
DA:241,0
DA:244,0
DA:246,0
DA:247,0
DA:248,0
DA:249,0
DA:252,0
DA:254,0
DA:255,0
DA:256,0
DA:257,0
DA:258,0
DA:259,0
DA:260,0
DA:261,0
DA:262,0
DA:263,0
DA:264,0
DA:266,0
DA:270,0
DA:272,0
DA:273,0
DA:274,0
DA:277,0
DA:279,0
DA:280,0
DA:283,0
DA:285,0
DA:286,0
DA:289,0
DA:291,0
DA:292,0
DA:293,0
DA:296,0
DA:298,0
DA:299,0
DA:300,0
DA:303,0
DA:305,0
DA:306,0
DA:307,0
LF:73
LH:0
end_of_record
TN:
SF:/home/marija/Desktop/2024_Analysis_12-Uno/12-UNO/UNO/build/run_tests_autogen/K6S233IZAZ/moc_gameGUI.cpp
FN:302,330,_ZN7GameGUI18qt_static_metacallEP7QObjectN11QMetaObject4CallEiPPv
FN:332,335,_ZNK7GameGUI10metaObjectEv
FN:337,343,_ZN7GameGUI11qt_metacastEPKc
FN:345,360,_ZN7GameGUI11qt_metacallEN11QMetaObject4CallEiPPv
FNDA:0,_ZN7GameGUI18qt_static_metacallEP7QObjectN11QMetaObject4CallEiPPv
FNDA:0,_ZNK7GameGUI10metaObjectEv
FNDA:0,_ZN7GameGUI11qt_metacastEPKc
FNDA:0,_ZN7GameGUI11qt_metacallEN11QMetaObject4CallEiPPv
FNF:4
FNH:0
DA:302,0
DA:304,0
DA:305,0
DA:307,0
DA:308,0
DA:309,0
DA:310,0
DA:311,0
DA:312,0
DA:313,0
DA:314,0
DA:315,0
DA:316,0
DA:317,0
DA:318,0
DA:319,0
DA:320,0
DA:321,0
DA:322,0
DA:323,0
DA:324,0
DA:325,0
DA:326,0
DA:327,0
DA:330,0
DA:332,0
DA:334,0
DA:337,0
DA:339,0
DA:340,0
DA:341,0
DA:342,0
DA:345,0
DA:347,0
DA:348,0
DA:349,0
DA:350,0
DA:351,0
DA:352,0
DA:353,0
DA:354,0
DA:355,0
DA:356,0
DA:357,0
DA:359,0
LF:45
LH:0
end_of_record
TN:
SF:/home/marija/Desktop/2024_Analysis_12-Uno/12-UNO/UNO/build/run_tests_autogen/K6S233IZAZ/moc_gameclient.cpp
FN:102,108,_ZN10GameClient11qt_metacastEPKc
FN:110,114,_ZN10GameClient11qt_metacallEN11QMetaObject4CallEiPPv
FN:89,95,_ZN10GameClient18qt_static_metacallEP7QObjectN11QMetaObject4CallEiPPv
FN:97,100,_ZNK10GameClient10metaObjectEv
FNDA:0,_ZN10GameClient11qt_metacastEPKc
FNDA:0,_ZN10GameClient11qt_metacallEN11QMetaObject4CallEiPPv
FNDA:0,_ZN10GameClient18qt_static_metacallEP7QObjectN11QMetaObject4CallEiPPv
FNDA:0,_ZNK10GameClient10metaObjectEv
FNF:4
FNH:0
DA:89,0
DA:95,0
DA:97,0
DA:99,0
DA:102,0
DA:104,0
DA:105,0
DA:106,0
DA:107,0
DA:110,0
DA:112,0
DA:113,0
LF:12
LH:0
end_of_record
TN:
SF:/home/marija/Desktop/2024_Analysis_12-Uno/12-UNO/UNO/build/run_tests_autogen/K6S233IZAZ/moc_instructionsWidget.cpp
FN:102,108,_ZN18InstructionsWidget11qt_metacastEPKc
FN:110,114,_ZN18InstructionsWidget11qt_metacallEN11QMetaObject4CallEiPPv
FN:89,95,_ZN18InstructionsWidget18qt_static_metacallEP7QObjectN11QMetaObject4CallEiPPv
FN:97,100,_ZNK18InstructionsWidget10metaObjectEv
FNDA:0,_ZN18InstructionsWidget11qt_metacastEPKc
FNDA:0,_ZN18InstructionsWidget11qt_metacallEN11QMetaObject4CallEiPPv
FNDA:0,_ZN18InstructionsWidget18qt_static_metacallEP7QObjectN11QMetaObject4CallEiPPv
FNDA:0,_ZNK18InstructionsWidget10metaObjectEv
FNF:4
FNH:0
DA:89,0
DA:95,0
DA:97,0
DA:99,0
DA:102,0
DA:104,0
DA:105,0
DA:106,0
DA:107,0
DA:110,0
DA:112,0
DA:113,0
LF:12
LH:0
end_of_record
TN:
SF:/home/marija/Desktop/2024_Analysis_12-Uno/12-UNO/UNO/build/run_tests_autogen/K6S233IZAZ/moc_lobby.cpp
FN:138,153,_ZN5Lobby18qt_static_metacallEP7QObjectN11QMetaObject4CallEiPPv
FN:155,158,_ZNK5Lobby10metaObjectEv
FN:160,166,_ZN5Lobby11qt_metacastEPKc
FN:168,183,_ZN5Lobby11qt_metacallEN11QMetaObject4CallEiPPv
FNDA:0,_ZN5Lobby18qt_static_metacallEP7QObjectN11QMetaObject4CallEiPPv
FNDA:0,_ZNK5Lobby10metaObjectEv
FNDA:0,_ZN5Lobby11qt_metacastEPKc
FNDA:0,_ZN5Lobby11qt_metacallEN11QMetaObject4CallEiPPv
FNF:4
FNH:0
DA:138,0
DA:140,0
DA:141,0
DA:143,0
DA:144,0
DA:145,0
DA:146,0
DA:147,0
DA:148,0
DA:149,0
DA:153,0
DA:155,0
DA:157,0
DA:160,0
DA:162,0
DA:163,0
DA:164,0
DA:165,0
DA:168,0
DA:170,0
DA:171,0
DA:172,0
DA:173,0
DA:174,0
DA:175,0
DA:176,0
DA:177,0
DA:178,0
DA:179,0
DA:180,0
DA:182,0
LF:31
LH:0
end_of_record
TN:
SF:/home/marija/Desktop/2024_Analysis_12-Uno/12-UNO/UNO/build/run_tests_autogen/K6S233IZAZ/moc_mainWindow.cpp
FN:338,376,_ZN10MainWindow18qt_static_metacallEP7QObjectN11QMetaObject4CallEiPPv
FN:378,381,_ZNK10MainWindow10metaObjectEv
FN:383,389,_ZN10MainWindow11qt_metacastEPKc
FN:391,406,_ZN10MainWindow11qt_metacallEN11QMetaObject4CallEiPPv
FNDA:0,_ZN10MainWindow18qt_static_metacallEP7QObjectN11QMetaObject4CallEiPPv
FNDA:0,_ZNK10MainWindow10metaObjectEv
FNDA:0,_ZN10MainWindow11qt_metacastEPKc
FNDA:0,_ZN10MainWindow11qt_metacallEN11QMetaObject4CallEiPPv
FNF:4
FNH:0
DA:338,0
DA:340,0
DA:341,0
DA:343,0
DA:344,0
DA:345,0
DA:346,0
DA:347,0
DA:348,0
DA:349,0
DA:350,0
DA:351,0
DA:352,0
DA:353,0
DA:354,0
DA:355,0
DA:356,0
DA:357,0
DA:358,0
DA:359,0
DA:360,0
DA:361,0
DA:362,0
DA:363,0
DA:364,0
DA:365,0
DA:366,0
DA:367,0
DA:368,0
DA:369,0
DA:370,0
DA:371,0
DA:372,0
DA:373,0
DA:376,0
DA:378,0
DA:380,0
DA:383,0
DA:385,0
DA:386,0
DA:387,0
DA:388,0
DA:391,0
DA:393,0
DA:394,0
DA:395,0
DA:396,0
DA:397,0
DA:398,0
DA:399,0
DA:400,0
DA:401,0
DA:402,0
DA:403,0
DA:405,0
LF:55
LH:0
end_of_record
TN:
SF:/home/marija/Desktop/2024_Analysis_12-Uno/12-UNO/UNO/build/ui_gameGUI.h
FN:322,335,_ZN9Ui_TESTUI13retranslateUiEP7QWidget
FN:40,320,_ZN9Ui_TESTUI7setupUiEP7QWidget
FNDA:0,_ZN9Ui_TESTUI13retranslateUiEP7QWidget
FNDA:0,_ZN9Ui_TESTUI7setupUiEP7QWidget
FNF:2
FNH:0
DA:40,0
DA:42,0
DA:43,0
DA:44,0
DA:45,0
DA:46,0
DA:47,0
DA:48,0
DA:49,0
DA:50,0
DA:51,0
DA:52,0
DA:53,0
DA:55,0
DA:56,0
DA:57,0
DA:58,0
DA:59,0
DA:60,0
DA:61,0
DA:62,0
DA:63,0
DA:64,0
DA:66,0
DA:67,0
DA:68,0
DA:69,0
DA:70,0
DA:71,0
DA:72,0
DA:73,0
DA:101,0
DA:103,0
DA:104,0
DA:105,0
DA:106,0
DA:134,0
DA:136,0
DA:137,0
DA:138,0
DA:139,0
DA:167,0
DA:169,0
DA:170,0
DA:171,0
DA:172,0
DA:200,0
DA:202,0
DA:203,0
DA:204,0
DA:205,0
DA:232,0
DA:233,0
DA:234,0
DA:235,0
DA:262,0
DA:263,0
DA:264,0
DA:265,0
DA:266,0
DA:269,0
DA:270,0
DA:271,0
DA:272,0
DA:273,0
DA:274,0
DA:275,0
DA:276,0
DA:277,0
DA:278,0
DA:305,0
DA:306,0
DA:307,0
DA:308,0
DA:309,0
DA:310,0
DA:311,0
DA:312,0
DA:313,0
DA:314,0
DA:315,0
DA:317,0
DA:319,0
DA:320,0
DA:322,0
DA:324,0
DA:325,0
DA:326,0
DA:327,0
DA:328,0
DA:329,0
DA:330,0
DA:331,0
DA:332,0
DA:333,0
DA:334,0
DA:335,0
LF:97
LH:0
end_of_record
TN:
SF:/home/marija/Desktop/2024_Analysis_12-Uno/12-UNO/UNO/build/ui_instructionsWidget.h
FN:26,47,_ZN9Ui_Widget7setupUiEP7QWidget
FN:49,52,_ZN9Ui_Widget13retranslateUiEP7QWidget
FNDA:0,_ZN9Ui_Widget7setupUiEP7QWidget
FNDA:0,_ZN9Ui_Widget13retranslateUiEP7QWidget
FNF:2
FNH:0
DA:26,0
DA:28,0
DA:29,0
DA:30,0
DA:31,0
DA:32,0
DA:33,0
DA:34,0
DA:35,0
DA:36,0
DA:37,0
DA:38,0
DA:39,0
DA:41,0
DA:44,0
DA:46,0
DA:47,0
DA:49,0
DA:51,0
DA:52,0
LF:20
LH:0
end_of_record
TN:
SF:/home/marija/Desktop/2024_Analysis_12-Uno/12-UNO/UNO/build/ui_lobby.h
FN:116,121,_ZN8Ui_Lobby13retranslateUiEP7QWidget
FN:28,114,_ZN8Ui_Lobby7setupUiEP7QWidget
FNDA:0,_ZN8Ui_Lobby13retranslateUiEP7QWidget
FNDA:0,_ZN8Ui_Lobby7setupUiEP7QWidget
FNF:2
FNH:0
DA:28,0
DA:30,0
DA:31,0
DA:32,0
DA:33,0
DA:34,0
DA:35,0
DA:36,0
DA:37,0
DA:64,0
DA:65,0
DA:66,0
DA:67,0
DA:68,0
DA:69,0
DA:70,0
DA:71,0
DA:72,0
DA:73,0
DA:74,0
DA:75,0
DA:76,0
DA:77,0
DA:104,0
DA:105,0
DA:106,0
DA:107,0
DA:108,0
DA:109,0
DA:111,0
DA:113,0
DA:114,0
DA:116,0
DA:118,0
DA:119,0
DA:120,0
DA:121,0
LF:37
LH:0
end_of_record
TN:
SF:/home/marija/Desktop/2024_Analysis_12-Uno/12-UNO/UNO/build/ui_mainWindow.h
FN:1111,1150,_ZN13Ui_MainWindow13retranslateUiEP11QMainWindow
FN:78,1109,_ZN13Ui_MainWindow7setupUiEP11QMainWindow
FNDA:0,_ZN13Ui_MainWindow13retranslateUiEP11QMainWindow
FNDA:0,_ZN13Ui_MainWindow7setupUiEP11QMainWindow
FNF:2
FNH:0
DA:78,0
DA:80,0
DA:81,0
DA:82,0
DA:83,0
DA:84,0
DA:85,0
DA:86,0
DA:87,0
DA:88,0
DA:89,0
DA:90,0
DA:91,0
DA:92,0
DA:93,0
DA:94,0
DA:95,0
DA:96,0
DA:97,0
DA:98,0
DA:99,0
DA:100,0
DA:101,0
DA:102,0
DA:103,0
DA:104,0
DA:105,0
DA:106,0
DA:107,0
DA:135,0
DA:136,0
DA:137,0
DA:138,0
DA:140,0
DA:142,0
DA:143,0
DA:144,0
DA:145,0
DA:172,0
DA:173,0
DA:174,0
DA:175,0
DA:177,0
DA:179,0
DA:180,0
DA:181,0
DA:182,0
DA:209,0
DA:210,0
DA:211,0
DA:212,0
DA:214,0
DA:216,0
DA:217,0
DA:218,0
DA:219,0
DA:246,0
DA:247,0
DA:248,0
DA:249,0
DA:251,0
DA:253,0
DA:254,0
DA:255,0
DA:256,0
DA:283,0
DA:284,0
DA:285,0
DA:286,0
DA:288,0
DA:290,0
DA:291,0
DA:292,0
DA:293,0
DA:294,0
DA:295,0
DA:296,0
DA:297,0
DA:298,0
DA:299,0
DA:300,0
DA:301,0
DA:329,0
DA:330,0
DA:331,0
DA:332,0
DA:334,0
DA:336,0
DA:337,0
DA:338,0
DA:339,0
DA:366,0
DA:367,0
DA:368,0
DA:369,0
DA:371,0
DA:373,0
DA:374,0
DA:375,0
DA:376,0
DA:403,0
DA:404,0
DA:405,0
DA:406,0
DA:408,0
DA:410,0
DA:411,0
DA:412,0
DA:413,0
DA:440,0
DA:441,0
DA:442,0
DA:443,0
DA:445,0
DA:447,0
DA:448,0
DA:449,0
DA:450,0
DA:477,0
DA:478,0
DA:479,0
DA:480,0
DA:482,0
DA:484,0
DA:485,0
DA:486,0
DA:487,0
DA:488,0
DA:489,0
DA:490,0
DA:491,0
DA:492,0
DA:493,0
DA:494,0
DA:495,0
DA:522,0
DA:523,0
DA:524,0
DA:525,0
DA:527,0
DA:529,0
DA:530,0
DA:531,0
DA:532,0
DA:559,0
DA:560,0
DA:561,0
DA:562,0
DA:564,0
DA:566,0
DA:567,0
DA:568,0
DA:569,0
DA:596,0
DA:597,0
DA:598,0
DA:599,0
DA:601,0
DA:603,0
DA:604,0
DA:605,0
DA:606,0
DA:633,0
DA:634,0
DA:636,0
DA:638,0
DA:639,0
DA:640,0
DA:641,0
DA:642,0
DA:643,0
DA:644,0
DA:650,0
DA:651,0
DA:652,0
DA:653,0
DA:680,0
DA:681,0
DA:682,0
DA:683,0
DA:710,0
DA:711,0
DA:712,0
DA:713,0
DA:714,0
DA:715,0
DA:716,0
DA:717,0
DA:718,0
DA:719,0
DA:720,0
DA:721,0
DA:722,0
DA:723,0
DA:724,0
DA:733,0
DA:734,0
DA:735,0
DA:736,0
DA:737,0
DA:738,0
DA:739,0
DA:766,0
DA:767,0
DA:768,0
DA:769,0
DA:770,0
DA:771,0
DA:772,0
DA:773,0
DA:774,0
DA:801,0
DA:802,0
DA:803,0
DA:804,0
DA:805,0
DA:806,0
DA:807,0
DA:808,0
DA:809,0
DA:836,0
DA:837,0
DA:838,0
DA:839,0
DA:840,0
DA:841,0
DA:842,0
DA:843,0
DA:870,0
DA:871,0
DA:872,0
DA:873,0
DA:874,0
DA:875,0
DA:876,0
DA:877,0
DA:878,0
DA:905,0
DA:906,0
DA:907,0
DA:908,0
DA:909,0
DA:910,0
DA:911,0
DA:912,0
DA:913,0
DA:914,0
DA:915,0
DA:916,0
DA:917,0
DA:918,0
DA:919,0
DA:920,0
DA:921,0
DA:931,0
DA:933,0
DA:934,0
DA:935,0
DA:936,0
DA:940,0
DA:942,0
DA:945,0
DA:947,0
DA:948,0
DA:949,0
DA:950,0
DA:951,0
DA:952,0
DA:953,0
DA:954,0
DA:964,0
DA:966,0
DA:967,0
DA:968,0
DA:969,0
DA:973,0
DA:974,0
DA:976,0
DA:979,0
DA:982,0
DA:984,0
DA:985,0
DA:986,0
DA:987,0
DA:988,0
DA:989,0
DA:990,0
DA:1017,0
DA:1018,0
DA:1019,0
DA:1020,0
DA:1022,0
DA:1024,0
DA:1025,0
DA:1026,0
DA:1053,0
DA:1054,0
DA:1055,0
DA:1056,0
DA:1058,0
DA:1060,0
DA:1061,0
DA:1062,0
DA:1089,0
DA:1090,0
DA:1092,0
DA:1095,0
DA:1097,0
DA:1099,0
DA:1101,0
DA:1103,0
DA:1105,0
DA:1108,0
DA:1109,0
DA:1111,0
DA:1113,0
DA:1114,0
DA:1115,0
DA:1116,0
DA:1117,0
DA:1118,0
DA:1119,0
DA:1120,0
DA:1121,0
DA:1122,0
DA:1123,0
DA:1124,0
DA:1125,0
DA:1126,0
DA:1127,0
DA:1128,0
DA:1133,0
DA:1134,0
DA:1135,0
DA:1140,0
DA:1141,0
DA:1142,0
DA:1143,0
DA:1144,0
DA:1145,0
DA:1146,0
DA:1147,0
DA:1148,0
DA:1149,0
DA:1150,0
LF:345
LH:0
end_of_record
TN:
SF:/home/marija/Desktop/2024_Analysis_12-Uno/12-UNO/UNO/headers/gameGUI.h
FN:30,30,_ZN7GameGUI2trEPKcS1_i
FNDA:0,_ZN7GameGUI2trEPKcS1_i
FNF:1
FNH:0
DA:30,0
LF:1
LH:0
end_of_record
TN:
SF:/home/marija/Desktop/2024_Analysis_12-Uno/12-UNO/UNO/headers/gameParameters.h
FNF:0
FNH:0
LF:0
LH:0
end_of_record
TN:
SF:/home/marija/Desktop/2024_Analysis_12-Uno/12-UNO/UNO/headers/instructionsWidget.h
FNF:0
FNH:0
LF:0
LH:0
end_of_record
TN:
SF:/home/marija/Desktop/2024_Analysis_12-Uno/12-UNO/UNO/headers/leaderboards.h
FNF:0
FNH:0
LF:0
LH:0
end_of_record
TN:
SF:/home/marija/Desktop/2024_Analysis_12-Uno/12-UNO/UNO/headers/lobby.h
FNF:0
FNH:0
LF:0
LH:0
end_of_record
TN:
SF:/home/marija/Desktop/2024_Analysis_12-Uno/12-UNO/UNO/headers/mainWindow.h
FNF:0
FNH:0
LF:0
LH:0
end_of_record
TN:
SF:/home/marija/Desktop/2024_Analysis_12-Uno/12-UNO/UNO/headers/pc.h
FNF:0
FNH:0
DA:26,0
LF:1
LH:0
end_of_record
TN:
SF:/home/marija/Desktop/2024_Analysis_12-Uno/12-UNO/UNO/headers/player.h
FNF:0
FNH:0
DA:52,28
LF:1
LH:1
end_of_record
TN:
SF:/home/marija/Desktop/2024_Analysis_12-Uno/12-UNO/UNO/sources/card.cpp
FN:101,101,_ZNK4Card11getCardTypeEv
FN:103,103,_ZNK4Card10getCardNumEv
FN:105,105,_ZN4Card8setColorENS_5COLORE
FN:107,107,_ZN4Card11setCardTypeENS_9CARD_TYPEE
FN:109,109,_ZN4Card10setCardNumEi
FN:11,36,_ZN4CardC2ENS_5COLORENS_9CARD_TYPEEi
FN:111,115,_ZNK4CardeqERKS_
FN:117,120,_ZNK4CardneERKS_
FN:122,144,_ZNK4Card10isPlayableEPv
FN:146,172,_ZN4Card4playEPv
FN:186,226,_ZN4Card6toHashEv
FN:228,281,_ZN4Card10hashToCardERKi
FN:283,329,_ZNK4Card8toStringB5cxx11Ev
FN:332,336,_ZlsRSoRK4Card
FN:38,51,_ZN4CardC2ENS_5COLOREi
FN:53,65,_ZN4CardC2ENS_5COLORENS_9CARD_TYPEE
FN:67,67,_ZN4CardD0Ev
FN:67,67,_ZN4CardD2Ev
FN:69,82,_ZN4Card9charColorERKc
FN:84,97,_ZN4Card9colorCharERKNS_5COLORE
FN:9,9,_ZN4CardC2Ev
FN:99,99,_ZNK4Card8getColorEv
FNDA:94,_ZNK4Card11getCardTypeEv
FNDA:17,_ZNK4Card10getCardNumEv
FNDA:0,_ZN4Card8setColorENS_5COLORE
FNDA:0,_ZN4Card11setCardTypeENS_9CARD_TYPEE
FNDA:0,_ZN4Card10setCardNumEi
FNDA:1967,_ZN4CardC2ENS_5COLORENS_9CARD_TYPEEi
FNDA:4,_ZNK4CardeqERKS_
FNDA:2,_ZNK4CardneERKS_
FNDA:0,_ZNK4Card10isPlayableEPv
FNDA:0,_ZN4Card4playEPv
FNDA:113,_ZN4Card6toHashEv
FNDA:9,_ZN4Card10hashToCardERKi
FNDA:6,_ZNK4Card8toStringB5cxx11Ev
FNDA:0,_ZlsRSoRK4Card
FNDA:76,_ZN4CardC2ENS_5COLOREi
FNDA:15,_ZN4CardC2ENS_5COLORENS_9CARD_TYPEE
FNDA:1364,_ZN4CardD0Ev
FNDA:1471,_ZN4CardD2Ev
FNDA:0,_ZN4Card9charColorERKc
FNDA:0,_ZN4Card9colorCharERKNS_5COLORE
FNDA:5,_ZN4CardC2Ev
FNDA:32,_ZNK4Card8getColorEv
FNF:22
FNH:14
DA:9,5
DA:11,1967
DA:14,1967
DA:16,1967
DA:17,152
DA:18,1
DA:20,1966
DA:22,3
DA:24,1963
DA:25,1814
DA:26,0
DA:28,1963
DA:29,1380
DA:30,2
DA:32,2
DA:34,1961
DA:35,1
DA:36,1960
DA:38,76
DA:41,76
DA:43,76
DA:44,1
DA:46,75
DA:47,75
DA:48,0
DA:50,0
DA:51,75
DA:53,15
DA:56,15
DA:58,15
DA:60,1
DA:62,14
DA:63,13
DA:64,2
DA:65,12
DA:67,2835
DA:69,0
DA:71,0
DA:73,0
DA:74,0
DA:75,0
DA:76,0
DA:77,0
DA:78,0
DA:79,0
DA:80,0
DA:84,0
DA:86,0
DA:88,0
DA:89,0
DA:90,0
DA:91,0
DA:92,0
DA:93,0
DA:94,0
DA:95,0
DA:99,32
DA:101,94
DA:103,17
DA:105,0
DA:107,0
DA:109,0
DA:111,4
DA:113,7
DA:114,7
DA:117,2
DA:119,2
DA:122,0
DA:125,0
DA:127,0
DA:129,0
DA:132,0
DA:134,0
DA:136,0
DA:138,0
DA:142,0
DA:146,0
DA:148,0
DA:150,0
DA:152,0
DA:153,0
DA:154,0
DA:155,0
DA:156,0
DA:157,0
DA:158,0
DA:159,0
DA:160,0
DA:161,0
DA:162,0
DA:163,0
DA:165,0
DA:166,0
DA:168,0
DA:169,0
DA:170,0
DA:172,0
DA:186,113
DA:188,113
DA:190,113
DA:192,31
DA:193,31
DA:194,31
DA:195,25
DA:196,25
DA:197,25
DA:198,32
DA:199,32
DA:200,32
DA:201,25
DA:202,25
DA:203,25
DA:204,0
DA:205,0
DA:207,113
DA:209,83
DA:210,83
DA:211,83
DA:212,13
DA:213,13
DA:214,13
DA:215,8
DA:216,8
DA:217,8
DA:218,9
DA:219,9
DA:220,9
DA:221,0
DA:222,0
DA:225,113
DA:228,9
DA:230,9
DA:231,9
DA:233,9
DA:235,1
DA:237,1
DA:239,0
DA:241,0
DA:244,8
DA:246,3
DA:247,3
DA:249,5
DA:251,3
DA:252,3
DA:254,2
DA:256,2
DA:257,2
DA:261,0
DA:262,0
DA:265,8
DA:267,2
DA:269,6
DA:271,1
DA:273,5
DA:275,0
DA:279,5
DA:283,6
DA:285,12
DA:287,6
DA:289,0
DA:290,0
DA:291,0
DA:292,2
DA:293,2
DA:294,2
DA:295,4
DA:296,4
DA:297,4
DA:298,0
DA:299,0
DA:300,0
DA:301,0
DA:302,0
DA:305,6
DA:307,6
DA:309,4
DA:310,4
DA:311,4
DA:312,0
DA:313,0
DA:314,0
DA:315,2
DA:316,2
DA:317,2
DA:318,0
DA:319,0
DA:320,0
DA:321,0
DA:322,0
DA:323,0
DA:324,0
DA:325,0
DA:328,18
DA:332,0
DA:334,0
DA:335,0
LF:196
LH:109
end_of_record
TN:
SF:/home/marija/Desktop/2024_Analysis_12-Uno/12-UNO/UNO/sources/client.cpp
FN:13,16,_ZN6ClientC2EP7QObject
FN:136,143,_ZN6Client10getMessageEv
FN:145,149,_ZN6Client11sendMessageE7QString
FN:151,158,_Z8connect1iP8sockaddrj
FN:18,24,_ZN6ClientC2EP7QObject7QStringS2_b
FN:26,26,_ZN6ClientD0Ev
FN:26,26,_ZN6ClientD2Ev
FN:28,28,_ZN6Client6isHostEv
FN:30,134,_ZN6Client3runEv
FNDA:0,_ZN6ClientC2EP7QObject
FNDA:0,_ZN6Client10getMessageEv
FNDA:0,_ZN6Client11sendMessageE7QString
FNDA:0,_Z8connect1iP8sockaddrj
FNDA:0,_ZN6ClientC2EP7QObject7QStringS2_b
FNDA:0,_ZN6ClientD0Ev
FNDA:0,_ZN6ClientD2Ev
FNDA:0,_ZN6Client6isHostEv
FNDA:0,_ZN6Client3runEv
FNF:9
FNH:0
DA:13,0
DA:14,0
DA:16,0
DA:18,0
DA:20,0
DA:21,0
DA:22,0
DA:24,0
DA:26,0
DA:28,0
DA:30,0
DA:32,0
DA:33,0
DA:34,0
DA:36,0
DA:37,0
DA:42,0
DA:43,0
DA:45,0
DA:46,0
DA:48,0
DA:49,0
DA:53,0
DA:55,0
DA:59,0
DA:61,0
DA:63,0
DA:64,0
DA:67,0
DA:69,0
DA:71,0
DA:73,0
DA:75,0
DA:76,0
DA:77,0
DA:78,0
DA:79,0
DA:80,0
DA:81,0
DA:82,0
DA:83,0
DA:84,0
DA:85,0
DA:86,0
DA:87,0
DA:88,0
DA:91,0
DA:93,0
DA:95,0
DA:97,0
DA:99,0
DA:101,0
DA:102,0
DA:104,0
DA:106,0
DA:108,0
DA:111,0
DA:113,0
DA:118,0
DA:119,0
DA:121,0
DA:123,0
DA:125,0
DA:126,0
DA:130,0
DA:131,0
DA:134,0
DA:136,0
DA:139,0
DA:140,0
DA:141,0
DA:142,0
DA:145,0
DA:147,0
DA:149,0
DA:151,0
DA:153,0
DA:155,0
DA:156,0
DA:158,0
LF:80
LH:0
end_of_record
TN:
SF:/home/marija/Desktop/2024_Analysis_12-Uno/12-UNO/UNO/sources/deck.cpp
FN:101,116,_ZN4Deck13drawFirstCardEv
FN:11,44,_ZN4DeckC2Ev
FN:118,118,_ZNK4Deck11getDeckSizeEv
FN:120,120,_ZNK4Deck7isEmptyEv
FN:122,127,_ZN4Deck9spreadOutE5QListIP6PlayerE
FN:46,50,_ZN4DeckD2Ev
FN:52,52,_ZN4DeckC2ERK5QListIiE
FN:54,61,_ZN4Deck6toHashEv
FN:63,70,_ZN4Deck10hashToDeckERK5QListIiE
FN:72,82,_ZN4Deck6refillEP4Pile
FN:84,89,_ZN4Deck7shuffleEv
FN:91,99,_ZN4Deck8drawCardEv
FNDA:6,_ZN4Deck13drawFirstCardEv
FNDA:18,_ZN4DeckC2Ev
FNDA:45,_ZNK4Deck11getDeckSizeEv
FNDA:33,_ZNK4Deck7isEmptyEv
FNDA:1,_ZN4Deck9spreadOutE5QListIP6PlayerE
FNDA:18,_ZN4DeckD2Ev
FNDA:0,_ZN4DeckC2ERK5QListIiE
FNDA:1,_ZN4Deck6toHashEv
FNDA:3,_ZN4Deck10hashToDeckERK5QListIiE
FNDA:1,_ZN4Deck6refillEP4Pile
FNDA:2,_ZN4Deck7shuffleEv
FNDA:355,_ZN4Deck8drawCardEv
FNF:12
FNH:11
DA:11,18
DA:13,18
DA:14,18
DA:15,18
DA:16,18
DA:19,90
DA:22,792
DA:25,720
DA:26,648
DA:27,720
DA:31,288
DA:33,216
DA:34,216
DA:39,90
DA:41,72
DA:42,72
DA:44,18
DA:46,18
DA:48,1283
DA:49,1265
DA:50,18
DA:52,0
DA:54,1
DA:56,1
DA:58,109
DA:59,108
DA:60,1
DA:63,3
DA:65,6
DA:67,8
DA:68,5
DA:69,3
DA:70,3
DA:72,1
DA:74,2
DA:76,2
DA:77,1
DA:78,1
DA:79,1
DA:80,1
DA:81,1
DA:82,1
DA:84,2
DA:86,4
DA:87,2
DA:88,2
DA:89,2
DA:91,355
DA:93,355
DA:94,0
DA:96,355
DA:97,355
DA:98,355
DA:101,6
DA:103,6
DA:105,146
DA:106,70
DA:108,70
DA:111,6
DA:113,6
DA:115,6
DA:118,45
DA:120,33
DA:122,1
DA:124,8
DA:125,35
DA:126,28
DA:127,1
LF:68
LH:66
end_of_record
TN:
SF:/home/marija/Desktop/2024_Analysis_12-Uno/12-UNO/UNO/sources/game.cpp
FN:100,100,_ZN4Game9getWinnerEv
FN:102,102,_ZN4Game9dealHandsEv
FN:104,104,_ZN4Game7getDeckEv
FN:106,110,_ZN4Game8initDeckEv
FN:112,117,_ZN4Game8initPileEv
FN:119,119,_ZN4Game18getNumberOfPlayersEv
FN:121,126,_ZN4Game5delayEi
FN:128,203,_ZN4Game3runEv
FN:14,18,_ZN4GameC2EP7QObject
FN:20,28,_ZN4GameC2EP7QObjectP14GameParameters
FN:205,212,_ZN4Game8drawCardEv
FN:214,214,_ZN4Game6isOverEv
FN:216,227,_ZN4Game20prepareCurrentPlayerEv
FN:229,229,_ZN4Game10getPlayersEv
FN:231,231,_ZN4Game11isDeckEmptyEv
FN:233,237,_ZN4Game9reshuffleEv
FN:239,239,_ZN4Game10getTopCardEv
FN:241,241,_ZN4Game21getCurrentPlayerIndexEv
FN:243,259,_ZN4Game18getNextPlayerIndexEv
FN:261,271,_ZN4Game10nextPlayerEv
FN:273,273,_ZN4Game13getNextPlayerEv
FN:275,275,_ZN4Game16getCurrentPlayerEv
FN:277,281,_ZN4Game8playCardEP4Card
FN:283,283,_ZN4Game11setGameModeENS_9GAME_MODEE
FN:285,285,_ZN4Game13swapDirectionEv
FN:287,287,_ZN4Game12setWildColorEN4Card5COLORE
FN:289,289,_ZN4Game12getWildColorEv
FN:291,299,_ZN4Game16getPlayerAtIndexEi
FN:30,63,_ZN4Game11setupParamsEP14GameParameters
FN:301,301,_ZN4Game11getDeckSizeEv
FN:305,311,_ZN4Game11loadPlayersE5QListI7QStringE
FN:313,318,_ZN4Game8loadDeckE5QListIiE
FN:320,326,_ZN4Game8loadPileEi
FN:334,442,_ZN4Game11processTurnE7QString
FN:444,444,_ZN4Game10emitRenderEv
FN:446,446,_ZN4Game8emitWildEv
FN:448,448,_ZN4Game10emitWinnerEv
FN:450,470,_ZN4Game8playZeroEv
FN:472,472,_ZN4Game15setChosenPlayerEi
FN:474,474,_ZN4Game20getChosenPlayerIndexEv
FN:476,476,_ZN4Game15getChosenPlayerEv
FN:478,478,_ZN4Game14eliminationsOnEv
FN:480,492,_ZN4Game13notEliminatedEv
FN:65,74,_ZN4Game10setupBoardEv
FN:76,80,_ZN4GameD0Ev
FN:76,80,_ZN4GameD2Ev
FN:82,86,_ZN4Game9addPlayerEP6Player
FN:88,88,_ZN4Game3endEv
FN:90,96,_ZN4Game11initPlayersEv
FN:98,98,_ZN4Game9setWinnerEP6Player
FNDA:0,_ZN4Game9getWinnerEv
FNDA:1,_ZN4Game9dealHandsEv
FNDA:0,_ZN4Game7getDeckEv
FNDA:1,_ZN4Game8initDeckEv
FNDA:1,_ZN4Game8initPileEv
FNDA:1,_ZN4Game18getNumberOfPlayersEv
FNDA:0,_ZN4Game5delayEi
FNDA:0,_ZN4Game3runEv
FNDA:1,_ZN4GameC2EP7QObject
FNDA:1,_ZN4GameC2EP7QObjectP14GameParameters
FNDA:28,_ZN4Game8drawCardEv
FNDA:0,_ZN4Game6isOverEv
FNDA:0,_ZN4Game20prepareCurrentPlayerEv
FNDA:0,_ZN4Game10getPlayersEv
FNDA:0,_ZN4Game11isDeckEmptyEv
FNDA:0,_ZN4Game9reshuffleEv
FNDA:0,_ZN4Game10getTopCardEv
FNDA:0,_ZN4Game21getCurrentPlayerIndexEv
FNDA:0,_ZN4Game18getNextPlayerIndexEv
FNDA:0,_ZN4Game10nextPlayerEv
FNDA:0,_ZN4Game13getNextPlayerEv
FNDA:0,_ZN4Game16getCurrentPlayerEv
FNDA:0,_ZN4Game8playCardEP4Card
FNDA:0,_ZN4Game11setGameModeENS_9GAME_MODEE
FNDA:0,_ZN4Game13swapDirectionEv
FNDA:0,_ZN4Game12setWildColorEN4Card5COLORE
FNDA:0,_ZN4Game12getWildColorEv
FNDA:0,_ZN4Game16getPlayerAtIndexEi
FNDA:1,_ZN4Game11setupParamsEP14GameParameters
FNDA:1,_ZN4Game11getDeckSizeEv
FNDA:0,_ZN4Game11loadPlayersE5QListI7QStringE
FNDA:0,_ZN4Game8loadDeckE5QListIiE
FNDA:0,_ZN4Game8loadPileEi
FNDA:0,_ZN4Game11processTurnE7QString
FNDA:0,_ZN4Game10emitRenderEv
FNDA:0,_ZN4Game8emitWildEv
FNDA:0,_ZN4Game10emitWinnerEv
FNDA:0,_ZN4Game8playZeroEv
FNDA:0,_ZN4Game15setChosenPlayerEi
FNDA:0,_ZN4Game20getChosenPlayerIndexEv
FNDA:0,_ZN4Game15getChosenPlayerEv
FNDA:0,_ZN4Game14eliminationsOnEv
FNDA:0,_ZN4Game13notEliminatedEv
FNDA:1,_ZN4Game10setupBoardEv
FNDA:1,_ZN4GameD0Ev
FNDA:1,_ZN4GameD2Ev
FNDA:0,_ZN4Game9addPlayerEP6Player
FNDA:0,_ZN4Game3endEv
FNDA:1,_ZN4Game11initPlayersEv
FNDA:0,_ZN4Game9setWinnerEP6Player
FNF:50
FNH:13
DA:14,1
DA:15,3
DA:17,1
DA:20,1
DA:21,1
DA:23,1
DA:25,1
DA:27,1
DA:28,1
DA:30,1
DA:32,1
DA:34,1
DA:36,1
DA:38,1
DA:39,1
DA:40,1
DA:41,0
DA:42,0
DA:43,0
DA:44,0
DA:45,0
DA:46,0
DA:47,0
DA:48,0
DA:49,0
DA:50,0
DA:51,0
DA:54,1
DA:56,1
DA:58,1
DA:60,1
DA:62,1
DA:63,1
DA:65,1
DA:67,1
DA:68,1
DA:69,1
DA:71,1
DA:72,1
DA:74,1
DA:76,2
DA:78,1
DA:79,1
DA:80,2
DA:82,0
DA:84,0
DA:85,0
DA:86,0
DA:88,0
DA:90,1
DA:92,1
DA:94,4
DA:95,3
DA:96,1
DA:98,0
DA:100,0
DA:102,1
DA:104,0
DA:106,1
DA:108,1
DA:109,1
DA:110,1
DA:112,1
DA:114,1
DA:115,1
DA:116,1
DA:117,1
DA:119,1
DA:121,0
DA:123,0
DA:124,0
DA:125,0
DA:126,0
DA:128,0
DA:132,0
DA:133,0
DA:137,0
DA:140,0
DA:143,0
DA:144,0
DA:146,0
DA:148,0
DA:151,0
DA:153,0
DA:154,0
DA:155,0
DA:158,0
DA:160,0
DA:161,0
DA:162,0
DA:164,0
DA:165,0
DA:166,0
DA:168,0
DA:169,0
DA:174,0
DA:176,0
DA:177,0
DA:178,0
DA:179,0
DA:180,0
DA:181,0
DA:184,0
DA:186,0
DA:187,0
DA:189,0
DA:191,0
DA:192,0
DA:193,0
DA:194,0
DA:197,0
DA:199,0
DA:200,0
DA:202,0
DA:203,0
DA:205,28
DA:207,28
DA:209,0
DA:211,28
DA:214,0
DA:216,0
DA:218,0
DA:220,0
DA:221,0
DA:222,0
DA:223,0
DA:224,0
DA:226,0
DA:229,0
DA:231,0
DA:233,0
DA:235,0
DA:236,0
DA:237,0
DA:239,0
DA:241,0
DA:243,0
DA:245,0
DA:248,0
DA:249,0
DA:251,0
DA:252,0
DA:254,0
DA:257,0
DA:258,0
DA:261,0
DA:263,0
DA:265,0
DA:266,0
DA:267,0
DA:270,0
DA:271,0
DA:273,0
DA:275,0
DA:277,0
DA:279,0
DA:280,0
DA:281,0
DA:283,0
DA:285,0
DA:287,0
DA:289,0
DA:291,0
DA:293,0
DA:295,0
DA:298,0
DA:301,1
DA:305,0
DA:307,0
DA:308,0
DA:309,0
DA:310,0
DA:311,0
DA:313,0
DA:315,0
DA:316,0
DA:317,0
DA:318,0
DA:320,0
DA:322,0
DA:323,0
DA:324,0
DA:325,0
DA:326,0
DA:334,0
DA:336,0
DA:338,0
DA:340,0
DA:342,0
DA:343,0
DA:344,0
DA:345,0
DA:346,0
DA:348,0
DA:349,0
DA:351,0
DA:353,0
DA:355,0
DA:356,0
DA:358,0
DA:363,0
DA:365,0
DA:366,0
DA:368,0
DA:370,0
DA:371,0
DA:372,0
DA:373,0
DA:375,0
DA:377,0
DA:379,0
DA:380,0
DA:382,0
DA:383,0
DA:385,0
DA:386,0
DA:389,0
DA:391,0
DA:393,0
DA:394,0
DA:395,0
DA:398,0
DA:400,0
DA:403,0
DA:405,0
DA:407,0
DA:410,0
DA:412,0
DA:413,0
DA:414,0
DA:417,0
DA:418,0
DA:420,0
DA:421,0
DA:422,0
DA:424,0
DA:426,0
DA:427,0
DA:432,0
DA:434,0
DA:436,0
DA:437,0
DA:442,0
DA:444,0
DA:446,0
DA:448,0
DA:450,0
DA:452,0
DA:454,0
DA:455,0
DA:457,0
DA:459,0
DA:463,0
DA:464,0
DA:466,0
DA:468,0
DA:470,0
DA:472,0
DA:474,0
DA:476,0
DA:478,0
DA:480,0
DA:482,0
DA:484,0
DA:485,0
DA:486,0
DA:487,0
DA:488,0
DA:491,0
LF:269
LH:53
end_of_record
TN:
SF:/home/marija/Desktop/2024_Analysis_12-Uno/12-UNO/UNO/sources/gameGUI.cpp
FN:126,137,_ZN7GameGUI4initEP6Client
FN:139,139,_ZN7GameGUID0Ev
FN:139,139,_ZN7GameGUID2Ev
FN:141,168,_ZN7GameGUI12setupWidgetsEi
FN:170,190,_ZN7GameGUI13generateFrameE7QString
FN:192,229,_ZN7GameGUI21generateFrame8PlayersE7QString
FN:231,277,_ZN7GameGUI14generateButtonE7QStringP6QFrame
FN:279,313,_ZN7GameGUI13generateLabelE7QStringP6QFrame
FN:315,321,_ZN7GameGUI19initMainPlayerFrameEv
FN:323,329,_ZN7GameGUI13init1BotFrameEv
FN:331,350,_ZN7GameGUI14init3BotFramesEv
FN:352,395,_ZN7GameGUI14init7BotFramesEv
FN:38,56,_ZN7GameGUIC2EP7QWidgetP14GameParameters
FN:397,421,_ZN7GameGUI25initZerosAndSevensButtonsEv
FN:414,419,_ZZN7GameGUI25initZerosAndSevensButtonsEvENKUlvE_clEv
FN:423,423,_ZN7GameGUI5debugEv
FN:425,430,_ZN7GameGUI5delayEi
FN:432,460,_ZN7GameGUI14connectButtonsEv
FN:462,474,_ZN7GameGUI14connectSignalsEv
FN:476,489,_ZN7GameGUI11renderTableEP4Card
FN:491,501,_ZN7GameGUI16renderCardOnPileEP4Card
FN:503,535,_ZN7GameGUI21renderMainPlayerFrameEP6Player
FN:537,550,_ZN7GameGUI23renderPlayerCardsInHandE5QListIP4CardE
FN:552,570,_ZN7GameGUI10onDrawCardEv
FN:572,631,_ZN7GameGUI15renderBotFramesE5QListIP6PlayerE
FN:58,124,_ZN7GameGUIC2EP7QWidgetP14GameParametersP6ServerP6Client
FN:633,649,_ZN7GameGUI16renderCardInHandEi
FN:648,648,_ZZN7GameGUI16renderCardInHandEiENKUlvE_clEv
FN:651,699,_ZN7GameGUI15checkIfPlayableEi
FN:701,709,_ZN7GameGUI27renderZerosAndSevensButtonsEv
FN:711,731,_ZN7GameGUI19showChosenWildColorEv
FN:733,750,_ZN7GameGUI15returnCardColorEN4Card5COLORE
FN:752,771,_ZN7GameGUI14returnCardTypeEN4Card9CARD_TYPEE
FN:773,786,_ZN7GameGUI16generateCardPathEP4Card
FN:788,788,_ZN7GameGUI12showWildMenuEv
FN:790,796,_ZN7GameGUI11setWildBlueEv
FN:798,805,_ZN7GameGUI10setWildRedEv
FN:807,814,_ZN7GameGUI13setWildYellowEv
FN:816,823,_ZN7GameGUI12setWildGreenEv
FN:825,829,_ZN7GameGUI8onSayUNOEv
FN:831,835,_ZN7GameGUI17displaySaidUnoMsgE7QString
FN:837,860,_ZN7GameGUI7endTurnEv
FN:862,865,_Z14compareByScorePK6PlayerS1_
FN:867,870,_Z17compareByPositionPK6PlayerS1_
FN:872,950,_ZN7GameGUI13displayWinnerEv
FN:952,964,_ZN7GameGUI10closeEventEP11QCloseEvent
FN:966,985,_ZN7GameGUI12toggleVolumeEv
FNDA:0,_ZN7GameGUI4initEP6Client
FNDA:0,_ZN7GameGUID0Ev
FNDA:0,_ZN7GameGUID2Ev
FNDA:0,_ZN7GameGUI12setupWidgetsEi
FNDA:0,_ZN7GameGUI13generateFrameE7QString
FNDA:0,_ZN7GameGUI21generateFrame8PlayersE7QString
FNDA:0,_ZN7GameGUI14generateButtonE7QStringP6QFrame
FNDA:0,_ZN7GameGUI13generateLabelE7QStringP6QFrame
FNDA:0,_ZN7GameGUI19initMainPlayerFrameEv
FNDA:0,_ZN7GameGUI13init1BotFrameEv
FNDA:0,_ZN7GameGUI14init3BotFramesEv
FNDA:0,_ZN7GameGUI14init7BotFramesEv
FNDA:0,_ZN7GameGUIC2EP7QWidgetP14GameParameters
FNDA:0,_ZN7GameGUI25initZerosAndSevensButtonsEv
FNDA:0,_ZZN7GameGUI25initZerosAndSevensButtonsEvENKUlvE_clEv
FNDA:0,_ZN7GameGUI5debugEv
FNDA:0,_ZN7GameGUI5delayEi
FNDA:0,_ZN7GameGUI14connectButtonsEv
FNDA:0,_ZN7GameGUI14connectSignalsEv
FNDA:0,_ZN7GameGUI11renderTableEP4Card
FNDA:0,_ZN7GameGUI16renderCardOnPileEP4Card
FNDA:0,_ZN7GameGUI21renderMainPlayerFrameEP6Player
FNDA:0,_ZN7GameGUI23renderPlayerCardsInHandE5QListIP4CardE
FNDA:0,_ZN7GameGUI10onDrawCardEv
FNDA:0,_ZN7GameGUI15renderBotFramesE5QListIP6PlayerE
FNDA:0,_ZN7GameGUIC2EP7QWidgetP14GameParametersP6ServerP6Client
FNDA:0,_ZN7GameGUI16renderCardInHandEi
FNDA:0,_ZZN7GameGUI16renderCardInHandEiENKUlvE_clEv
FNDA:0,_ZN7GameGUI15checkIfPlayableEi
FNDA:0,_ZN7GameGUI27renderZerosAndSevensButtonsEv
FNDA:0,_ZN7GameGUI19showChosenWildColorEv
FNDA:0,_ZN7GameGUI15returnCardColorEN4Card5COLORE
FNDA:0,_ZN7GameGUI14returnCardTypeEN4Card9CARD_TYPEE
FNDA:0,_ZN7GameGUI16generateCardPathEP4Card
FNDA:0,_ZN7GameGUI12showWildMenuEv
FNDA:0,_ZN7GameGUI11setWildBlueEv
FNDA:0,_ZN7GameGUI10setWildRedEv
FNDA:0,_ZN7GameGUI13setWildYellowEv
FNDA:0,_ZN7GameGUI12setWildGreenEv
FNDA:0,_ZN7GameGUI8onSayUNOEv
FNDA:0,_ZN7GameGUI17displaySaidUnoMsgE7QString
FNDA:0,_ZN7GameGUI7endTurnEv
FNDA:0,_Z14compareByScorePK6PlayerS1_
FNDA:0,_Z17compareByPositionPK6PlayerS1_
FNDA:0,_ZN7GameGUI13displayWinnerEv
FNDA:0,_ZN7GameGUI10closeEventEP11QCloseEvent
FNDA:0,_ZN7GameGUI12toggleVolumeEv
FNF:47
FNH:0
DA:38,0
DA:40,0
DA:43,0
DA:46,0
DA:48,0
DA:50,0
DA:52,0
DA:54,0
DA:56,0
DA:58,0
DA:59,0
DA:61,0
DA:63,0
DA:65,0
DA:67,0
DA:69,0
DA:71,0
DA:73,0
DA:75,0
DA:77,0
DA:78,0
DA:80,0
DA:82,0
DA:84,0
DA:86,0
DA:88,0
DA:92,0
DA:94,0
DA:96,0
DA:98,0
DA:99,0
DA:100,0
DA:101,0
DA:102,0
DA:103,0
DA:104,0
DA:105,0
DA:106,0
DA:107,0
DA:108,0
DA:109,0
DA:110,0
DA:111,0
DA:114,0
DA:116,0
DA:118,0
DA:120,0
DA:122,0
DA:124,0
DA:126,0
DA:128,0
DA:130,0
DA:132,0
DA:134,0
DA:136,0
DA:137,0
DA:139,0
DA:141,0
DA:143,0
DA:144,0
DA:145,0
DA:147,0
DA:148,0
DA:149,0
DA:150,0
DA:151,0
DA:153,0
DA:154,0
DA:155,0
DA:157,0
DA:159,0
DA:160,0
DA:161,0
DA:162,0
DA:164,0
DA:167,0
DA:168,0
DA:170,0
DA:172,0
DA:173,0
DA:174,0
DA:175,0
DA:177,0
DA:178,0
DA:180,0
DA:181,0
DA:182,0
DA:184,0
DA:185,0
DA:188,0
DA:189,0
DA:192,0
DA:194,0
DA:195,0
DA:196,0
DA:197,0
DA:199,0
DA:200,0
DA:202,0
DA:203,0
DA:204,0
DA:206,0
DA:207,0
DA:208,0
DA:210,0
DA:211,0
DA:212,0
DA:214,0
DA:215,0
DA:216,0
DA:218,0
DA:219,0
DA:220,0
DA:222,0
DA:223,0
DA:224,0
DA:227,0
DA:228,0
DA:231,0
DA:233,0
DA:234,0
DA:235,0
DA:236,0
DA:237,0
DA:238,0
DA:239,0
DA:240,0
DA:241,0
DA:242,0
DA:243,0
DA:244,0
DA:246,0
DA:247,0
DA:248,0
DA:250,0
DA:251,0
DA:252,0
DA:254,0
DA:255,0
DA:256,0
DA:258,0
DA:259,0
DA:260,0
DA:262,0
DA:263,0
DA:264,0
DA:266,0
DA:267,0
DA:268,0
DA:270,0
DA:271,0
DA:272,0
DA:274,0
DA:276,0
DA:279,0
DA:281,0
DA:282,0
DA:283,0
DA:284,0
DA:285,0
DA:286,0
DA:287,0
DA:289,0
DA:290,0
DA:291,0
DA:293,0
DA:294,0
DA:296,0
DA:297,0
DA:298,0
DA:299,0
DA:301,0
DA:302,0
DA:303,0
DA:305,0
DA:306,0
DA:307,0
DA:309,0
DA:310,0
DA:312,0
DA:315,0
DA:317,0
DA:318,0
DA:319,0
DA:320,0
DA:321,0
DA:323,0
DA:325,0
DA:326,0
DA:327,0
DA:328,0
DA:329,0
DA:331,0
DA:334,0
DA:335,0
DA:336,0
DA:337,0
DA:340,0
DA:341,0
DA:342,0
DA:343,0
DA:346,0
DA:347,0
DA:348,0
DA:349,0
DA:350,0
DA:352,0
DA:355,0
DA:356,0
DA:357,0
DA:358,0
DA:361,0
DA:362,0
DA:363,0
DA:364,0
DA:367,0
DA:368,0
DA:369,0
DA:370,0
DA:373,0
DA:374,0
DA:375,0
DA:376,0
DA:379,0
DA:380,0
DA:381,0
DA:382,0
DA:385,0
DA:386,0
DA:387,0
DA:388,0
DA:391,0
DA:392,0
DA:393,0
DA:394,0
DA:395,0
DA:397,0
DA:399,0
DA:401,0
DA:403,0
DA:404,0
DA:405,0
DA:408,0
DA:412,0
DA:414,0
DA:415,0
DA:416,0
DA:417,0
DA:418,0
DA:419,0
DA:421,0
DA:423,0
DA:425,0
DA:427,0
DA:428,0
DA:429,0
DA:430,0
DA:432,0
DA:435,0
DA:438,0
DA:440,0
DA:442,0
DA:444,0
DA:448,0
DA:452,0
DA:455,0
DA:456,0
DA:458,0
DA:460,0
DA:462,0
DA:465,0
DA:467,0
DA:469,0
DA:471,0
DA:473,0
DA:474,0
DA:476,0
DA:478,0
DA:479,0
DA:481,0
DA:483,0
DA:484,0
DA:485,0
DA:486,0
DA:488,0
DA:489,0
DA:491,0
DA:493,0
DA:494,0
DA:496,0
DA:499,0
DA:501,0
DA:503,0
DA:506,0
DA:508,0
DA:510,0
DA:511,0
DA:515,0
DA:518,0
DA:520,0
DA:521,0
DA:523,0
DA:525,0
DA:526,0
DA:527,0
DA:528,0
DA:532,0
DA:533,0
DA:535,0
DA:537,0
DA:539,0
DA:540,0
DA:542,0
DA:543,0
DA:544,0
DA:547,0
DA:548,0
DA:549,0
DA:550,0
DA:552,0
DA:554,0
DA:555,0
DA:557,0
DA:559,0
DA:560,0
DA:561,0
DA:562,0
DA:564,0
DA:565,0
DA:566,0
DA:567,0
DA:568,0
DA:570,0
DA:572,0
DA:575,0
DA:577,0
DA:579,0
DA:581,0
DA:582,0
DA:583,0
DA:586,0
DA:588,0
DA:590,0
DA:593,0
DA:594,0
DA:595,0
DA:597,0
DA:598,0
DA:599,0
DA:601,0
DA:602,0
DA:608,0
DA:609,0
DA:614,0
DA:617,0
DA:620,0
DA:621,0
DA:624,0
DA:626,0
DA:628,0
DA:629,0
DA:631,0
DA:633,0
DA:635,0
DA:637,0
DA:638,0
DA:639,0
DA:641,0
DA:642,0
DA:643,0
DA:645,0
DA:647,0
DA:648,0
DA:649,0
DA:651,0
DA:653,0
DA:655,0
DA:657,0
DA:659,0
DA:661,0
DA:663,0
DA:664,0
DA:666,0
DA:667,0
DA:668,0
DA:670,0
DA:671,0
DA:673,0
DA:674,0
DA:675,0
DA:680,0
DA:681,0
DA:683,0
DA:686,0
DA:688,0
DA:691,0
DA:693,0
DA:694,0
DA:696,0
DA:699,0
DA:701,0
DA:704,0
DA:706,0
DA:707,0
DA:709,0
DA:711,0
DA:713,0
DA:714,0
DA:715,0
DA:716,0
DA:717,0
DA:718,0
DA:719,0
DA:720,0
DA:722,0
DA:724,0
DA:730,0
DA:731,0
DA:733,0
DA:735,0
DA:737,0
DA:738,0
DA:739,0
DA:740,0
DA:741,0
DA:742,0
DA:743,0
DA:744,0
DA:745,0
DA:746,0
DA:747,0
DA:748,0
DA:752,0
DA:754,0
DA:756,0
DA:757,0
DA:758,0
DA:759,0
DA:760,0
DA:761,0
DA:762,0
DA:763,0
DA:764,0
DA:765,0
DA:766,0
DA:767,0
DA:768,0
DA:769,0
DA:773,0
DA:775,0
DA:776,0
DA:777,0
DA:778,0
DA:780,0
DA:781,0
DA:782,0
DA:783,0
DA:785,0
DA:788,0
DA:790,0
DA:793,0
DA:794,0
DA:795,0
DA:796,0
DA:798,0
DA:802,0
DA:803,0
DA:804,0
DA:805,0
DA:807,0
DA:811,0
DA:812,0
DA:813,0
DA:814,0
DA:816,0
DA:820,0
DA:821,0
DA:822,0
DA:823,0
DA:825,0
DA:827,0
DA:828,0
DA:829,0
DA:831,0
DA:833,0
DA:834,0
DA:835,0
DA:837,0
DA:839,0
DA:840,0
DA:842,0
DA:843,0
DA:845,0
DA:846,0
DA:847,0
DA:849,0
DA:851,0
DA:853,0
DA:854,0
DA:855,0
DA:857,0
DA:860,0
DA:862,0
DA:864,0
DA:867,0
DA:869,0
DA:872,0
DA:880,0
DA:882,0
DA:883,0
DA:884,0
DA:885,0
DA:888,0
DA:889,0
DA:891,0
DA:892,0
DA:893,0
DA:894,0
DA:895,0
DA:898,0
DA:899,0
DA:902,0
DA:903,0
DA:904,0
DA:905,0
DA:907,0
DA:908,0
DA:912,0
DA:913,0
DA:914,0
DA:915,0
DA:918,0
DA:919,0
DA:920,0
DA:921,0
DA:922,0
DA:925,0
DA:926,0
DA:927,0
DA:946,0
DA:947,0
DA:949,0
DA:950,0
DA:952,0
DA:954,0
DA:955,0
DA:957,0
DA:958,0
DA:959,0
DA:960,0
DA:961,0
DA:963,0
DA:964,0
DA:966,0
DA:968,0
DA:970,0
DA:971,0
DA:972,0
DA:973,0
DA:974,0
DA:978,0
DA:979,0
DA:980,0
DA:981,0
DA:982,0
DA:984,0
DA:985,0
LF:567
LH:0
end_of_record
TN:
SF:/home/marija/Desktop/2024_Analysis_12-Uno/12-UNO/UNO/sources/gameclient.cpp
FN:12,15,_ZN10GameClientC2EP7QObject
FN:129,132,_ZN10GameClient8isMyTurnEv
FN:134,141,_ZN10GameClient10getMessageEv
FN:143,205,_ZN10GameClient8loadGameEv
FN:17,23,_ZN10GameClientC2EP7QObjectP4Game7QStringb
FN:207,211,_ZN10GameClient11sendMessageE7QString
FN:213,213,_ZN10GameClient7getGameEv
FN:25,25,_ZN10GameClientD0Ev
FN:25,25,_ZN10GameClientD2Ev
FN:27,27,_ZN10GameClient6isHostEv
FN:29,127,_ZN10GameClient3runEv
FNDA:0,_ZN10GameClientC2EP7QObject
FNDA:0,_ZN10GameClient8isMyTurnEv
FNDA:0,_ZN10GameClient10getMessageEv
FNDA:0,_ZN10GameClient8loadGameEv
FNDA:0,_ZN10GameClientC2EP7QObjectP4Game7QStringb
FNDA:0,_ZN10GameClient11sendMessageE7QString
FNDA:0,_ZN10GameClient7getGameEv
FNDA:0,_ZN10GameClientD0Ev
FNDA:0,_ZN10GameClientD2Ev
FNDA:0,_ZN10GameClient6isHostEv
FNDA:0,_ZN10GameClient3runEv
FNF:11
FNH:0
DA:12,0
DA:13,0
DA:15,0
DA:17,0
DA:20,0
DA:21,0
DA:23,0
DA:25,0
DA:27,0
DA:29,0
DA:31,0
DA:33,0
DA:35,0
DA:36,0
DA:38,0
DA:41,0
DA:43,0
DA:47,0
DA:48,0
DA:49,0
DA:53,0
DA:55,0
DA:57,0
DA:60,0
DA:62,0
DA:64,0
DA:68,0
DA:70,0
DA:72,0
DA:73,0
DA:75,0
DA:76,0
DA:78,0
DA:79,0
DA:82,0
DA:84,0
DA:86,0
DA:90,0
DA:96,0
DA:97,0
DA:98,0
DA:100,0
DA:101,0
DA:105,0
DA:106,0
DA:108,0
DA:110,0
DA:111,0
DA:114,0
DA:118,0
DA:119,0
DA:122,0
DA:123,0
DA:125,0
DA:126,0
DA:127,0
DA:129,0
DA:131,0
DA:134,0
DA:137,0
DA:138,0
DA:139,0
DA:140,0
DA:143,0
DA:146,0
DA:148,0
DA:151,0
DA:152,0
DA:157,0
DA:159,0
DA:161,0
DA:162,0
DA:164,0
DA:166,0
DA:168,0
DA:170,0
DA:172,0
DA:176,0
DA:178,0
DA:180,0
DA:184,0
DA:185,0
DA:189,0
DA:191,0
DA:193,0
DA:194,0
DA:197,0
DA:200,0
DA:202,0
DA:204,0
DA:205,0
DA:207,0
DA:209,0
DA:211,0
DA:213,0
LF:95
LH:0
end_of_record
TN:
SF:/home/marija/Desktop/2024_Analysis_12-Uno/12-UNO/UNO/sources/gameserver.cpp
FN:102,108,_ZN10GameServer6refillEv
FN:110,110,_ZNK10GameServer7getGameEv
FN:112,127,_ZNK10GameServer12getDeckOrderB5cxx11Ev
FN:12,15,_ZN10GameServerC2EP7QObject
FN:133,142,_ZN10GameServer11sendMessageENSt7__cxx1112basic_stringIcSt11char_traitsIcESaIcEEEi
FN:144,165,_ZN10GameServer10getMessageB5cxx11Ev
FN:167,177,_ZN10GameServer11processTurnENSt7__cxx1112basic_stringIcSt11char_traitsIcESaIcEEE
FN:17,22,_ZN10GameServerC2EP7QObjectP4Game
FN:24,24,_ZN10GameServerD0Ev
FN:24,24,_ZN10GameServerD2Ev
FN:26,26,_ZN10GameServer11stopWaitingEv
FN:28,28,_ZN10GameServer18setNumberOfPlayersEi
FN:30,70,_ZN10GameServer3runEv
FN:72,75,_ZNK10GameServer10isBotsTurnEv
FN:77,100,_ZN10GameServer11sendInitialEv
FNDA:0,_ZN10GameServer6refillEv
FNDA:0,_ZNK10GameServer7getGameEv
FNDA:0,_ZNK10GameServer12getDeckOrderB5cxx11Ev
FNDA:0,_ZN10GameServerC2EP7QObject
FNDA:0,_ZN10GameServer11sendMessageENSt7__cxx1112basic_stringIcSt11char_traitsIcESaIcEEEi
FNDA:0,_ZN10GameServer10getMessageB5cxx11Ev
FNDA:0,_ZN10GameServer11processTurnENSt7__cxx1112basic_stringIcSt11char_traitsIcESaIcEEE
FNDA:0,_ZN10GameServerC2EP7QObjectP4Game
FNDA:0,_ZN10GameServerD0Ev
FNDA:0,_ZN10GameServerD2Ev
FNDA:0,_ZN10GameServer11stopWaitingEv
FNDA:0,_ZN10GameServer18setNumberOfPlayersEi
FNDA:0,_ZN10GameServer3runEv
FNDA:0,_ZNK10GameServer10isBotsTurnEv
FNDA:0,_ZN10GameServer11sendInitialEv
FNF:15
FNH:0
DA:12,0
DA:13,0
DA:15,0
DA:17,0
DA:19,0
DA:21,0
DA:22,0
DA:24,0
DA:26,0
DA:28,0
DA:30,0
DA:32,0
DA:34,0
DA:36,0
DA:38,0
DA:40,0
DA:41,0
DA:42,0
DA:43,0
DA:45,0
DA:46,0
DA:48,0
DA:50,0
DA:51,0
DA:53,0
DA:57,0
DA:58,0
DA:59,0
DA:61,0
DA:63,0
DA:66,0
DA:67,0
DA:69,0
DA:70,0
DA:72,0
DA:74,0
DA:77,0
DA:79,0
DA:82,0
DA:85,0
DA:87,0
DA:89,0
DA:90,0
DA:94,0
DA:97,0
DA:99,0
DA:100,0
DA:102,0
DA:104,0
DA:105,0
DA:106,0
DA:107,0
DA:108,0
DA:110,0
DA:112,0
DA:114,0
DA:116,0
DA:119,0
DA:121,0
DA:123,0
DA:126,0
DA:133,0
DA:135,0
DA:137,0
DA:139,0
DA:142,0
DA:144,0
DA:146,0
DA:148,0
DA:150,0
DA:151,0
DA:154,0
DA:158,0
DA:160,0
DA:162,0
DA:164,0
DA:167,0
DA:169,0
DA:171,0
DA:172,0
DA:175,0
DA:176,0
LF:82
LH:0
end_of_record
TN:
SF:/home/marija/Desktop/2024_Analysis_12-Uno/12-UNO/UNO/sources/human.cpp
FN:13,13,_ZN5HumanD0Ev
FN:13,13,_ZN5HumanD2Ev
FN:15,15,_ZNK5Human5isBotEv
FN:17,30,_ZN5Human8playCardERKi
FN:32,32,_ZN5Human11chooseColorEv
FN:34,34,_ZN5Human4playEv
FN:36,36,_ZNK5Human4gameEv
FN:38,38,_ZN5Human7setGameEP4Game
FN:40,47,_ZN5Human8drawCardERKi
FN:49,58,_ZN5Human16hasPlayableCardsEv
FN:5,5,_ZN5HumanC2Ev
FN:7,11,_ZN5HumanC2E7QStringP4Game
FNDA:22,_ZN5HumanD0Ev
FNDA:22,_ZN5HumanD2Ev
FNDA:1,_ZNK5Human5isBotEv
FNDA:0,_ZN5Human8playCardERKi
FNDA:1,_ZN5Human11chooseColorEv
FNDA:0,_ZN5Human4playEv
FNDA:0,_ZNK5Human4gameEv
FNDA:0,_ZN5Human7setGameEP4Game
FNDA:7,_ZN5Human8drawCardERKi
FNDA:0,_ZN5Human16hasPlayableCardsEv
FNDA:23,_ZN5HumanC2Ev
FNDA:1,_ZN5HumanC2E7QStringP4Game
FNF:12
FNH:7
DA:5,23
DA:7,1
DA:9,1
DA:11,1
DA:13,44
DA:15,1
DA:17,0
DA:19,0
DA:20,0
DA:22,0
DA:23,0
DA:24,0
DA:28,0
DA:32,1
DA:34,0
DA:36,0
DA:38,0
DA:40,7
DA:42,14
DA:44,7
DA:45,7
DA:47,7
DA:49,0
DA:51,0
DA:52,0
DA:54,0
DA:55,0
DA:57,0
LF:28
LH:12
end_of_record
TN:
SF:/home/marija/Desktop/2024_Analysis_12-Uno/12-UNO/UNO/sources/instructionsWidget.cpp
FN:16,16,_ZN18InstructionsWidgetD0Ev
FN:16,16,_ZN18InstructionsWidgetD2Ev
FN:18,26,_ZN18InstructionsWidget10closeEventEP11QCloseEvent
FN:8,14,_ZN18InstructionsWidgetC2EP7QWidget
FNDA:0,_ZN18InstructionsWidgetD0Ev
FNDA:0,_ZN18InstructionsWidgetD2Ev
FNDA:0,_ZN18InstructionsWidget10closeEventEP11QCloseEvent
FNDA:0,_ZN18InstructionsWidgetC2EP7QWidget
FNF:4
FNH:0
DA:8,0
DA:10,0
DA:12,0
DA:13,0
DA:14,0
DA:16,0
DA:18,0
DA:20,0
DA:21,0
DA:22,0
DA:23,0
DA:24,0
DA:25,0
DA:26,0
LF:14
LH:0
end_of_record
TN:
SF:/home/marija/Desktop/2024_Analysis_12-Uno/12-UNO/UNO/sources/leaderboards.cpp
FN:12,20,_ZN12Leaderboards28generateLeaderboardsFileNameEv
FN:22,40,_ZN12Leaderboards16insertGameScoresE5QListISt4pairI7QStringiEE
FN:42,48,_ZN12Leaderboards8loadJsonE7QString
FN:50,56,_ZN12Leaderboards8saveJsonE13QJsonDocument7QString
FN:58,62,_Z14compareByScoreRKSt4pairI7QStringiES3_
FN:64,86,_ZN12Leaderboards19returnSortedResultsEv
FN:7,10,_ZN12LeaderboardsC2Ev
FNDA:0,_ZN12Leaderboards28generateLeaderboardsFileNameEv
FNDA:0,_ZN12Leaderboards16insertGameScoresE5QListISt4pairI7QStringiEE
FNDA:0,_ZN12Leaderboards8loadJsonE7QString
FNDA:0,_ZN12Leaderboards8saveJsonE13QJsonDocument7QString
FNDA:0,_Z14compareByScoreRKSt4pairI7QStringiES3_
FNDA:0,_ZN12Leaderboards19returnSortedResultsEv
FNDA:0,_ZN12LeaderboardsC2Ev
FNF:7
FNH:0
DA:7,0
DA:8,0
DA:10,0
DA:12,0
DA:14,0
DA:16,0
DA:17,0
DA:18,0
DA:19,0
DA:22,0
DA:24,0
DA:25,0
DA:27,0
DA:29,0
DA:31,0
DA:32,0
DA:35,0
DA:38,0
DA:39,0
DA:40,0
DA:42,0
DA:44,0
DA:45,0
DA:46,0
DA:47,0
DA:50,0
DA:52,0
DA:53,0
DA:54,0
DA:55,0
DA:56,0
DA:58,0
DA:61,0
DA:64,0
DA:66,0
DA:67,0
DA:69,0
DA:70,0
DA:72,0
DA:73,0
DA:76,0
DA:78,0
DA:79,0
DA:80,0
DA:81,0
DA:82,0
DA:83,0
DA:84,0
DA:85,0
LF:49
LH:0
end_of_record
TN:
SF:/home/marija/Desktop/2024_Analysis_12-Uno/12-UNO/UNO/sources/lobby.cpp
FN:10,47,_ZN5LobbyC2EP7QWidgetP14GameParameters
FN:115,120,_ZN5Lobby13initBotFramesEi
FN:122,165,_ZN5Lobby9initNamesEv
FN:167,174,_ZN5Lobby9startGameEv
FN:176,195,_ZN5Lobby12toggleVolumeEv
FN:197,197,_ZN5LobbyD0Ev
FN:197,197,_ZN5LobbyD2Ev
FN:199,209,_ZN5Lobby20startGameBtn_clickedEv
FN:49,72,_ZN5Lobby4initEv
FN:74,81,_ZN5Lobby9initLobbyEv
FN:83,113,_ZN5Lobby10initFramesE7QString
FNDA:0,_ZN5LobbyC2EP7QWidgetP14GameParameters
FNDA:0,_ZN5Lobby13initBotFramesEi
FNDA:0,_ZN5Lobby9initNamesEv
FNDA:0,_ZN5Lobby9startGameEv
FNDA:0,_ZN5Lobby12toggleVolumeEv
FNDA:0,_ZN5LobbyD0Ev
FNDA:0,_ZN5LobbyD2Ev
FNDA:0,_ZN5Lobby20startGameBtn_clickedEv
FNDA:0,_ZN5Lobby4initEv
FNDA:0,_ZN5Lobby9initLobbyEv
FNDA:0,_ZN5Lobby10initFramesE7QString
FNF:11
FNH:0
DA:10,0
DA:12,0
DA:13,0
DA:15,0
DA:17,0
DA:19,0
DA:21,0
DA:23,0
DA:24,0
DA:26,0
DA:28,0
DA:30,0
DA:32,0
DA:34,0
DA:36,0
DA:38,0
DA:40,0
DA:41,0
DA:43,0
DA:45,0
DA:47,0
DA:49,0
DA:51,0
DA:52,0
DA:53,0
DA:55,0
DA:56,0
DA:57,0
DA:58,0
DA:59,0
DA:61,0
DA:62,0
DA:64,0
DA:66,0
DA:68,0
DA:69,0
DA:70,0
DA:71,0
DA:72,0
DA:74,0
DA:76,0
DA:80,0
DA:81,0
DA:83,0
DA:85,0
DA:86,0
DA:87,0
DA:89,0
DA:91,0
DA:92,0
DA:95,0
DA:97,0
DA:98,0
DA:100,0
DA:101,0
DA:102,0
DA:103,0
DA:105,0
DA:106,0
DA:108,0
DA:110,0
DA:111,0
DA:113,0
DA:115,0
DA:117,0
DA:118,0
DA:120,0
DA:122,0
DA:124,0
DA:126,0
DA:127,0
DA:129,0
DA:130,0
DA:131,0
DA:132,0
DA:135,0
DA:136,0
DA:138,0
DA:140,0
DA:141,0
DA:142,0
DA:143,0
DA:144,0
DA:146,0
DA:154,0
DA:155,0
DA:156,0
DA:157,0
DA:158,0
DA:159,0
DA:160,0
DA:161,0
DA:163,0
DA:165,0
DA:167,0
DA:169,0
DA:170,0
DA:171,0
DA:172,0
DA:173,0
DA:174,0
DA:176,0
DA:178,0
DA:180,0
DA:181,0
DA:182,0
DA:183,0
DA:184,0
DA:188,0
DA:189,0
DA:190,0
DA:191,0
DA:192,0
DA:194,0
DA:195,0
DA:197,0
DA:199,0
DA:202,0
DA:204,0
DA:209,0
LF:120
LH:0
end_of_record
TN:
SF:/home/marija/Desktop/2024_Analysis_12-Uno/12-UNO/UNO/sources/mainWindow.cpp
FN:107,112,_ZN10MainWindow19playVSAIBtn_clickedEv
FN:114,119,_ZN10MainWindow21playOnlineBtn_clickedEv
FN:121,126,_ZN10MainWindow15hostBtn_clickedEv
FN:128,133,_ZN10MainWindow15joinBtn_clickedEv
FN:135,140,_ZN10MainWindow20gamemode1Btn_clickedEv
FN:142,147,_ZN10MainWindow20gamemode2Btn_clickedEv
FN:149,153,_ZN10MainWindow20gamemode3Btn_clickedEv
FN:155,159,_ZN10MainWindow20gamemode4Btn_clickedEv
FN:161,166,_ZN10MainWindow18player2Btn_clickedEv
FN:168,173,_ZN10MainWindow18player4Btn_clickedEv
FN:175,180,_ZN10MainWindow18player8Btn_clickedEv
FN:182,187,_ZN10MainWindow20startGameBtn_clickedEv
FN:189,204,_ZN10MainWindow12startGameGUIEP14GameParameters
FN:206,210,_ZN10MainWindow21backToMainBtn_clickedEv
FN:212,216,_ZN10MainWindow25backToGameModeBtn_clickedEv
FN:218,227,_ZN10MainWindow26backToPlayerNumBtn_clickedEv
FN:229,233,_ZN10MainWindow23leaderboardsBtn_clickedEv
FN:235,239,_ZN10MainWindow23backToMainBtn_2_clickedEv
FN:241,245,_ZN10MainWindow23backToMainBtn_3_clickedEv
FN:247,250,_ZN10MainWindow30refreshLeaderboardsBtn_clickedEv
FN:252,255,_ZN10MainWindow24rewindSlider_sliderMovedEi
FN:257,263,_ZN10MainWindow24volumeSlider_sliderMovedEi
FN:265,265,_ZN10MainWindow23playMediaButton_clickedEv
FN:267,267,_ZN10MainWindow23muteMediaButton_clickedEv
FN:269,273,_ZN10MainWindow23backToMainBtn_4_clickedEv
FN:275,278,_ZN10MainWindow15positionChangedEi
FN:280,283,_ZN10MainWindow15durationChangedEi
FN:285,289,_ZN10MainWindow22settingsButton_clickedEv
FN:291,298,_ZN10MainWindow23on_pushButton_2_clickedEv
FN:32,32,_ZN10MainWindowD0Ev
FN:32,32,_ZN10MainWindowD2Ev
FN:34,105,_ZN10MainWindow14connectButtonsEv
FN:6,30,_ZN10MainWindowC2EP7QWidget
FNDA:0,_ZN10MainWindow19playVSAIBtn_clickedEv
FNDA:0,_ZN10MainWindow21playOnlineBtn_clickedEv
FNDA:0,_ZN10MainWindow15hostBtn_clickedEv
FNDA:0,_ZN10MainWindow15joinBtn_clickedEv
FNDA:0,_ZN10MainWindow20gamemode1Btn_clickedEv
FNDA:0,_ZN10MainWindow20gamemode2Btn_clickedEv
FNDA:0,_ZN10MainWindow20gamemode3Btn_clickedEv
FNDA:0,_ZN10MainWindow20gamemode4Btn_clickedEv
FNDA:0,_ZN10MainWindow18player2Btn_clickedEv
FNDA:0,_ZN10MainWindow18player4Btn_clickedEv
FNDA:0,_ZN10MainWindow18player8Btn_clickedEv
FNDA:0,_ZN10MainWindow20startGameBtn_clickedEv
FNDA:0,_ZN10MainWindow12startGameGUIEP14GameParameters
FNDA:0,_ZN10MainWindow21backToMainBtn_clickedEv
FNDA:0,_ZN10MainWindow25backToGameModeBtn_clickedEv
FNDA:0,_ZN10MainWindow26backToPlayerNumBtn_clickedEv
FNDA:0,_ZN10MainWindow23leaderboardsBtn_clickedEv
FNDA:0,_ZN10MainWindow23backToMainBtn_2_clickedEv
FNDA:0,_ZN10MainWindow23backToMainBtn_3_clickedEv
FNDA:0,_ZN10MainWindow30refreshLeaderboardsBtn_clickedEv
FNDA:0,_ZN10MainWindow24rewindSlider_sliderMovedEi
FNDA:0,_ZN10MainWindow24volumeSlider_sliderMovedEi
FNDA:0,_ZN10MainWindow23playMediaButton_clickedEv
FNDA:0,_ZN10MainWindow23muteMediaButton_clickedEv
FNDA:0,_ZN10MainWindow23backToMainBtn_4_clickedEv
FNDA:0,_ZN10MainWindow15positionChangedEi
FNDA:0,_ZN10MainWindow15durationChangedEi
FNDA:0,_ZN10MainWindow22settingsButton_clickedEv
FNDA:0,_ZN10MainWindow23on_pushButton_2_clickedEv
FNDA:0,_ZN10MainWindowD0Ev
FNDA:0,_ZN10MainWindowD2Ev
FNDA:0,_ZN10MainWindow14connectButtonsEv
FNDA:0,_ZN10MainWindowC2EP7QWidget
FNF:33
FNH:0
DA:6,0
DA:8,0
DA:10,0
DA:11,0
DA:12,0
DA:13,0
DA:14,0
DA:15,0
DA:17,0
DA:19,0
DA:20,0
DA:21,0
DA:23,0
DA:24,0
DA:25,0
DA:26,0
DA:27,0
DA:29,0
DA:30,0
DA:32,0
DA:34,0
DA:37,0
DA:39,0
DA:41,0
DA:43,0
DA:47,0
DA:49,0
DA:51,0
DA:53,0
DA:55,0
DA:59,0
DA:61,0
DA:63,0
DA:65,0
DA:69,0
DA:71,0
DA:75,0
DA:77,0
DA:81,0
DA:83,0
DA:85,0
DA:89,0
DA:91,0
DA:93,0
DA:94,0
DA:95,0
DA:97,0
DA:99,0
DA:101,0
DA:103,0
DA:105,0
DA:107,0
DA:109,0
DA:110,0
DA:111,0
DA:112,0
DA:114,0
DA:116,0
DA:117,0
DA:118,0
DA:119,0
DA:121,0
DA:123,0
DA:124,0
DA:125,0
DA:126,0
DA:128,0
DA:130,0
DA:131,0
DA:132,0
DA:133,0
DA:135,0
DA:137,0
DA:138,0
DA:139,0
DA:140,0
DA:142,0
DA:144,0
DA:145,0
DA:146,0
DA:147,0
DA:149,0
DA:151,0
DA:152,0
DA:153,0
DA:155,0
DA:157,0
DA:158,0
DA:159,0
DA:161,0
DA:163,0
DA:164,0
DA:165,0
DA:166,0
DA:168,0
DA:170,0
DA:171,0
DA:172,0
DA:173,0
DA:175,0
DA:177,0
DA:178,0
DA:179,0
DA:180,0
DA:182,0
DA:184,0
DA:185,0
DA:186,0
DA:187,0
DA:189,0
DA:191,0
DA:193,0
DA:194,0
DA:198,0
DA:199,0
DA:201,0
DA:202,0
DA:203,0
DA:204,0
DA:206,0
DA:208,0
DA:209,0
DA:210,0
DA:212,0
DA:214,0
DA:215,0
DA:216,0
DA:218,0
DA:220,0
DA:221,0
DA:222,0
DA:223,0
DA:225,0
DA:226,0
DA:227,0
DA:229,0
DA:231,0
DA:232,0
DA:233,0
DA:235,0
DA:237,0
DA:238,0
DA:239,0
DA:241,0
DA:243,0
DA:244,0
DA:245,0
DA:247,0
DA:249,0
DA:250,0
DA:252,0
DA:254,0
DA:255,0
DA:257,0
DA:259,0
DA:261,0
DA:262,0
DA:263,0
DA:265,0
DA:267,0
DA:269,0
DA:271,0
DA:272,0
DA:273,0
DA:275,0
DA:277,0
DA:278,0
DA:280,0
DA:282,0
DA:283,0
DA:285,0
DA:287,0
DA:288,0
DA:289,0
DA:291,0
DA:293,0
DA:294,0
DA:295,0
DA:296,0
DA:297,0
DA:298,0
LF:181
LH:0
end_of_record
TN:
SF:/home/marija/Desktop/2024_Analysis_12-Uno/12-UNO/UNO/sources/pc.cpp
FN:10,14,_ZN2PCC2E7QStringP4Game
FN:138,228,_ZN2PC4playEv
FN:16,16,_ZN2PCD0Ev
FN:16,16,_ZN2PCD2Ev
FN:18,18,_ZNK2PC5isBotEv
FN:20,20,_ZNK2PC14getCurrentGameEv
FN:22,29,_ZN2PC8drawCardERKi
FN:230,267,_ZN2PC11chooseColorEv
FN:269,278,_ZN2PC16hasPlayableCardsEv
FN:280,291,_ZN2PC16getPlayableCardsEv
FN:31,44,_ZN2PC8playCardERKi
FN:46,136,_ZN2PC12makeDecisionEv
FN:8,8,_ZN2PCC2Ev
FNDA:3,_ZN2PCC2E7QStringP4Game
FNDA:0,_ZN2PC4playEv
FNDA:3,_ZN2PCD0Ev
FNDA:3,_ZN2PCD2Ev
FNDA:1,_ZNK2PC5isBotEv
FNDA:0,_ZNK2PC14getCurrentGameEv
FNDA:21,_ZN2PC8drawCardERKi
FNDA:2,_ZN2PC11chooseColorEv
FNDA:0,_ZN2PC16hasPlayableCardsEv
FNDA:0,_ZN2PC16getPlayableCardsEv
FNDA:0,_ZN2PC8playCardERKi
FNDA:0,_ZN2PC12makeDecisionEv
FNDA:3,_ZN2PCC2Ev
FNF:13
FNH:7
DA:8,3
DA:10,3
DA:12,3
DA:14,3
DA:16,6
DA:18,1
DA:20,0
DA:22,21
DA:24,42
DA:26,21
DA:27,21
DA:29,21
DA:31,0
DA:34,0
DA:36,0
DA:38,0
DA:39,0
DA:40,0
DA:43,0
DA:46,0
DA:49,0
DA:52,0
DA:53,0
DA:55,0
DA:56,0
DA:57,0
DA:59,0
DA:61,0
DA:63,0
DA:64,0
DA:65,0
DA:67,0
DA:68,0
DA:71,0
DA:73,0
DA:75,0
DA:77,0
DA:78,0
DA:81,0
DA:84,0
DA:86,0
DA:88,0
DA:89,0
DA:91,0
DA:93,0
DA:95,0
DA:96,0
DA:97,0
DA:99,0
DA:100,0
DA:102,0
DA:103,0
DA:104,0
DA:105,0
DA:107,0
DA:108,0
DA:110,0
DA:111,0
DA:112,0
DA:113,0
DA:115,0
DA:116,0
DA:118,0
DA:119,0
DA:120,0
DA:121,0
DA:123,0
DA:124,0
DA:126,0
DA:127,0
DA:128,0
DA:132,0
DA:135,0
DA:138,0
DA:140,0
DA:141,0
DA:142,0
DA:143,0
DA:144,0
DA:146,0
DA:147,0
DA:149,0
DA:151,0
DA:153,0
DA:155,0
DA:156,0
DA:160,0
DA:162,0
DA:163,0
DA:165,0
DA:166,0
DA:168,0
DA:169,0
DA:171,0
DA:173,0
DA:175,0
DA:177,0
DA:178,0
DA:182,0
DA:183,0
DA:185,0
DA:186,0
DA:192,0
DA:197,0
DA:199,0
DA:200,0
DA:202,0
DA:204,0
DA:206,0
DA:208,0
DA:211,0
DA:212,0
DA:214,0
DA:215,0
DA:216,0
DA:219,0
DA:221,0
DA:222,0
DA:225,0
DA:227,0
DA:230,2
DA:232,2
DA:233,2
DA:234,2
DA:235,2
DA:237,8
DA:239,6
DA:241,3
DA:242,3
DA:243,3
DA:244,2
DA:245,2
DA:246,2
DA:247,1
DA:248,1
DA:249,1
DA:250,0
DA:251,0
DA:252,0
DA:253,0
DA:254,0
DA:258,2
DA:259,2
DA:260,2
DA:261,0
DA:262,0
DA:263,0
DA:264,0
DA:266,0
DA:269,0
DA:271,0
DA:272,0
DA:274,0
DA:275,0
DA:277,0
DA:280,0
DA:282,0
DA:284,0
DA:286,0
DA:287,0
DA:290,0
LF:161
LH:30
end_of_record
TN:
SF:/home/marija/Desktop/2024_Analysis_12-Uno/12-UNO/UNO/sources/pile.cpp
FN:13,21,_ZN4Pile8pushCardEP4Card
FN:23,33,_ZNK4Pile8lastCardEv
FN:3,3,_ZN4PileC2Ev
FN:35,35,_ZNK4Pile7getSizeEv
FN:37,37,_ZNK4Pile7isEmptyEv
FN:39,44,_ZN4Pile5clearEv
FN:46,46,_ZN4Pile7getPileEv
FN:48,48,_ZN4Pile12getWildColorEv
FN:5,11,_ZN4PileD2Ev
FN:50,50,_ZN4Pile12setWildColorEN4Card5COLORE
FN:52,60,_ZN4Pile3popEv
FNDA:125,_ZN4Pile8pushCardEP4Card
FNDA:5,_ZNK4Pile8lastCardEv
FNDA:18,_ZN4PileC2Ev
FNDA:16,_ZNK4Pile7getSizeEv
FNDA:7,_ZNK4Pile7isEmptyEv
FNDA:2,_ZN4Pile5clearEv
FNDA:1,_ZN4Pile7getPileEv
FNDA:2,_ZN4Pile12getWildColorEv
FNDA:15,_ZN4PileD2Ev
FNDA:2,_ZN4Pile12setWildColorEN4Card5COLORE
FNDA:2,_ZN4Pile3popEv
FNF:11
FNH:11
DA:3,18
DA:5,15
DA:7,23
DA:9,8
DA:11,15
DA:13,125
DA:15,125
DA:17,124
DA:20,1
DA:21,124
DA:23,5
DA:25,5
DA:27,4
DA:31,1
DA:35,16
DA:37,7
DA:39,2
DA:41,2
DA:42,2
DA:43,2
DA:44,2
DA:46,1
DA:48,2
DA:50,2
DA:52,2
DA:54,2
DA:55,1
DA:57,1
DA:58,1
DA:59,1
LF:30
LH:30
end_of_record
TN:
SF:/home/marija/Desktop/2024_Analysis_12-Uno/12-UNO/UNO/sources/player.cpp
FN:10,15,_ZN6PlayerC2E7QString
FN:100,100,_ZNK6Player8hasCardsEv
FN:102,102,_ZNK6Player7saidUNOEv
FN:104,104,_ZN6Player7setNameERK7QString
FN:106,111,_ZN6Player7setHandERK5QListIP4CardE
FN:113,113,_ZNK6Player7getPileEv
FN:115,115,_ZN6Player7setPileEP4Pile
FN:117,117,_ZN6Player9eliminateEv
FN:119,119,_ZN6Player12isEliminatedEv
FN:121,130,_ZN6Player9swapCardsEPS_
FN:132,132,_ZN6Player9takeCardsEPS_
FN:17,21,_ZN6PlayerD0Ev
FN:17,21,_ZN6PlayerD2Ev
FN:23,35,_ZNK6Player7hasCardERK4Card
FN:37,48,_ZN6Player13increaseScoreEP4Card
FN:50,50,_ZNK6Player13getTotalCardsEv
FN:52,52,_ZN6Player10obtainCardEP4Card
FN:56,56,_ZNK6Player9drawnCardEv
FN:58,58,_ZNK6Player7getNameEv
FN:60,60,_ZNK6Player8getScoreEv
FN:62,62,_ZN6Player8getCardsEv
FN:64,64,_ZN6Player8setScoreERKi
FN:66,69,_ZN6Player12setDrawnCardERKb
FN:71,71,_ZNK6Player9hasPlayedEv
FN:73,76,_ZN6Player12setHasPlayedERKb
FN:78,78,_ZNK6Player12finishedTurnEv
FN:8,8,_ZN6PlayerC2Ev
FN:80,83,_ZN6Player15setFinishedTurnERKb
FN:85,85,_ZNK6Player8isMyTurnEv
FN:87,87,_ZN6Player11setIsMyTurnERKb
FN:89,89,_ZNK6Player10playedCardEv
FN:91,94,_ZN6Player13setPlayedCardERKi
FN:96,96,_ZN6Player10removeCardEP4Card
FN:98,98,_ZN6Player6sayUNOERKb
FNDA:4,_ZN6PlayerC2E7QString
FNDA:2,_ZNK6Player8hasCardsEv
FNDA:0,_ZNK6Player7saidUNOEv
FNDA:0,_ZN6Player7setNameERK7QString
FNDA:23,_ZN6Player7setHandERK5QListIP4CardE
FNDA:1,_ZNK6Player7getPileEv
FNDA:1,_ZN6Player7setPileEP4Pile
FNDA:0,_ZN6Player9eliminateEv
FNDA:0,_ZN6Player12isEliminatedEv
FNDA:2,_ZN6Player9swapCardsEPS_
FNDA:2,_ZN6Player9takeCardsEPS_
FNDA:0,_ZN6PlayerD0Ev
FNDA:25,_ZN6PlayerD2Ev
FNDA:4,_ZNK6Player7hasCardERK4Card
FNDA:0,_ZN6Player13increaseScoreEP4Card
FNDA:4,_ZNK6Player13getTotalCardsEv
FNDA:30,_ZN6Player10obtainCardEP4Card
FNDA:0,_ZNK6Player9drawnCardEv
FNDA:0,_ZNK6Player7getNameEv
FNDA:1,_ZNK6Player8getScoreEv
FNDA:6,_ZN6Player8getCardsEv
FNDA:1,_ZN6Player8setScoreERKi
FNDA:0,_ZN6Player12setDrawnCardERKb
FNDA:2,_ZNK6Player9hasPlayedEv
FNDA:2,_ZN6Player12setHasPlayedERKb
FNDA:0,_ZNK6Player12finishedTurnEv
FNDA:26,_ZN6PlayerC2Ev
FNDA:0,_ZN6Player15setFinishedTurnERKb
FNDA:0,_ZNK6Player8isMyTurnEv
FNDA:0,_ZN6Player11setIsMyTurnERKb
FNDA:0,_ZNK6Player10playedCardEv
FNDA:0,_ZN6Player13setPlayedCardERKi
FNDA:1,_ZN6Player10removeCardEP4Card
FNDA:0,_ZN6Player6sayUNOERKb
FNF:34
FNH:18
DA:8,26
DA:10,4
DA:11,4
DA:12,4
DA:14,4
DA:15,4
DA:17,25
DA:19,71
DA:20,46
DA:21,25
DA:23,4
DA:25,10
DA:27,9
DA:28,9
DA:29,16
DA:30,7
DA:31,3
DA:34,1
DA:37,0
DA:39,0
DA:40,0
DA:43,0
DA:44,0
DA:46,0
DA:48,0
DA:50,4
DA:52,30
DA:56,0
DA:58,0
DA:60,1
DA:62,6
DA:64,1
DA:66,0
DA:68,0
DA:69,0
DA:71,2
DA:73,2
DA:75,2
DA:76,2
DA:78,0
DA:80,0
DA:82,0
DA:83,0
DA:85,0
DA:87,0
DA:89,0
DA:91,0
DA:93,0
DA:94,0
DA:96,1
DA:98,0
DA:100,2
DA:102,0
DA:104,0
DA:106,23
DA:108,23
DA:110,23
DA:111,23
DA:113,1
DA:115,1
DA:117,0
DA:119,0
DA:121,2
DA:123,2
DA:125,2
DA:127,2
DA:129,2
DA:130,2
DA:132,2
LF:69
LH:42
end_of_record
TN:
SF:/home/marija/Desktop/2024_Analysis_12-Uno/12-UNO/UNO/sources/server.cpp
FN:12,15,_ZN6ServerC2EP7QObject
FN:159,159,_ZNK6Server7getGameEv
FN:165,175,_ZN6Server11sendMessageENSt7__cxx1112basic_stringIcSt11char_traitsIcESaIcEEEi
FN:17,22,_ZN6ServerC2EP7QObjectP4Game
FN:177,198,_ZN6Server10getMessageB5cxx11Ev
FN:24,24,_ZN6ServerD0Ev
FN:24,24,_ZN6ServerD2Ev
FN:26,26,_ZN6Server11stopWaitingEv
FN:28,28,_ZN6Server18setNumberOfPlayersEi
FN:30,157,_ZN6Server3runEv
FNDA:0,_ZN6ServerC2EP7QObject
FNDA:0,_ZNK6Server7getGameEv
FNDA:0,_ZN6Server11sendMessageENSt7__cxx1112basic_stringIcSt11char_traitsIcESaIcEEEi
FNDA:0,_ZN6ServerC2EP7QObjectP4Game
FNDA:0,_ZN6Server10getMessageB5cxx11Ev
FNDA:0,_ZN6ServerD0Ev
FNDA:0,_ZN6ServerD2Ev
FNDA:0,_ZN6Server11stopWaitingEv
FNDA:0,_ZN6Server18setNumberOfPlayersEi
FNDA:0,_ZN6Server3runEv
FNF:10
FNH:0
DA:12,0
DA:13,0
DA:15,0
DA:17,0
DA:19,0
DA:21,0
DA:22,0
DA:24,0
DA:26,0
DA:28,0
DA:30,0
DA:32,0
DA:34,0
DA:35,0
DA:37,0
DA:38,0
DA:42,0
DA:43,0
DA:44,0
DA:46,0
DA:48,0
DA:49,0
DA:52,0
DA:54,0
DA:55,0
DA:57,0
DA:60,0
DA:64,0
DA:66,0
DA:67,0
DA:68,0
DA:69,0
DA:70,0
DA:71,0
DA:72,0
DA:73,0
DA:74,0
DA:75,0
DA:76,0
DA:77,0
DA:78,0
DA:79,0
DA:82,0
DA:85,0
DA:89,0
DA:90,0
DA:92,0
DA:94,0
DA:96,0
DA:98,0
DA:100,0
DA:101,0
DA:104,0
DA:108,0
DA:110,0
DA:112,0
DA:114,0
DA:116,0
DA:117,0
DA:118,0
DA:119,0
DA:120,0
DA:123,0
DA:125,0
DA:126,0
DA:128,0
DA:130,0
DA:132,0
DA:134,0
DA:135,0
DA:137,0
DA:138,0
DA:140,0
DA:141,0
DA:145,0
DA:147,0
DA:149,0
DA:150,0
DA:151,0
DA:153,0
DA:155,0
DA:157,0
DA:159,0
DA:165,0
DA:168,0
DA:170,0
DA:172,0
DA:175,0
DA:177,0
DA:179,0
DA:181,0
DA:183,0
DA:184,0
DA:187,0
DA:191,0
DA:193,0
DA:195,0
DA:197,0
LF:98
LH:0
end_of_record
TN:
SF:/home/marija/Desktop/2024_Analysis_12-Uno/12-UNO/UNO/sources/wildcard.cpp
FN:14,17,_ZN8WildCardC2E4Card
FN:19,19,_ZN8WildCardD0Ev
FN:19,19,_ZN8WildCardD2Ev
FN:21,31,_ZN8WildCard4playEPv
FN:33,33,_ZNK8WildCard10isPlayableEPv
FN:35,35,_ZN8WildCard12useWildColorERKN4Card5COLORE
FN:37,37,_ZN8WildCard18getChosenWildColorEv
FN:40,46,_ZN8WildCard6toHashEv
FN:5,5,_ZN8WildCardC2Ev
FN:7,12,_ZN8WildCardC2EN4Card9CARD_TYPEE
FNDA:0,_ZN8WildCardC2E4Card
FNDA:107,_ZN8WildCardD0Ev
FNDA:107,_ZN8WildCardD2Ev
FNDA:0,_ZN8WildCard4playEPv
FNDA:1,_ZNK8WildCard10isPlayableEPv
FNDA:0,_ZN8WildCard12useWildColorERKN4Card5COLORE
FNDA:0,_ZN8WildCard18getChosenWildColorEv
FNDA:10,_ZN8WildCard6toHashEv
FNDA:0,_ZN8WildCardC2Ev
FNDA:153,_ZN8WildCardC2EN4Card9CARD_TYPEE
FNF:10
FNH:5
DA:5,0
DA:7,153
DA:8,153
DA:10,149
DA:11,0
DA:12,149
DA:14,0
DA:15,0
DA:17,0
DA:19,214
DA:21,0
DA:24,0
DA:26,0
DA:28,0
DA:29,0
DA:31,0
DA:33,1
DA:35,0
DA:37,0
DA:40,10
DA:42,10
DA:43,5
DA:45,5
LF:23
LH:10
end_of_record
TN:
SF:/home/marija/Desktop/2024_Analysis_12-Uno/12-UNO/specification/tests/main.cpp
FN:5,9,main
FNDA:1,main
FNF:1
FNH:1
DA:5,1
DA:7,1
DA:8,1
LF:3
LH:3
end_of_record
TN:
SF:/home/marija/Desktop/2024_Analysis_12-Uno/12-UNO/specification/tests/test_card.cpp
FN:4,267,_ZL19C_A_T_C_H_T_E_S_T_0v
FNDA:19,_ZL19C_A_T_C_H_T_E_S_T_0v
FNF:1
FNH:1
DA:4,19
DA:6,20
DA:10,2
DA:13,20
DA:19,2
DA:22,20
DA:27,2
DA:28,2
DA:31,20
DA:36,2
DA:37,2
DA:40,20
DA:44,2
DA:47,20
DA:51,1
DA:54,1
DA:57,1
DA:60,20
DA:64,1
DA:67,1
DA:70,1
DA:73,20
DA:77,1
DA:78,1
DA:81,1
DA:84,1
DA:85,1
DA:88,20
DA:92,1
DA:93,1
DA:96,1
DA:99,1
DA:100,1
DA:103,20
DA:107,1
DA:108,1
DA:111,1
DA:114,1
DA:115,1
DA:118,20
DA:121,1
DA:122,1
DA:125,1
DA:128,1
DA:129,1
DA:132,20
DA:135,1
DA:136,1
DA:139,1
DA:140,1
DA:143,1
DA:146,1
DA:147,1
DA:150,20
DA:153,1
DA:154,1
DA:157,1
DA:158,1
DA:161,1
DA:164,1
DA:165,1
DA:168,20
DA:171,1
DA:172,1
DA:175,1
DA:176,1
DA:179,1
DA:182,1
DA:183,1
DA:186,20
DA:189,1
DA:190,1
DA:193,1
DA:194,1
DA:197,1
DA:200,1
DA:201,1
DA:204,20
DA:207,1
DA:208,1
DA:211,1
DA:212,1
DA:215,1
DA:218,1
DA:219,1
DA:222,20
DA:225,1
DA:226,1
DA:229,1
DA:230,1
DA:233,1
DA:236,1
DA:237,1
DA:240,20
DA:243,1
DA:244,1
DA:247,1
DA:250,1
DA:251,1
DA:254,20
DA:257,1
DA:258,1
DA:261,1
DA:264,1
DA:265,1
DA:267,19
LF:106
LH:106
end_of_record
TN:
SF:/home/marija/Desktop/2024_Analysis_12-Uno/12-UNO/specification/tests/test_deck.cpp
FN:5,240,_ZL19C_A_T_C_H_T_E_S_T_0v
FNDA:14,_ZL19C_A_T_C_H_T_E_S_T_0v
FNF:1
FNH:1
DA:5,14
DA:7,15
DA:10,1
DA:13,1
DA:16,1
DA:19,15
DA:22,1
DA:25,1
DA:26,1
DA:27,1
DA:30,1
DA:33,1
DA:34,1
DA:37,15
DA:40,1
DA:43,1
DA:46,1
DA:49,1
DA:50,1
DA:53,15
DA:56,1
DA:59,1
DA:62,1
DA:65,1
DA:66,1
DA:69,15
DA:72,1
DA:75,1
DA:78,1
DA:81,1
DA:82,1
DA:85,15
DA:88,1
DA:91,1
DA:94,1
DA:97,1
DA:98,1
DA:101,15
DA:104,1
DA:107,1
DA:110,1
DA:113,1
DA:114,1
DA:117,15
DA:120,1
DA:123,2
DA:126,1
DA:129,1
DA:132,15
DA:135,1
DA:136,1
DA:139,1
DA:140,1
DA:141,1
DA:142,1
DA:143,1
DA:146,1
DA:149,1
DA:152,15
DA:155,1
DA:156,1
DA:157,1
DA:158,1
DA:159,1
DA:162,1
DA:165,1
DA:168,1
DA:171,15
DA:174,1
DA:177,1
DA:180,1
DA:183,15
DA:186,1
DA:187,1
DA:190,109
DA:193,108
DA:197,1
DA:200,1
DA:203,15
DA:206,1
DA:207,1
DA:210,1
DA:213,1
DA:216,1
DA:219,15
DA:222,1
DA:223,1
DA:224,1
DA:227,1
DA:228,1
DA:229,1
DA:232,1
DA:235,1
DA:236,1
DA:237,1
DA:240,14
LF:96
LH:96
end_of_record
TN:
SF:/home/marija/Desktop/2024_Analysis_12-Uno/12-UNO/specification/tests/test_game.cpp
FN:4,96,_ZL19C_A_T_C_H_T_E_S_T_0v
FNDA:5,_ZL19C_A_T_C_H_T_E_S_T_0v
FNF:1
FNH:1
DA:4,5
DA:6,6
DA:10,2
DA:13,6
DA:17,1
DA:18,1
DA:19,1
DA:20,1
DA:21,1
DA:22,1
DA:24,1
DA:25,1
DA:28,109
DA:29,108
DA:31,1
DA:32,1
DA:35,1
DA:38,1
DA:41,6
DA:44,1
DA:45,1
DA:46,1
DA:49,1
DA:52,1
DA:55,1
DA:56,1
DA:59,6
DA:62,1
DA:63,1
DA:66,1
DA:69,1
DA:72,1
DA:75,6
DA:78,1
DA:79,1
DA:80,1
DA:81,1
DA:84,109
DA:85,108
DA:87,1
DA:90,1
DA:93,1
DA:94,1
DA:96,5
LF:44
LH:44
end_of_record
TN:
SF:/home/marija/Desktop/2024_Analysis_12-Uno/12-UNO/specification/tests/test_human.cpp
FN:4,36,_ZL19C_A_T_C_H_T_E_S_T_0v
FNDA:2,_ZL19C_A_T_C_H_T_E_S_T_0v
FNF:1
FNH:1
DA:4,2
DA:6,3
DA:10,1
DA:13,1
DA:16,1
DA:19,1
DA:22,3
DA:25,1
DA:28,1
DA:31,1
DA:34,1
DA:36,2
LF:12
LH:12
end_of_record
TN:
SF:/home/marija/Desktop/2024_Analysis_12-Uno/12-UNO/specification/tests/test_pc.cpp
FN:4,68,_ZL19C_A_T_C_H_T_E_S_T_0v
FNDA:3,_ZL19C_A_T_C_H_T_E_S_T_0v
FNF:1
FNH:1
DA:4,3
DA:6,4
DA:9,1
DA:12,1
DA:15,1
DA:18,1
DA:20,4
DA:23,1
DA:24,1
DA:25,1
DA:26,1
DA:27,2
DA:28,1
DA:30,1
DA:33,1
DA:36,1
DA:40,1
DA:44,4
DA:47,1
DA:48,1
DA:49,1
DA:50,1
DA:51,2
DA:52,1
DA:54,1
DA:57,1
DA:60,1
DA:64,1
DA:68,3
LF:29
LH:29
end_of_record
TN:
SF:/home/marija/Desktop/2024_Analysis_12-Uno/12-UNO/specification/tests/test_pile.cpp
FN:6,278,_ZL19C_A_T_C_H_T_E_S_T_0v
FNDA:16,_ZL19C_A_T_C_H_T_E_S_T_0v
FNF:1
FNH:1
DA:6,16
DA:8,17
DA:11,1
DA:14,1
DA:17,1
DA:20,17
DA:23,1
DA:26,1
DA:29,1
DA:32,17
DA:36,1
DA:37,1
DA:40,109
DA:41,108
DA:44,1
DA:47,17
DA:51,1
DA:52,1
DA:53,1
DA:56,1
DA:57,1
DA:60,1
DA:63,1
DA:66,17
DA:69,1
DA:72,1
DA:75,1
DA:78,17
DA:81,1
DA:82,1
DA:85,1
DA:88,1
DA:91,1
DA:94,17
DA:97,1
DA:98,1
DA:99,1
DA:100,1
DA:101,1
DA:103,1
DA:106,1
DA:109,1
DA:112,1
DA:115,17
DA:118,1
DA:119,1
DA:120,1
DA:123,1
DA:124,1
DA:127,1
DA:128,1
DA:131,1
DA:132,1
DA:135,17
DA:138,1
DA:139,1
DA:140,1
DA:143,1
DA:146,1
DA:149,1
DA:152,17
DA:155,1
DA:156,1
DA:157,1
DA:160,1
DA:163,1
DA:166,1
DA:169,17
DA:173,1
DA:176,1
DA:179,1
DA:182,1
DA:185,17
DA:188,1
DA:189,1
DA:192,1
DA:195,1
DA:198,1
DA:201,17
DA:204,1
DA:205,1
DA:206,1
DA:207,1
DA:210,1
DA:213,1
DA:216,1
DA:219,17
DA:223,1
DA:224,1
DA:225,1
DA:226,1
DA:227,1
DA:229,1
DA:232,1
DA:233,1
DA:236,1
DA:237,1
DA:240,1
DA:243,17
DA:246,1
DA:249,1
DA:252,1
DA:255,17
DA:259,1
DA:260,1
DA:261,1
DA:262,1
DA:263,1
DA:264,1
DA:267,1
DA:268,1
DA:271,1
DA:272,1
DA:275,1
DA:276,1
DA:278,16
LF:116
LH:116
end_of_record
TN:
SF:/home/marija/Desktop/2024_Analysis_12-Uno/12-UNO/specification/tests/test_player.cpp
FN:8,494,_ZL19C_A_T_C_H_T_E_S_T_0v
FNDA:19,_ZL19C_A_T_C_H_T_E_S_T_0v
FNF:1
FNH:1
DA:8,19
DA:10,20
DA:13,1
DA:14,1
DA:15,1
DA:16,1
DA:17,1
DA:19,1
DA:20,2
DA:21,1
DA:24,1
DA:27,1
DA:30,1
DA:35,20
DA:39,1
DA:40,1
DA:41,1
DA:42,1
DA:43,1
DA:45,1
DA:46,2
DA:47,1
DA:50,1
DA:53,1
DA:56,1
DA:57,1
DA:61,20
DA:64,1
DA:65,1
DA:66,1
DA:67,1
DA:68,1
DA:70,1
DA:71,2
DA:72,1
DA:75,1
DA:78,1
DA:91,20
DA:95,1
DA:96,1
DA:97,1
DA:98,1
DA:99,1
DA:101,1
DA:102,2
DA:103,1
DA:106,1
DA:109,1
DA:112,1
DA:113,1
DA:116,20
DA:120,1
DA:121,1
DA:122,1
DA:123,1
DA:124,2
DA:125,1
DA:127,1
DA:130,1
DA:133,1
DA:136,1
DA:139,20
DA:143,1
DA:145,2
DA:146,1
DA:148,1
DA:151,1
DA:154,1
DA:157,1
DA:160,20
DA:164,1
DA:165,1
DA:166,1
DA:167,1
DA:168,2
DA:169,1
DA:171,1
DA:174,1
DA:177,1
DA:180,1
DA:185,20
DA:189,1
DA:191,2
DA:192,1
DA:194,1
DA:197,1
DA:200,1
DA:202,1
DA:206,20
DA:210,1
DA:211,1
DA:213,1
DA:214,1
DA:217,1
DA:220,1
DA:223,1
DA:226,20
DA:230,1
DA:231,1
DA:232,1
DA:235,1
DA:238,1
DA:241,1
DA:244,1
DA:248,20
DA:252,1
DA:253,1
DA:254,1
DA:257,1
DA:260,1
DA:263,1
DA:266,1
DA:270,20
DA:274,1
DA:275,1
DA:276,1
DA:277,1
DA:278,2
DA:279,1
DA:281,2
DA:284,2
DA:287,1
DA:290,1
DA:294,20
DA:298,1
DA:300,2
DA:301,1
DA:303,2
DA:306,2
DA:309,1
DA:312,1
DA:316,20
DA:320,1
DA:321,1
DA:323,1
DA:324,1
DA:325,1
DA:326,1
DA:327,1
DA:328,1
DA:330,1
DA:332,1
DA:335,1
DA:338,1
DA:341,1
DA:346,20
DA:350,1
DA:351,1
DA:352,1
DA:353,1
DA:354,2
DA:355,1
DA:357,1
DA:358,1
DA:359,1
DA:360,1
DA:361,2
DA:362,1
DA:364,1
DA:366,2
DA:369,2
DA:372,1
DA:375,1
DA:376,1
DA:380,20
DA:384,1
DA:385,1
DA:386,1
DA:387,1
DA:388,2
DA:389,1
DA:391,1
DA:392,1
DA:393,1
DA:394,1
DA:395,2
DA:396,1
DA:398,1
DA:400,2
DA:403,2
DA:406,1
DA:409,1
DA:410,1
DA:417,20
DA:421,1
DA:422,1
DA:423,1
DA:424,1
DA:425,2
DA:426,1
DA:427,1
DA:429,1
DA:432,1
DA:435,1
DA:438,1
DA:441,20
DA:445,1
DA:446,1
DA:447,1
DA:448,1
DA:449,1
DA:450,2
DA:451,1
DA:452,1
DA:454,1
DA:457,1
DA:460,1
DA:463,1
DA:467,20
DA:471,1
DA:472,1
DA:473,1
DA:474,1
DA:475,1
DA:476,2
DA:477,1
DA:478,1
DA:480,2
DA:481,2
DA:484,2
DA:487,1
DA:490,1
DA:494,19
LF:223
LH:223
end_of_record
TN:
SF:/home/marija/Desktop/2024_Analysis_12-Uno/12-UNO/specification/tests/test_wildcard.cpp
FN:5,67,_ZL19C_A_T_C_H_T_E_S_T_0v
FNDA:7,_ZL19C_A_T_C_H_T_E_S_T_0v
FNF:1
FNH:1
DA:5,7
DA:7,8
DA:10,2
DA:13,8
DA:16,2
DA:19,8
DA:22,2
DA:25,8
DA:28,2
DA:31,8
DA:34,1
DA:37,1
DA:40,1
DA:43,8
DA:46,1
DA:49,1
DA:52,1
DA:55,8
DA:58,1
DA:61,1
DA:64,1
DA:67,7
LF:22
LH:22
end_of_record
TN:
SF:/home/marija/Desktop/2024_Analysis_12-Uno/external/catch2/catch.hpp
FN:10000,10000,_ZNK5Catch6Config24includeSuccessfulResultsEv
FN:10001,10001,_ZNK5Catch6Config26warnAboutMissingAssertionsEv
FN:10002,10002,_ZNK5Catch6Config16warnAboutNoTestsEv
FN:10003,10003,_ZNK5Catch6Config13showDurationsEv
FN:10004,10004,_ZNK5Catch6Config11minDurationEv
FN:10005,10005,_ZNK5Catch6Config8runOrderEv
FN:10006,10006,_ZNK5Catch6Config7rngSeedEv
FN:10007,10007,_ZNK5Catch6Config9useColourEv
FN:10008,10008,_ZNK5Catch6Config16shouldDebugBreakEv
FN:10009,10009,_ZNK5Catch6Config10abortAfterEv
FN:10010,10010,_ZNK5Catch6Config14showInvisiblesEv
FN:10011,10011,_ZNK5Catch6Config9verbosityEv
FN:10013,10013,_ZNK5Catch6Config19benchmarkNoAnalysisEv
FN:10014,10014,_ZNK5Catch6Config16benchmarkSamplesEv
FN:10015,10015,_ZNK5Catch6Config27benchmarkConfidenceIntervalEv
FN:10016,10016,_ZNK5Catch6Config18benchmarkResamplesEv
FN:10017,10017,_ZNK5Catch6Config19benchmarkWarmupTimeEv
FN:10019,10021,_ZN5Catch6Config10openStreamEv
FN:10083,10083,_ZN5Catch12_GLOBAL__N_111IColourImplD2Ev
FN:10088,10088,_ZN5Catch12_GLOBAL__N_112NoColourImpl3useENS_6Colour4CodeE
FN:10090,10093,_ZN5Catch12_GLOBAL__N_112NoColourImpl8instanceEv
FN:10185,10205,_ZN5Catch12_GLOBAL__N_115PosixColourImpl3useENS_6Colour4CodeE
FN:10206,10209,_ZN5Catch12_GLOBAL__N_115PosixColourImpl8instanceEv
FN:10212,10215,_ZN5Catch12_GLOBAL__N_115PosixColourImpl9setColourEPKc
FN:10218,10229,_ZN5Catch12_GLOBAL__N_119useColourOnPlatformEv
FN:10230,10243,_ZN5Catch12_GLOBAL__N_122platformColourInstanceEv
FN:10260,10260,_ZN5Catch6ColourC2ENS0_4CodeE
FN:10261,10264,_ZN5Catch6ColourC2EOS0_
FN:10265,10269,_ZN5Catch6ColouraSEOS0_
FN:10271,10271,_ZN5Catch6ColourD2Ev
FN:10273,10282,_ZN5Catch6Colour3useENS0_4CodeE
FN:10284,10286,_ZN5CatchlsERSoRKNS_6ColourE
FN:10302,10304,_ZN5Catch7Context16getResultCaptureEv
FN:10305,10307,_ZN5Catch7Context9getRunnerEv
FN:10309,10311,_ZNK5Catch7Context9getConfigEv
FN:10316,10318,_ZN5Catch7Context16setResultCaptureEPNS_14IResultCaptureE
FN:10319,10321,_ZN5Catch7Context9setRunnerEPNS_7IRunnerE
FN:10322,10324,_ZN5Catch7Context9setConfigERKSt10shared_ptrIKNS_7IConfigEE
FN:10336,10339,_ZN5Catch15IMutableContext13createContextEv
FN:10341,10344,_ZN5Catch14cleanUpContextEv
FN:10345,10345,_ZN5Catch8IContextD0Ev
FN:10345,10345,_ZN5Catch8IContextD2Ev
FN:10346,10346,_ZN5Catch15IMutableContextD0Ev
FN:10346,10346,_ZN5Catch15IMutableContextD2Ev
FN:10347,10347,_ZN5Catch7ContextD0Ev
FN:10347,10347,_ZN5Catch7ContextD2Ev
FN:10349,10352,_ZN5Catch3rngEv
FN:10387,10390,_ZN5Catch19writeToDebugConsoleERKNSt7__cxx1112basic_stringIcSt11char_traitsIcESaIcEEE
FN:10468,10484,_ZN5Catch16isDebuggerActiveEv
FN:10510,10510,_ZN5Catch20ITransientExpressionD0Ev
FN:10510,10510,_ZN5Catch20ITransientExpressionD2Ev
FN:10512,10519,_ZN5Catch29formatReconstructedExpressionERSoRKNSt7__cxx1112basic_stringIcSt11char_traitsIcESaIcEEENS_9StringRefES8_
FN:10537,10539,_ZN5Catch17throw_logic_errorERKNSt7__cxx1112basic_stringIcSt11char_traitsIcESaIcEEE
FN:10542,10544,_ZN5Catch18throw_domain_errorERKNSt7__cxx1112basic_stringIcSt11char_traitsIcESaIcEEE
FN:10547,10549,_ZN5Catch19throw_runtime_errorERKNSt7__cxx1112basic_stringIcSt11char_traitsIcESaIcEEE
FN:10585,10585,_ZN5Catch26IMutableEnumValuesRegistryD0Ev
FN:10585,10585,_ZN5Catch26IMutableEnumValuesRegistryD2Ev
FN:10592,10599,_ZN5Catch6Detail12_GLOBAL__N_119extractInstanceNameENS_9StringRefE
FN:10602,10610,_ZN5Catch6Detail10parseEnumsENS_9StringRefE
FN:10612,10612,_ZN5Catch6Detail8EnumInfoD2Ev
FN:10614,10620,_ZNK5Catch6Detail8EnumInfo6lookupEi
FN:10622,10634,_ZN5Catch6Detail12makeEnumInfoENS_9StringRefES1_RKSt6vectorIiSaIiEE
FN:10636,10639,_ZN5Catch6Detail18EnumValuesRegistry12registerEnumENS_9StringRefES2_RKSt6vectorIiSaIiEE
FN:10650,10650,_ZN5Catch10ErrnoGuardC2Ev
FN:10651,10651,_ZN5Catch10ErrnoGuardD2Ev
FN:10683,10684,_ZN5Catch27ExceptionTranslatorRegistryD0Ev
FN:10683,10684,_ZN5Catch27ExceptionTranslatorRegistryD2Ev
FN:10686,10688,_ZN5Catch27ExceptionTranslatorRegistry18registerTranslatorEPKNS_20IExceptionTranslatorE
FN:10691,10731,_ZNK5Catch27ExceptionTranslatorRegistry24translateActiveExceptionB5cxx11Ev
FN:10733,10739,_ZNK5Catch27ExceptionTranslatorRegistry14tryTranslatorsB5cxx11Ev
FN:10780,10782,_ZN12_GLOBAL__N_111reportFatalEPKc
FN:10893,10903,_ZN5CatchL29restorePreviousSignalHandlersEv
FN:10905,10919,_ZN5CatchL12handleSignalEi
FN:10921,10927,_ZN5Catch21FatalConditionHandlerC2Ev
FN:10929,10934,_ZN5Catch21FatalConditionHandlerD2Ev
FN:10936,10949,_ZN5Catch21FatalConditionHandler15engage_platformEv
FN:10955,10957,_ZN5Catch21FatalConditionHandler18disengage_platformEv
FN:10970,10970,_ZN5Catch17IGeneratorTrackerD0Ev
FN:10970,10970,_ZN5Catch17IGeneratorTrackerD2Ev
FN:10972,10974,_ZNK5Catch18GeneratorException4whatEv
FN:10978,10978,_ZN5Catch10Generators20GeneratorUntypedBaseD0Ev
FN:10978,10978,_ZN5Catch10Generators20GeneratorUntypedBaseD2Ev
FN:10980,10982,_ZN5Catch10Generators23acquireGeneratorTrackerENS_9StringRefERKNS_14SourceLineInfoE
FN:10990,10990,_ZN5Catch14IResultCaptureD0Ev
FN:10990,10990,_ZN5Catch14IResultCaptureD2Ev
FN:10996,10996,_ZN5Catch7IConfigD0Ev
FN:10996,10996,_ZN5Catch7IConfigD2Ev
FN:11002,11002,_ZN5Catch20IExceptionTranslatorD0Ev
FN:11002,11002,_ZN5Catch20IExceptionTranslatorD2Ev
FN:11003,11003,_ZN5Catch28IExceptionTranslatorRegistryD0Ev
FN:11003,11003,_ZN5Catch28IExceptionTranslatorRegistryD2Ev
FN:11009,11009,_ZN5Catch12IRegistryHubD0Ev
FN:11009,11009,_ZN5Catch12IRegistryHubD2Ev
FN:11010,11010,_ZN5Catch19IMutableRegistryHubD0Ev
FN:11010,11010,_ZN5Catch19IMutableRegistryHubD2Ev
FN:11071,11072,_ZN5Catch14ReporterConfigC2ERKSt10shared_ptrIKNS_7IConfigEE
FN:11074,11075,_ZN5Catch14ReporterConfigC2ERKSt10shared_ptrIKNS_7IConfigEERSo
FN:11077,11077,_ZNK5Catch14ReporterConfig6streamEv
FN:11078,11078,_ZNK5Catch14ReporterConfig10fullConfigEv
FN:11080,11080,_ZN5Catch11TestRunInfoC2ERKNSt7__cxx1112basic_stringIcSt11char_traitsIcESaIcEEE
FN:11082,11088,_ZN5Catch9GroupInfoC2ERKNSt7__cxx1112basic_stringIcSt11char_traitsIcESaIcEEEmm
FN:11090,11108,_ZN5Catch14AssertionStatsC2ERKNS_15AssertionResultERKSt6vectorINS_11MessageInfoESaIS5_EERKNS_6TotalsE
FN:11110,11110,_ZN5Catch14AssertionStatsD0Ev
FN:11110,11110,_ZN5Catch14AssertionStatsD2Ev
FN:11112,11120,_ZN5Catch12SectionStatsC2ERKNS_11SectionInfoERKNS_6CountsEdb
FN:11122,11122,_ZN5Catch12SectionStatsD0Ev
FN:11122,11122,_ZN5Catch12SectionStatsD2Ev
FN:11124,11134,_ZN5Catch13TestCaseStatsC2ERKNS_12TestCaseInfoERKNS_6TotalsERKNSt7__cxx1112basic_stringIcSt11char_traitsIcESaIcEEESE_b
FN:11136,11136,_ZN5Catch13TestCaseStatsD0Ev
FN:11136,11136,_ZN5Catch13TestCaseStatsD2Ev
FN:11138,11144,_ZN5Catch14TestGroupStatsC2ERKNS_9GroupInfoERKNS_6TotalsEb
FN:11146,11149,_ZN5Catch14TestGroupStatsC2ERKNS_9GroupInfoE
FN:11151,11151,_ZN5Catch14TestGroupStatsD0Ev
FN:11151,11151,_ZN5Catch14TestGroupStatsD2Ev
FN:11153,11159,_ZN5Catch12TestRunStatsC2ERKNS_11TestRunInfoERKNS_6TotalsEb
FN:11161,11161,_ZN5Catch12TestRunStatsD0Ev
FN:11161,11161,_ZN5Catch12TestRunStatsD2Ev
FN:11163,11163,_ZN5Catch18IStreamingReporter21fatalErrorEncounteredENS_9StringRefE
FN:11164,11164,_ZNK5Catch18IStreamingReporter7isMultiEv
FN:11166,11166,_ZN5Catch16IReporterFactoryD0Ev
FN:11166,11166,_ZN5Catch16IReporterFactoryD2Ev
FN:11167,11167,_ZN5Catch17IReporterRegistryD0Ev
FN:11167,11167,_ZN5Catch17IReporterRegistryD2Ev
FN:11174,11174,_ZN5Catch7IRunnerD0Ev
FN:11174,11174,_ZN5Catch7IRunnerD2Ev
FN:11180,11180,_ZN5Catch12ITestInvokerD0Ev
FN:11180,11180,_ZN5Catch12ITestInvokerD2Ev
FN:11181,11181,_ZN5Catch17ITestCaseRegistryD0Ev
FN:11181,11181,_ZN5Catch17ITestCaseRegistryD2Ev
FN:11205,11205,_ZN5Catch12LeakDetectorC2Ev
FN:11209,11211,_ZN5Catch12LeakDetectorD2Ev
FN:11255,11287,_ZN5Catch9listTestsERKNS_6ConfigE
FN:11289,11304,_ZN5Catch18listTestsNamesOnlyERKNS_6ConfigE
FN:11306,11309,_ZN5Catch7TagInfo3addERKNSt7__cxx1112basic_stringIcSt11char_traitsIcESaIcEEE
FN:11311,11325,_ZNK5Catch7TagInfo3allB5cxx11Ev
FN:11327,11360,_ZN5Catch8listTagsERKNS_6ConfigE
FN:11362,11382,_ZN5Catch13listReportersEv
FN:11384,11396,_ZN5Catch4listERKSt10shared_ptrINS_6ConfigEE
FN:11406,11410,_ZNK5Catch8Matchers4Impl18MatcherUntypedBase8toStringB5cxx11Ev
FN:11412,11412,_ZN5Catch8Matchers4Impl18MatcherUntypedBaseD0Ev
FN:11412,11412,_ZN5Catch8Matchers4Impl18MatcherUntypedBaseD2Ev
FN:11428,11430,_ZNK5Catch8Matchers9Exception23ExceptionMessageMatcher5matchERKSt9exception
FN:11432,11434,_ZNK5Catch8Matchers9Exception23ExceptionMessageMatcher8describeB5cxx11Ev
FN:11437,11439,_ZN5Catch8Matchers7MessageERKNSt7__cxx1112basic_stringIcSt11char_traitsIcESaIcEEE
FN:11486,11491,_ZN5Catch12_GLOBAL__N_17convertEf
FN:11493,11498,_ZN5Catch12_GLOBAL__N_17convertEd
FN:11501,11519,_ZN5Catch12_GLOBAL__N_115almostEqualUlpsIdEEbT_S2_m
FN:11501,11519,_ZN5Catch12_GLOBAL__N_115almostEqualUlpsIfEEbT_S2_m
FN:11523,11525,_ZN5Catch12_GLOBAL__N_19nextafterEff
FN:11527,11529,_ZN5Catch12_GLOBAL__N_19nextafterEdd
FN:11534,11543,_ZN5Catch12_GLOBAL__N_14stepIdEET_S2_S2_m
FN:11534,11543,_ZN5Catch12_GLOBAL__N_14stepIfEET_S2_S2_m
FN:11547,11549,_ZN5Catch12_GLOBAL__N_116marginComparisonEddd
FN:11552,11556,_ZN5Catch12_GLOBAL__N_15writeIdEEvRSoT_
FN:11552,11556,_ZN5Catch12_GLOBAL__N_15writeIfEEvRSoT_
FN:11568,11572,_ZN5Catch8Matchers8Floating16WithinAbsMatcherC2Edd
FN:11576,11578,_ZNK5Catch8Matchers8Floating16WithinAbsMatcher5matchERKd
FN:11580,11582,_ZNK5Catch8Matchers8Floating16WithinAbsMatcher8describeB5cxx11Ev
FN:11584,11589,_ZN5Catch8Matchers8Floating17WithinUlpsMatcherC2EdmNS1_17FloatingPointKindE
FN:11597,11606,_ZNK5Catch8Matchers8Floating17WithinUlpsMatcher5matchERKd
FN:11612,11638,_ZNK5Catch8Matchers8Floating17WithinUlpsMatcher8describeB5cxx11Ev
FN:11640,11645,_ZN5Catch8Matchers8Floating16WithinRelMatcherC2Edd
FN:11647,11651,_ZNK5Catch8Matchers8Floating16WithinRelMatcher5matchERKd
FN:11653,11657,_ZNK5Catch8Matchers8Floating16WithinRelMatcher8describeB5cxx11Ev
FN:11661,11663,_ZN5Catch8Matchers9WithinULPEdm
FN:11665,11667,_ZN5Catch8Matchers9WithinULPEfm
FN:11669,11671,_ZN5Catch8Matchers9WithinAbsEdd
FN:11673,11675,_ZN5Catch8Matchers9WithinRelEdd
FN:11677,11679,_ZN5Catch8Matchers9WithinRelEd
FN:11681,11683,_ZN5Catch8Matchers9WithinRelEff
FN:11685,11687,_ZN5Catch8Matchers9WithinRelEf
FN:11694,11700,_ZN5Catch8Matchers7Generic6Detail19finalizeDescriptionERKNSt7__cxx1112basic_stringIcSt11char_traitsIcESaIcEEE
FN:11711,11714,_ZN5Catch8Matchers9StdString11CasedStringC2ERKNSt7__cxx1112basic_stringIcSt11char_traitsIcESaIcEEENS_13CaseSensitive6ChoiceE
FN:11715,11719,_ZNK5Catch8Matchers9StdString11CasedString12adjustStringERKNSt7__cxx1112basic_stringIcSt11char_traitsIcESaIcEEE
FN:11720,11724,_ZNK5Catch8Matchers9StdString11CasedString21caseSensitivitySuffixB5cxx11Ev
FN:11726,11729,_ZN5Catch8Matchers9StdString17StringMatcherBaseC2ERKNSt7__cxx1112basic_stringIcSt11char_traitsIcESaIcEEERKNS1_11CasedStringE
FN:11731,11741,_ZNK5Catch8Matchers9StdString17StringMatcherBase8describeB5cxx11Ev
FN:11743,11743,_ZN5Catch8Matchers9StdString13EqualsMatcherC2ERKNS1_11CasedStringE
FN:11745,11747,_ZNK5Catch8Matchers9StdString13EqualsMatcher5matchERKNSt7__cxx1112basic_stringIcSt11char_traitsIcESaIcEEE
FN:11749,11749,_ZN5Catch8Matchers9StdString15ContainsMatcherC2ERKNS1_11CasedStringE
FN:11751,11753,_ZNK5Catch8Matchers9StdString15ContainsMatcher5matchERKNSt7__cxx1112basic_stringIcSt11char_traitsIcESaIcEEE
FN:11755,11755,_ZN5Catch8Matchers9StdString17StartsWithMatcherC2ERKNS1_11CasedStringE
FN:11757,11759,_ZNK5Catch8Matchers9StdString17StartsWithMatcher5matchERKNSt7__cxx1112basic_stringIcSt11char_traitsIcESaIcEEE
FN:11761,11761,_ZN5Catch8Matchers9StdString15EndsWithMatcherC2ERKNS1_11CasedStringE
FN:11763,11765,_ZNK5Catch8Matchers9StdString15EndsWithMatcher5matchERKNSt7__cxx1112basic_stringIcSt11char_traitsIcESaIcEEE
FN:11767,11767,_ZN5Catch8Matchers9StdString12RegexMatcherC2ENSt7__cxx1112basic_stringIcSt11char_traitsIcESaIcEEENS_13CaseSensitive6ChoiceE
FN:11769,11776,_ZNK5Catch8Matchers9StdString12RegexMatcher5matchERKNSt7__cxx1112basic_stringIcSt11char_traitsIcESaIcEEE
FN:11778,11780,_ZNK5Catch8Matchers9StdString12RegexMatcher8describeB5cxx11Ev
FN:11784,11786,_ZN5Catch8Matchers6EqualsERKNSt7__cxx1112basic_stringIcSt11char_traitsIcESaIcEEENS_13CaseSensitive6ChoiceE
FN:11787,11789,_ZN5Catch8Matchers8ContainsERKNSt7__cxx1112basic_stringIcSt11char_traitsIcESaIcEEENS_13CaseSensitive6ChoiceE
FN:11790,11792,_ZN5Catch8Matchers8EndsWithERKNSt7__cxx1112basic_stringIcSt11char_traitsIcESaIcEEENS_13CaseSensitive6ChoiceE
FN:11793,11795,_ZN5Catch8Matchers10StartsWithERKNSt7__cxx1112basic_stringIcSt11char_traitsIcESaIcEEENS_13CaseSensitive6ChoiceE
FN:11797,11799,_ZN5Catch8Matchers7MatchesERKNSt7__cxx1112basic_stringIcSt11char_traitsIcESaIcEEENS_13CaseSensitive6ChoiceE
FN:11818,11825,_ZN5Catch11MessageInfoC2ERKNS_9StringRefERKNS_14SourceLineInfoENS_9ResultWas6OfTypeE
FN:11827,11829,_ZNK5Catch11MessageInfoeqERKS0_
FN:11831,11833,_ZNK5Catch11MessageInfoltERKS0_
FN:11840,11843,_ZN5Catch14MessageBuilderC2ERKNS_9StringRefERKNS_14SourceLineInfoENS_9ResultWas6OfTypeE
FN:11847,11852,_ZN5Catch13ScopedMessageC2ERKNS_14MessageBuilderE
FN:11854,11858,_ZN5Catch13ScopedMessageC2EOS0_
FN:11860,11864,_ZN5Catch13ScopedMessageD2Ev
FN:11866,11922,_ZN5Catch8CapturerC2ENS_9StringRefERKNS_14SourceLineInfoENS_9ResultWas6OfTypeES1_
FN:11867,11875,_ZZN5Catch8CapturerC4ENS_9StringRefERKNS_14SourceLineInfoENS_9ResultWas6OfTypeES1_ENKUlmmE_clEmm
FN:11876,11884,_ZZN5Catch8CapturerC4ENS_9StringRefERKNS_14SourceLineInfoENS_9ResultWas6OfTypeES1_ENKUlmcE0_clEmc
FN:11923,11929,_ZN5Catch8CapturerD2Ev
FN:11931,11936,_ZN5Catch8Capturer12captureValueEmRKNSt7__cxx1112basic_stringIcSt11char_traitsIcESaIcEEE
FN:12068,12074,_ZN5Catch16RedirectedStreamC2ERSoS1_
FN:12076,12078,_ZN5Catch16RedirectedStreamD2Ev
FN:12080,12080,_ZN5Catch16RedirectedStdOutC2Ev
FN:12081,12081,_ZNK5Catch16RedirectedStdOut3strB5cxx11Ev
FN:12083,12086,_ZN5Catch16RedirectedStdErrC2Ev
FN:12087,12087,_ZNK5Catch16RedirectedStdErr3strB5cxx11Ev
FN:12089,12092,_ZN5Catch17RedirectedStreamsC2ERNSt7__cxx1112basic_stringIcSt11char_traitsIcESaIcEEES7_
FN:12094,12097,_ZN5Catch17RedirectedStreamsD2Ev
FN:12192,12194,_ZN5Catch5isnanEf
FN:12195,12197,_ZN5Catch5isnanEd
FN:12221,12225,_ZN5Catch12_GLOBAL__N_112rotate_rightEjj
FN:12233,12235,_ZN5Catch11SimplePcg32C2Ej
FN:12237,12242,_ZN5Catch11SimplePcg324seedEj
FN:12244,12250,_ZN5Catch11SimplePcg327discardEm
FN:12252,12261,_ZN5Catch11SimplePcg32clEv
FN:12263,12265,_ZN5CatcheqERKNS_11SimplePcg32ES2_
FN:12267,12269,_ZN5CatchneERKNS_11SimplePcg32ES2_
FN:12298,12298,_ZN5Catch12TestRegistryD0Ev
FN:12298,12298,_ZN5Catch12TestRegistryD2Ev
FN:12427,12434,_ZN5Catch9SingletonINS_12_GLOBAL__N_111RegistryHubENS_12IRegistryHubENS_19IMutableRegistryHubEE11getInternalEv
FN:12427,12434,_ZN5Catch9SingletonINS_13StringStreamsES1_S1_E11getInternalEv
FN:12437,12439,_ZN5Catch9SingletonINS_12_GLOBAL__N_111RegistryHubENS_12IRegistryHubENS_19IMutableRegistryHubEE3getEv
FN:12440,12442,_ZN5Catch9SingletonINS_12_GLOBAL__N_111RegistryHubENS_12IRegistryHubENS_19IMutableRegistryHubEE10getMutableEv
FN:12440,12442,_ZN5Catch9SingletonINS_13StringStreamsES1_S1_E10getMutableEv
FN:12456,12456,_ZN5Catch12_GLOBAL__N_111RegistryHubC2Ev
FN:12457,12459,_ZNK5Catch12_GLOBAL__N_111RegistryHub19getReporterRegistryEv
FN:12460,12462,_ZNK5Catch12_GLOBAL__N_111RegistryHub19getTestCaseRegistryEv
FN:12463,12465,_ZNK5Catch12_GLOBAL__N_111RegistryHub30getExceptionTranslatorRegistryEv
FN:12466,12468,_ZNK5Catch12_GLOBAL__N_111RegistryHub19getTagAliasRegistryEv
FN:12469,12471,_ZNK5Catch12_GLOBAL__N_111RegistryHub27getStartupExceptionRegistryEv
FN:12474,12476,_ZN5Catch12_GLOBAL__N_111RegistryHub16registerReporterERKNSt7__cxx1112basic_stringIcSt11char_traitsIcESaIcEEERKSt10shared_ptrINS_16IReporterFactoryEE
FN:12477,12479,_ZN5Catch12_GLOBAL__N_111RegistryHub16registerListenerERKSt10shared_ptrINS_16IReporterFactoryEE
FN:12480,12482,_ZN5Catch12_GLOBAL__N_111RegistryHub12registerTestERKNS_8TestCaseE
FN:12483,12485,_ZN5Catch12_GLOBAL__N_111RegistryHub18registerTranslatorEPKNS_20IExceptionTranslatorE
FN:12486,12488,_ZN5Catch12_GLOBAL__N_111RegistryHub16registerTagAliasERKNSt7__cxx1112basic_stringIcSt11char_traitsIcESaIcEEES9_RKNS_14SourceLineInfoE
FN:12489,12495,_ZN5Catch12_GLOBAL__N_111RegistryHub24registerStartupExceptionEv
FN:12496,12498,_ZN5Catch12_GLOBAL__N_111RegistryHub28getMutableEnumValuesRegistryEv
FN:12512,12514,_ZN5Catch14getRegistryHubEv
FN:12515,12517,_ZN5Catch21getMutableRegistryHubEv
FN:12518,12521,_ZN5Catch7cleanUpEv
FN:12522,12524,_ZN5Catch24translateActiveExceptionB5cxx11Ev
FN:12532,12532,_ZN5Catch16ReporterRegistryD0Ev
FN:12532,12532,_ZN5Catch16ReporterRegistryD2Ev
FN:12534,12539,_ZNK5Catch16ReporterRegistry6createERKNSt7__cxx1112basic_stringIcSt11char_traitsIcESaIcEEERKSt10shared_ptrIKNS_7IConfigEE
FN:12541,12543,_ZN5Catch16ReporterRegistry16registerReporterERKNSt7__cxx1112basic_stringIcSt11char_traitsIcESaIcEEERKSt10shared_ptrINS_16IReporterFactoryEE
FN:12544,12546,_ZN5Catch16ReporterRegistry16registerListenerERKSt10shared_ptrINS_16IReporterFactoryEE
FN:12548,12550,_ZNK5Catch16ReporterRegistry12getFactoriesB5cxx11Ev
FN:12551,12553,_ZNK5Catch16ReporterRegistry12getListenersEv
FN:12561,12563,_ZN5Catch4isOkENS_9ResultWas6OfTypeE
FN:12564,12566,_ZN5Catch10isJustInfoEi
FN:12568,12570,_ZN5CatchorENS_17ResultDisposition5FlagsES1_
FN:12572,12572,_ZN5Catch23shouldContinueOnFailureEi
FN:12573,12573,_ZN5Catch21shouldSuppressFailureEi
FN:12589,12591,_ZN5Catch10Generators16GeneratorTrackerC2ERKNS_16TestCaseTracking15NameAndLocationERNS2_14TrackerContextEPNS2_8ITrackerE
FN:12594,12628,_ZN5Catch10Generators16GeneratorTracker7acquireERNS_16TestCaseTracking14TrackerContextERKNS2_15NameAndLocationE
FN:12631,12631,_ZNK5Catch10Generators16GeneratorTracker18isGeneratorTrackerEv
FN:12632,12634,_ZNK5Catch10Generators16GeneratorTracker12hasGeneratorEv
FN:12635,12702,_ZN5Catch10Generators16GeneratorTracker5closeEv
FN:12644,12690,_ZZN5Catch10Generators16GeneratorTracker5closeEvENKUlvE_clEv
FN:12653,12655,_ZZZN5Catch10Generators16GeneratorTracker5closeEvENKUlvE_clEvENKUlSt10shared_ptrINS_16TestCaseTracking8ITrackerEEE_clES6_
FN:12705,12707,_ZNK5Catch10Generators16GeneratorTracker12getGeneratorEv
FN:12708,12710,_ZN5Catch10Generators16GeneratorTracker12setGeneratorEOSt10unique_ptrINS0_20GeneratorUntypedBaseESt14default_deleteIS3_EE
FN:12712,12712,_ZN5Catch10Generators16GeneratorTrackerD0Ev
FN:12712,12712,_ZN5Catch10Generators16GeneratorTrackerD2Ev
FN:12715,12727,_ZN5Catch10RunContextC2ERKSt10shared_ptrIKNS_7IConfigEEOSt10unique_ptrINS_18IStreamingReporterESt14default_deleteIS8_EE
FN:12729,12731,_ZN5Catch10RunContextD0Ev
FN:12729,12731,_ZN5Catch10RunContextD2Ev
FN:12733,12735,_ZN5Catch10RunContext17testGroupStartingERKNSt7__cxx1112basic_stringIcSt11char_traitsIcESaIcEEEmm
FN:12737,12739,_ZN5Catch10RunContext14testGroupEndedERKNSt7__cxx1112basic_stringIcSt11char_traitsIcESaIcEEERKNS_6TotalsEmm
FN:12741,12779,_ZN5Catch10RunContext7runTestERKNS_8TestCaseE
FN:12781,12783,_ZNK5Catch10RunContext6configEv
FN:12785,12787,_ZNK5Catch10RunContext8reporterEv
FN:12789,12814,_ZN5Catch10RunContext14assertionEndedERKNS_15AssertionResultE
FN:12815,12818,_ZN5Catch10RunContext18resetAssertionInfoEv
FN:12820,12833,_ZN5Catch10RunContext14sectionStartedERKNS_11SectionInfoERNS_6CountsE
FN:12834,12840,_ZN5Catch10RunContext23acquireGeneratorTrackerENS_9StringRefERKNS_14SourceLineInfoE
FN:12842,12852,_ZN5Catch10RunContext24testForMissingAssertionsERNS_6CountsE
FN:12854,12866,_ZN5Catch10RunContext12sectionEndedERKNS_14SectionEndInfoE
FN:12868,12876,_ZN5Catch10RunContext17sectionEndedEarlyERKNS_14SectionEndInfoE
FN:12893,12895,_ZN5Catch10RunContext17pushScopedMessageERKNS_11MessageInfoE
FN:12897,12899,_ZN5Catch10RunContext16popScopedMessageERKNS_11MessageInfoE
FN:12901,12903,_ZN5Catch10RunContext22emplaceUnscopedMessageERKNS_14MessageBuilderE
FN:12905,12909,_ZNK5Catch10RunContext18getCurrentTestNameB5cxx11Ev
FN:12911,12913,_ZNK5Catch10RunContext13getLastResultEv
FN:12915,12917,_ZN5Catch10RunContext22exceptionEarlyReportedEv
FN:12919,12955,_ZN5Catch10RunContext25handleFatalErrorConditionENS_9StringRefE
FN:12957,12959,_ZN5Catch10RunContext19lastAssertionPassedEv
FN:12961,12966,_ZN5Catch10RunContext15assertionPassedEv
FN:12968,12970,_ZNK5Catch10RunContext8abortingEv
FN:12972,13021,_ZN5Catch10RunContext14runCurrentTestERNSt7__cxx1112basic_stringIcSt11char_traitsIcESaIcEEES7_
FN:13023,13026,_ZN5Catch10RunContext20invokeActiveTestCaseEv
FN:13028,13037,_ZN5Catch10RunContext24handleUnfinishedSectionsEv
FN:13039,13061,_ZN5Catch10RunContext10handleExprERKNS_13AssertionInfoERKNS_20ITransientExpressionERNS_17AssertionReactionE
FN:13062,13075,_ZN5Catch10RunContext10reportExprERKNS_13AssertionInfoENS_9ResultWas6OfTypeEPKNS_20ITransientExpressionEb
FN:13077,13093,_ZN5Catch10RunContext13handleMessageERKNS_13AssertionInfoENS_9ResultWas6OfTypeERKNS_9StringRefERNS_17AssertionReactionE
FN:13094,13099,_ZN5Catch10RunContext34handleUnexpectedExceptionNotThrownERKNS_13AssertionInfoERNS_17AssertionReactionE
FN:13101,13113,_ZN5Catch10RunContext33handleUnexpectedInflightExceptionERKNS_13AssertionInfoERKNSt7__cxx1112basic_stringIcSt11char_traitsIcESaIcEEERNS_17AssertionReactionE
FN:13115,13118,_ZN5Catch10RunContext16populateReactionERNS_17AssertionReactionE
FN:13120,13129,_ZN5Catch10RunContext16handleIncompleteERKNS_13AssertionInfoE
FN:13130,13143,_ZN5Catch10RunContext13handleNonExprERKNS_13AssertionInfoENS_9ResultWas6OfTypeERNS_17AssertionReactionE
FN:13145,13150,_ZN5Catch16getResultCaptureEv
FN:13152,13157,_ZN5Catch7seedRngERKNS_7IConfigE
FN:13159,13161,_ZN5Catch7rngSeedEv
FN:13169,13174,_ZN5Catch7SectionC2ERKNS_11SectionInfoE
FN:13176,13184,_ZN5Catch7SectionD0Ev
FN:13176,13184,_ZN5Catch7SectionD2Ev
FN:13187,13189,_ZNK5Catch7SectioncvbEv
FN:13197,13202,_ZN5Catch11SectionInfoC2ERKNS_14SourceLineInfoERKNSt7__cxx1112basic_stringIcSt11char_traitsIcESaIcEEE
FN:13231,13238,_ZN5Catch7Session3runIcEEiiPKPKT_
FN:13299,13304,_ZN5Catch12_GLOBAL__N_114createReporterERKNSt7__cxx1112basic_stringIcSt11char_traitsIcESaIcEEERKSt10shared_ptrIKNS_7IConfigEE
FN:13306,13324,_ZN5Catch12_GLOBAL__N_112makeReporterERKSt10shared_ptrINS_6ConfigEE
FN:13328,13344,_ZN5Catch12_GLOBAL__N_19TestGroupC2ERKSt10shared_ptrINS_6ConfigEE
FN:13346,13371,_ZN5Catch12_GLOBAL__N_19TestGroup7executeEv
FN:13382,13406,_ZN5Catch12_GLOBAL__N_120applyFilenamesAsTagsERKNS_7IConfigE
FN:13410,13440,_ZN5Catch7SessionC2Ev
FN:13441,13443,_ZN5Catch7SessionD0Ev
FN:13441,13443,_ZN5Catch7SessionD2Ev
FN:13445,13450,_ZNK5Catch7Session8showHelpEv
FN:13451,13457,_ZN5Catch7Session11libIdentifyEv
FN:13459,13482,_ZN5Catch7Session16applyCommandLineEiPKPKc
FN:13508,13511,_ZN5Catch7Session13useConfigDataERKNS_10ConfigDataE
FN:13513,13524,_ZN5Catch7Session3runEv
FN:13526,13528,_ZNK5Catch7Session3cliEv
FN:13529,13531,_ZN5Catch7Session3cliERKNS_5clara6detail6ParserE
FN:13532,13534,_ZN5Catch7Session10configDataEv
FN:13535,13539,_ZN5Catch7Session6configEv
FN:13541,13578,_ZN5Catch7Session11runInternalEv
FN:13589,13594,_ZN5Catch12_GLOBAL__N_1L13getSingletonsEv
FN:13597,13597,_ZN5Catch10ISingletonD0Ev
FN:13597,13597,_ZN5Catch10ISingletonD2Ev
FN:13599,13601,_ZN5Catch12addSingletonEPNS_10ISingletonE
FN:13602,13608,_ZN5Catch17cleanupSingletonsEv
FN:13616,13623,_ZN5Catch24StartupExceptionRegistry3addERKNSt15__exception_ptr13exception_ptrE
FN:13625,13627,_ZNK5Catch24StartupExceptionRegistry13getExceptionsEv
FN:13643,13643,_ZN5Catch7IStreamD0Ev
FN:13643,13643,_ZN5Catch7IStreamD2Ev
FN:13652,13654,_ZN5Catch6Detail12_GLOBAL__N_113StreamBufImplINS1_17OutputDebugWriterELm256EEC2Ev
FN:13656,13658,_ZN5Catch6Detail12_GLOBAL__N_113StreamBufImplINS1_17OutputDebugWriterELm256EED0Ev
FN:13656,13658,_ZN5Catch6Detail12_GLOBAL__N_113StreamBufImplINS1_17OutputDebugWriterELm256EED2Ev
FN:13661,13671,_ZN5Catch6Detail12_GLOBAL__N_113StreamBufImplINS1_17OutputDebugWriterELm256EE8overflowEi
FN:13673,13679,_ZN5Catch6Detail12_GLOBAL__N_113StreamBufImplINS1_17OutputDebugWriterELm256EE4syncEv
FN:13686,13688,_ZN5Catch6Detail12_GLOBAL__N_117OutputDebugWriterclERKNSt7__cxx1112basic_stringIcSt11char_traitsIcESaIcEEE
FN:13696,13699,_ZN5Catch6Detail12_GLOBAL__N_110FileStreamC2ENS_9StringRefE
FN:13700,13700,_ZN5Catch6Detail12_GLOBAL__N_110FileStreamD0Ev
FN:13700,13700,_ZN5Catch6Detail12_GLOBAL__N_110FileStreamD2Ev
FN:13702,13704,_ZNK5Catch6Detail12_GLOBAL__N_110FileStream6streamEv
FN:13714,13714,_ZN5Catch6Detail12_GLOBAL__N_110CoutStreamC2Ev
FN:13715,13715,_ZN5Catch6Detail12_GLOBAL__N_110CoutStreamD0Ev
FN:13715,13715,_ZN5Catch6Detail12_GLOBAL__N_110CoutStreamD2Ev
FN:13718,13718,_ZNK5Catch6Detail12_GLOBAL__N_110CoutStream6streamEv
FN:13727,13730,_ZN5Catch6Detail12_GLOBAL__N_114DebugOutStreamC2Ev
FN:13732,13732,_ZN5Catch6Detail12_GLOBAL__N_114DebugOutStreamD0Ev
FN:13732,13732,_ZN5Catch6Detail12_GLOBAL__N_114DebugOutStreamD2Ev
FN:13735,13735,_ZNK5Catch6Detail12_GLOBAL__N_114DebugOutStream6streamEv
FN:13742,13753,_ZN5Catch10makeStreamERKNS_9StringRefE
FN:13761,13771,_ZN5Catch13StringStreams3addEv
FN:13773,13776,_ZN5Catch13StringStreams7releaseEm
FN:13779,13782,_ZN5Catch20ReusableStringStreamC2Ev
FN:13784,13788,_ZN5Catch20ReusableStringStreamD0Ev
FN:13784,13788,_ZN5Catch20ReusableStringStreamD2Ev
FN:13790,13792,_ZNK5Catch20ReusableStringStream3strB5cxx11Ev
FN:13797,13797,_ZN5Catch4coutEv
FN:13798,13798,_ZN5Catch4cerrEv
FN:13799,13799,_ZN5Catch4clogEv
FN:13814,13816,_ZN5Catch12_GLOBAL__N_19toLowerChEc
FN:13819,13821,_ZN5Catch10startsWithERKNSt7__cxx1112basic_stringIcSt11char_traitsIcESaIcEEES7_
FN:13822,13824,_ZN5Catch10startsWithERKNSt7__cxx1112basic_stringIcSt11char_traitsIcESaIcEEEc
FN:13825,13827,_ZN5Catch8endsWithERKNSt7__cxx1112basic_stringIcSt11char_traitsIcESaIcEEES7_
FN:13828,13830,_ZN5Catch8endsWithERKNSt7__cxx1112basic_stringIcSt11char_traitsIcESaIcEEEc
FN:13831,13833,_ZN5Catch8containsERKNSt7__cxx1112basic_stringIcSt11char_traitsIcESaIcEEES7_
FN:13834,13836,_ZN5Catch14toLowerInPlaceERNSt7__cxx1112basic_stringIcSt11char_traitsIcESaIcEEE
FN:13837,13841,_ZN5Catch7toLowerERKNSt7__cxx1112basic_stringIcSt11char_traitsIcESaIcEEE
FN:13842,13848,_ZN5Catch4trimERKNSt7__cxx1112basic_stringIcSt11char_traitsIcESaIcEEE
FN:13850,13860,_ZN5Catch4trimENS_9StringRefE
FN:13851,13853,_ZZN5Catch4trimENS_9StringRefEENKUlcE_clEc
FN:13862,13874,_ZN5Catch14replaceInPlaceERNSt7__cxx1112basic_stringIcSt11char_traitsIcESaIcEEERKS5_S8_
FN:13876,13889,_ZN5Catch14splitStringRefENS_9StringRefEc
FN:1388,1388,_ZN5Catch11isFalseTestEi
FN:13891,13894,_ZN5Catch9pluraliseC2EmRKNSt7__cxx1112basic_stringIcSt11char_traitsIcESaIcEEE
FN:13896,13901,_ZN5CatchlsERSoRKNS_9pluraliseE
FN:13913,13915,_ZN5Catch9StringRefC2EPKc
FN:13917,13920,_ZNK5Catch9StringRef5c_strEv
FN:13921,13923,_ZNK5Catch9StringRef4dataEv
FN:13925,13931,_ZNK5Catch9StringRef6substrEmm
FN:13932,13935,_ZNK5Catch9StringRefeqERKS0_
FN:13937,13939,_ZN5CatchlsERSoRKNS_9StringRefE
FN:13941,13944,_ZN5CatchpLERNSt7__cxx1112basic_stringIcSt11char_traitsIcESaIcEEERKNS_9StringRefE
FN:13951,13951,_ZN5Catch8TagAliasC2ERKNSt7__cxx1112basic_stringIcSt11char_traitsIcESaIcEEENS_14SourceLineInfoE
FN:13958,13965,_ZN5Catch22RegistrarForTagAliasesC2EPKcS2_RKNS_14SourceLineInfoE
FN:13975,13975,_ZN5Catch16TagAliasRegistryD0Ev
FN:13975,13975,_ZN5Catch16TagAliasRegistryD2Ev
FN:13977,13983,_ZNK5Catch16TagAliasRegistry4findERKNSt7__cxx1112basic_stringIcSt11char_traitsIcESaIcEEE
FN:13985,13996,_ZNK5Catch16TagAliasRegistry13expandAliasesERKNSt7__cxx1112basic_stringIcSt11char_traitsIcESaIcEEE
FN:13998,14006,_ZN5Catch16TagAliasRegistry3addERKNSt7__cxx1112basic_stringIcSt11char_traitsIcESaIcEEES8_RKNS_14SourceLineInfoE
FN:14008,14008,_ZN5Catch17ITagAliasRegistryD0Ev
FN:14008,14008,_ZN5Catch17ITagAliasRegistryD2Ev
FN:14010,14012,_ZN5Catch17ITagAliasRegistry3getEv
FN:14026,14042,_ZN5Catch12_GLOBAL__N_115parseSpecialTagERKNSt7__cxx1112basic_stringIcSt11char_traitsIcESaIcEEE
FN:14043,14045,_ZN5Catch12_GLOBAL__N_113isReservedTagERKNSt7__cxx1112basic_stringIcSt11char_traitsIcESaIcEEE
FN:14046,14051,_ZN5Catch12_GLOBAL__N_121enforceNotReservedTagERKNSt7__cxx1112basic_stringIcSt11char_traitsIcESaIcEEERKNS_14SourceLineInfoE
FN:14054,14101,_ZN5Catch12makeTestCaseEPNS_12ITestInvokerERKNSt7__cxx1112basic_stringIcSt11char_traitsIcESaIcEEERKNS_11NameAndTagsERKNS_14SourceLineInfoE
FN:14103,14114,_ZN5Catch7setTagsERNS_12TestCaseInfoESt6vectorINSt7__cxx1112basic_stringIcSt11char_traitsIcESaIcEEESaIS8_EE
FN:14116,14128,_ZN5Catch12TestCaseInfoC2ERKNSt7__cxx1112basic_stringIcSt11char_traitsIcESaIcEEES8_S8_RKSt6vectorIS6_SaIS6_EERKNS_14SourceLineInfoE
FN:14130,14132,_ZNK5Catch12TestCaseInfo8isHiddenEv
FN:14133,14135,_ZNK5Catch12TestCaseInfo6throwsEv
FN:14136,14138,_ZNK5Catch12TestCaseInfo8okToFailEv
FN:14139,14141,_ZNK5Catch12TestCaseInfo14expectedToFailEv
FN:14143,14158,_ZNK5Catch12TestCaseInfo12tagsAsStringB5cxx11Ev
FN:14160,14160,_ZN5Catch8TestCaseC2EPNS_12ITestInvokerEONS_12TestCaseInfoE
FN:14162,14166,_ZNK5Catch8TestCase8withNameERKNSt7__cxx1112basic_stringIcSt11char_traitsIcESaIcEEE
FN:14168,14170,_ZNK5Catch8TestCase6invokeEv
FN:14172,14176,_ZNK5Catch8TestCaseeqERKS0_
FN:14178,14180,_ZNK5Catch8TestCaseltERKS0_
FN:14182,14185,_ZNK5Catch8TestCase15getTestCaseInfoEv
FN:14200,14201,_ZN5Catch12_GLOBAL__N_110TestHasherC2Em
FN:14203,14216,_ZNK5Catch12_GLOBAL__N_110TestHasherclERKNS_8TestCaseE
FN:14223,14266,_ZN5Catch9sortTestsERKNS_7IConfigERKSt6vectorINS_8TestCaseESaIS4_EE
FN:14248,14253,_ZZN5Catch9sortTestsERKNS_7IConfigERKSt6vectorINS_8TestCaseESaIS4_EEENKUlRKSt4pairImPKS4_ESE_E_clESE_SE_
FN:14268,14270,_ZN5Catch11isThrowSafeERKNS_8TestCaseERKNS_7IConfigE
FN:14272,14274,_ZN5Catch9matchTestERKNS_8TestCaseERKNS_8TestSpecERKNS_7IConfigE
FN:14276,14285,_ZN5Catch27enforceNoDuplicateTestCasesERKSt6vectorINS_8TestCaseESaIS1_EE
FN:14287,14297,_ZN5Catch11filterTestsERKSt6vectorINS_8TestCaseESaIS1_EERKNS_8TestSpecERKNS_7IConfigE
FN:14298,14300,_ZN5Catch21getAllTestCasesSortedERKNS_7IConfigE
FN:14302,14310,_ZN5Catch12TestRegistry12registerTestERKNS_8TestCaseE
FN:14312,14314,_ZNK5Catch12TestRegistry11getAllTestsEv
FN:14315,14324,_ZNK5Catch12TestRegistry17getAllTestsSortedERKNS_7IConfigE
FN:14327,14327,_ZN5Catch21TestInvokerAsFunctionC2EPFvvE
FN:14329,14331,_ZNK5Catch21TestInvokerAsFunction6invokeEv
FN:14333,14344,_ZN5Catch16extractClassNameB5cxx11ERKNS_9StringRefE
FN:14364,14367,_ZN5Catch16TestCaseTracking15NameAndLocationC2ERKNSt7__cxx1112basic_stringIcSt11char_traitsIcESaIcEEERKNS_14SourceLineInfoE
FN:14369,14369,_ZN5Catch16TestCaseTracking8ITrackerD0Ev
FN:14369,14369,_ZN5Catch16TestCaseTracking8ITrackerD2Ev
FN:14371,14376,_ZN5Catch16TestCaseTracking14TrackerContext8startRunEv
FN:14378,14382,_ZN5Catch16TestCaseTracking14TrackerContext6endRunEv
FN:14384,14387,_ZN5Catch16TestCaseTracking14TrackerContext10startCycleEv
FN:14388,14390,_ZN5Catch16TestCaseTracking14TrackerContext13completeCycleEv
FN:14392,14394,_ZNK5Catch16TestCaseTracking14TrackerContext14completedCycleEv
FN:14395,14397,_ZN5Catch16TestCaseTracking14TrackerContext14currentTrackerEv
FN:14398,14400,_ZN5Catch16TestCaseTracking14TrackerContext17setCurrentTrackerEPNS0_8ITrackerE
FN:14402,14406,_ZN5Catch16TestCaseTracking11TrackerBaseC2ERKNS0_15NameAndLocationERNS0_14TrackerContextEPNS0_8ITrackerE
FN:14408,14410,_ZNK5Catch16TestCaseTracking11TrackerBase10isCompleteEv
FN:14411,14413,_ZNK5Catch16TestCaseTracking11TrackerBase23isSuccessfullyCompletedEv
FN:14414,14416,_ZNK5Catch16TestCaseTracking11TrackerBase6isOpenEv
FN:14417,14419,_ZNK5Catch16TestCaseTracking11TrackerBase11hasChildrenEv
FN:14421,14423,_ZN5Catch16TestCaseTracking11TrackerBase8addChildERKSt10shared_ptrINS0_8ITrackerEE
FN:14425,14435,_ZN5Catch16TestCaseTracking11TrackerBase9findChildERKNS0_15NameAndLocationE
FN:14427,14431,_ZZN5Catch16TestCaseTracking11TrackerBase9findChildERKNS0_15NameAndLocationEENKUlRKSt10shared_ptrINS0_8ITrackerEEE_clES9_
FN:14436,14439,_ZN5Catch16TestCaseTracking11TrackerBase6parentEv
FN:14441,14447,_ZN5Catch16TestCaseTracking11TrackerBase9openChildEv
FN:14449,14449,_ZNK5Catch16TestCaseTracking11TrackerBase16isSectionTrackerEv
FN:14450,14450,_ZNK5Catch16TestCaseTracking11TrackerBase18isGeneratorTrackerEv
FN:14452,14457,_ZN5Catch16TestCaseTracking11TrackerBase4openEv
FN:14459,14487,_ZN5Catch16TestCaseTracking11TrackerBase5closeEv
FN:14473,14473,_ZZN5Catch16TestCaseTracking11TrackerBase5closeEvENKUlRKSt10shared_ptrINS0_8ITrackerEEE_clES6_
FN:14488,14494,_ZN5Catch16TestCaseTracking11TrackerBase4failEv
FN:14495,14497,_ZN5Catch16TestCaseTracking11TrackerBase23markAsNeedingAnotherRunEv
FN:14499,14502,_ZN5Catch16TestCaseTracking11TrackerBase12moveToParentEv
FN:1450,1453,_ZN5Catch20ReusableStringStreamlsI4CardEERS0_RKT_
FN:1450,1453,_ZN5Catch20ReusableStringStreamlsIA12_cEERS0_RKT_
FN:1450,1453,_ZN5Catch20ReusableStringStreamlsIA13_cEERS0_RKT_
FN:1450,1453,_ZN5Catch20ReusableStringStreamlsIA15_cEERS0_RKT_
FN:1450,1453,_ZN5Catch20ReusableStringStreamlsIA16_cEERS0_RKT_
FN:1450,1453,_ZN5Catch20ReusableStringStreamlsIA17_cEERS0_RKT_
FN:1450,1453,_ZN5Catch20ReusableStringStreamlsIA18_cEERS0_RKT_
FN:1450,1453,_ZN5Catch20ReusableStringStreamlsIA19_cEERS0_RKT_
FN:1450,1453,_ZN5Catch20ReusableStringStreamlsIA1_cEERS0_RKT_
FN:1450,1453,_ZN5Catch20ReusableStringStreamlsIA20_cEERS0_RKT_
FN:1450,1453,_ZN5Catch20ReusableStringStreamlsIA21_cEERS0_RKT_
FN:1450,1453,_ZN5Catch20ReusableStringStreamlsIA22_cEERS0_RKT_
FN:1450,1453,_ZN5Catch20ReusableStringStreamlsIA23_cEERS0_RKT_
FN:1450,1453,_ZN5Catch20ReusableStringStreamlsIA25_cEERS0_RKT_
FN:1450,1453,_ZN5Catch20ReusableStringStreamlsIA26_cEERS0_RKT_
FN:1450,1453,_ZN5Catch20ReusableStringStreamlsIA27_cEERS0_RKT_
FN:1450,1453,_ZN5Catch20ReusableStringStreamlsIA2_cEERS0_RKT_
FN:1450,1453,_ZN5Catch20ReusableStringStreamlsIA31_cEERS0_RKT_
FN:1450,1453,_ZN5Catch20ReusableStringStreamlsIA32_cEERS0_RKT_
FN:1450,1453,_ZN5Catch20ReusableStringStreamlsIA36_cEERS0_RKT_
FN:1450,1453,_ZN5Catch20ReusableStringStreamlsIA37_cEERS0_RKT_
FN:1450,1453,_ZN5Catch20ReusableStringStreamlsIA3_cEERS0_RKT_
FN:1450,1453,_ZN5Catch20ReusableStringStreamlsIA40_cEERS0_RKT_
FN:1450,1453,_ZN5Catch20ReusableStringStreamlsIA44_cEERS0_RKT_
FN:1450,1453,_ZN5Catch20ReusableStringStreamlsIA47_cEERS0_RKT_
FN:1450,1453,_ZN5Catch20ReusableStringStreamlsIA4_cEERS0_RKT_
FN:1450,1453,_ZN5Catch20ReusableStringStreamlsIA53_cEERS0_RKT_
FN:1450,1453,_ZN5Catch20ReusableStringStreamlsIA57_cEERS0_RKT_
FN:1450,1453,_ZN5Catch20ReusableStringStreamlsIA59_cEERS0_RKT_
FN:1450,1453,_ZN5Catch20ReusableStringStreamlsIA5_cEERS0_RKT_
FN:1450,1453,_ZN5Catch20ReusableStringStreamlsIA60_cEERS0_RKT_
FN:1450,1453,_ZN5Catch20ReusableStringStreamlsIA66_cEERS0_RKT_
FN:1450,1453,_ZN5Catch20ReusableStringStreamlsIA7_cEERS0_RKT_
FN:1450,1453,_ZN5Catch20ReusableStringStreamlsIA8_cEERS0_RKT_
FN:1450,1453,_ZN5Catch20ReusableStringStreamlsIA9_cEERS0_RKT_
FN:1450,1453,_ZN5Catch20ReusableStringStreamlsIFRSt8ios_baseS3_EEERS0_RKT_
FN:1450,1453,_ZN5Catch20ReusableStringStreamlsIN4Card5COLOREEERS0_RKT_
FN:1450,1453,_ZN5Catch20ReusableStringStreamlsIN4Card9CARD_TYPEEEERS0_RKT_
FN:1450,1453,_ZN5Catch20ReusableStringStreamlsINS_14LazyExpressionEEERS0_RKT_
FN:1450,1453,_ZN5Catch20ReusableStringStreamlsINS_14SourceLineInfoEEERS0_RKT_
FN:1450,1453,_ZN5Catch20ReusableStringStreamlsINS_16TestCaseTracking11TrackerBase10CycleStateEEERS0_RKT_
FN:1450,1453,_ZN5Catch20ReusableStringStreamlsINS_5clara8TextFlow6ColumnEEERS0_RKT_
FN:1450,1453,_ZN5Catch20ReusableStringStreamlsINS_9StringRefEEERS0_RKT_
FN:1450,1453,_ZN5Catch20ReusableStringStreamlsINSt7__cxx1112basic_stringIcSt11char_traitsIcESaIcEEEEERS0_RKT_
FN:1450,1453,_ZN5Catch20ReusableStringStreamlsIPKcEERS0_RKT_
FN:1450,1453,_ZN5Catch20ReusableStringStreamlsISt13_SetprecisionEERS0_RKT_
FN:1450,1453,_ZN5Catch20ReusableStringStreamlsISt5_SetwEERS0_RKT_
FN:1450,1453,_ZN5Catch20ReusableStringStreamlsISt8_SetfillIcEEERS0_RKT_
FN:1450,1453,_ZN5Catch20ReusableStringStreamlsIcEERS0_RKT_
FN:1450,1453,_ZN5Catch20ReusableStringStreamlsIdEERS0_RKT_
FN:1450,1453,_ZN5Catch20ReusableStringStreamlsIfEERS0_RKT_
FN:1450,1453,_ZN5Catch20ReusableStringStreamlsIjEERS0_RKT_
FN:1450,1453,_ZN5Catch20ReusableStringStreamlsImEERS0_RKT_
FN:1450,1453,_ZN5Catch20ReusableStringStreamlsIxEERS0_RKT_
FN:1450,1453,_ZN5Catch20ReusableStringStreamlsIyEERS0_RKT_
FN:14503,14505,_ZN5Catch16TestCaseTracking11TrackerBase10moveToThisEv
FN:14507,14518,_ZN5Catch16TestCaseTracking14SectionTrackerC2ERKNS0_15NameAndLocationERNS0_14TrackerContextEPNS0_8ITrackerE
FN:14520,14529,_ZNK5Catch16TestCaseTracking14SectionTracker10isCompleteEv
FN:14531,14531,_ZNK5Catch16TestCaseTracking14SectionTracker16isSectionTrackerEv
FN:14533,14549,_ZN5Catch16TestCaseTracking14SectionTracker7acquireERNS0_14TrackerContextERKNS0_15NameAndLocationE
FN:1454,1454,_ZN5Catch20ReusableStringStream3getEv
FN:14551,14554,_ZN5Catch16TestCaseTracking14SectionTracker7tryOpenEv
FN:14556,14563,_ZN5Catch16TestCaseTracking14SectionTracker17addInitialFiltersERKSt6vectorINSt7__cxx1112basic_stringIcSt11char_traitsIcESaIcEEESaIS8_EE
FN:14564,14567,_ZN5Catch16TestCaseTracking14SectionTracker14addNextFiltersERKSt6vectorINSt7__cxx1112basic_stringIcSt11char_traitsIcESaIcEEESaIS8_EE
FN:14569,14571,_ZNK5Catch16TestCaseTracking14SectionTracker10getFiltersB5cxx11Ev
FN:14573,14575,_ZNK5Catch16TestCaseTracking14SectionTracker11trimmedNameB5cxx11Ev
FN:14593,14595,_ZN5Catch15makeTestInvokerEPFvvE
FN:14597,14597,_ZN5Catch11NameAndTagsC2ERKNS_9StringRefES3_
FN:14599,14612,_ZN5Catch7AutoRegC2EPNS_12ITestInvokerERKNS_14SourceLineInfoERKNS_9StringRefERKNS_11NameAndTagsE
FN:14614,14614,_ZN5Catch7AutoRegD0Ev
FN:14614,14614,_ZN5Catch7AutoRegD2Ev
FN:14626,14628,_ZN5Catch8TestSpec7PatternC2ERKNSt7__cxx1112basic_stringIcSt11char_traitsIcESaIcEEE
FN:14630,14630,_ZN5Catch8TestSpec7PatternD0Ev
FN:14630,14630,_ZN5Catch8TestSpec7PatternD2Ev
FN:14632,14634,_ZNK5Catch8TestSpec7Pattern4nameB5cxx11Ev
FN:14636,14639,_ZN5Catch8TestSpec11NamePatternC2ERKNSt7__cxx1112basic_stringIcSt11char_traitsIcESaIcEEES9_
FN:14641,14643,_ZNK5Catch8TestSpec11NamePattern7matchesERKNS_12TestCaseInfoE
FN:14645,14648,_ZN5Catch8TestSpec10TagPatternC2ERKNSt7__cxx1112basic_stringIcSt11char_traitsIcESaIcEEES9_
FN:14650,14654,_ZNK5Catch8TestSpec10TagPattern7matchesERKNS_12TestCaseInfoE
FN:14656,14659,_ZN5Catch8TestSpec15ExcludedPatternC2ERKSt10shared_ptrINS0_7PatternEE
FN:14661,14663,_ZNK5Catch8TestSpec15ExcludedPattern7matchesERKNS_12TestCaseInfoE
FN:14665,14667,_ZNK5Catch8TestSpec6Filter7matchesERKNS_12TestCaseInfoE
FN:14666,14666,_ZZNK5Catch8TestSpec6Filter7matchesERKNS_12TestCaseInfoEENKUlRKSt10shared_ptrINS0_7PatternEEE_clES9_
FN:14669,14674,_ZNK5Catch8TestSpec6Filter4nameB5cxx11Ev
FN:14676,14678,_ZNK5Catch8TestSpec10hasFiltersEv
FN:14680,14682,_ZNK5Catch8TestSpec7matchesERKNS_12TestCaseInfoE
FN:14681,14681,_ZZNK5Catch8TestSpec7matchesERKNS_12TestCaseInfoEENKUlRKNS0_6FilterEE_clES6_
FN:14684,14695,_ZNK5Catch8TestSpec15matchesByFilterERKSt6vectorINS_8TestCaseESaIS2_EERKNS_7IConfigE
FN:14687,14693,_ZZNK5Catch8TestSpec15matchesByFilterERKSt6vectorINS_8TestCaseESaIS2_EERKNS_7IConfigEENKUlRKNS0_6FilterEE_clESC_
FN:14697,14699,_ZNK5Catch8TestSpec14getInvalidArgsB5cxx11Ev
FN:14707,14707,_ZN5Catch14TestSpecParserC2ERKNS_17ITagAliasRegistryE
FN:14709,14726,_ZN5Catch14TestSpecParser5parseERKNSt7__cxx1112basic_stringIcSt11char_traitsIcESaIcEEE
FN:14727,14730,_ZN5Catch14TestSpecParser8testSpecEv
FN:14731,14766,_ZN5Catch14TestSpecParser9visitCharEc
FN:14769,14786,_ZN5Catch14TestSpecParser15processNoneCharEc
FN:14787,14795,_ZN5Catch14TestSpecParser15processNameCharEc
FN:14796,14802,_ZN5Catch14TestSpecParser16processOtherCharEc
FN:14803,14805,_ZN5Catch14TestSpecParser12startNewModeENS0_4ModeE
FN:14806,14820,_ZN5Catch14TestSpecParser7endModeEv
FN:14821,14825,_ZN5Catch14TestSpecParser6escapeEv
FN:14826,14841,_ZNK5Catch14TestSpecParser13isControlCharEc
FN:14843,14848,_ZN5Catch14TestSpecParser9addFilterEv
FN:14850,14852,_ZN5Catch14TestSpecParser12saveLastModeEv
FN:14854,14856,_ZN5Catch14TestSpecParser20revertBackToLastModeEv
FN:14858,14871,_ZN5Catch14TestSpecParser8separateEv
FN:14873,14887,_ZN5Catch14TestSpecParser17preprocessPatternB5cxx11Ev
FN:14889,14901,_ZN5Catch14TestSpecParser14addNamePatternEv
FN:14903,14928,_ZN5Catch14TestSpecParser13addTagPatternEv
FN:14930,14932,_ZN5Catch13parseTestSpecERKNSt7__cxx1112basic_stringIcSt11char_traitsIcESaIcEEE
FN:14944,14946,_ZN5Catch31getCurrentNanosecondsSinceEpochEv
FN:14949,14977,_ZN5Catch12_GLOBAL__N_123estimateClockResolutionEv
FN:14979,14982,_ZN5Catch27getEstimatedClockResolutionEv
FN:14984,14986,_ZN5Catch5Timer5startEv
FN:14987,14989,_ZNK5Catch5Timer21getElapsedNanosecondsEv
FN:14990,14992,_ZNK5Catch5Timer22getElapsedMicrosecondsEv
FN:14993,14995,_ZNK5Catch5Timer22getElapsedMillisecondsEv
FN:14996,14998,_ZNK5Catch5Timer17getElapsedSecondsEv
FN:15030,15036,_ZN5Catch6Detail12_GLOBAL__N_110Endianness5whichEv
FN:15040,15054,_ZN5Catch6Detail17rawMemoryToStringB5cxx11EPKvm
FN:15058,15075,_ZN5Catch10fpToStringIdEENSt7__cxx1112basic_stringIcSt11char_traitsIcESaIcEEET_i
FN:15058,15075,_ZN5Catch10fpToStringIfEENSt7__cxx1112basic_stringIcSt11char_traitsIcESaIcEEET_i
FN:15083,15104,_ZN5Catch11StringMakerINSt7__cxx1112basic_stringIcSt11char_traitsIcESaIcEEEvE7convertERKS6_
FN:15107,15109,_ZN5Catch11StringMakerISt17basic_string_viewIcSt11char_traitsIcEEvE7convertB5cxx11ES4_
FN:15112,15118,_ZN5Catch11StringMakerIPKcvE7convertB5cxx11ES2_
FN:15119,15125,_ZN5Catch11StringMakerIPcvE7convertB5cxx11ES1_
FN:15128,15135,_ZN5Catch11StringMakerINSt7__cxx1112basic_stringIwSt11char_traitsIwESaIwEEEvE7convertERKS6_
FN:15138,15140,_ZN5Catch11StringMakerISt17basic_string_viewIwSt11char_traitsIwEEvE7convertB5cxx11ES4_
FN:15143,15149,_ZN5Catch11StringMakerIPKwvE7convertB5cxx11ES2_
FN:15150,15156,_ZN5Catch11StringMakerIPwvE7convertB5cxx11ES1_
FN:15161,15163,_ZN5Catch11StringMakerISt4bytevE7convertB5cxx11ES1_
FN:15166,15168,_ZN5Catch11StringMakerIivE7convertB5cxx11Ei
FN:15169,15171,_ZN5Catch11StringMakerIlvE7convertB5cxx11El
FN:15172,15179,_ZN5Catch11StringMakerIxvE7convertB5cxx11Ex
FN:15181,15183,_ZN5Catch11StringMakerIjvE7convertB5cxx11Ej
FN:15184,15186,_ZN5Catch11StringMakerImvE7convertB5cxx11Em
FN:15187,15194,_ZN5Catch11StringMakerIyvE7convertB5cxx11Ey
FN:15196,15198,_ZN5Catch11StringMakerIbvE7convertB5cxx11Eb
FN:15200,15216,_ZN5Catch11StringMakerIavE7convertB5cxx11Ea
FN:15217,15219,_ZN5Catch11StringMakerIcvE7convertB5cxx11Ec
FN:15220,15222,_ZN5Catch11StringMakerIhvE7convertB5cxx11Eh
FN:15224,15226,_ZN5Catch11StringMakerIDnvE7convertB5cxx11EDn
FN:15230,15232,_ZN5Catch11StringMakerIfvE7convertB5cxx11Ef
FN:15236,15238,_ZN5Catch11StringMakerIdvE7convertB5cxx11Ed
FN:15240,15240,_ZN5Catch12ratio_stringISt5ratioILl1ELl1000000000000000000EEE6symbolB5cxx11Ev
FN:15241,15241,_ZN5Catch12ratio_stringISt5ratioILl1ELl1000000000000000EEE6symbolB5cxx11Ev
FN:15242,15242,_ZN5Catch12ratio_stringISt5ratioILl1ELl1000000000000EEE6symbolB5cxx11Ev
FN:15243,15243,_ZN5Catch12ratio_stringISt5ratioILl1ELl1000000000EEE6symbolB5cxx11Ev
FN:15244,15244,_ZN5Catch12ratio_stringISt5ratioILl1ELl1000000EEE6symbolB5cxx11Ev
FN:15245,15245,_ZN5Catch12ratio_stringISt5ratioILl1ELl1000EEE6symbolB5cxx11Ev
FN:15258,15264,_ZNK5Catch6CountsmiERKS0_
FN:15266,15271,_ZN5Catch6CountspLERKS0_
FN:15273,15275,_ZNK5Catch6Counts5totalEv
FN:15276,15278,_ZNK5Catch6Counts9allPassedEv
FN:15279,15281,_ZNK5Catch6Counts5allOkEv
FN:15283,15288,_ZNK5Catch6TotalsmiERKS0_
FN:15290,15294,_ZN5Catch6TotalspLERKS0_
FN:15296,15305,_ZNK5Catch6Totals5deltaERKS0_
FN:15349,15357,_ZN5Catch19uncaught_exceptionsEv
FN:15366,15377,_ZN5Catch7VersionC2EjjjPKcj
FN:15379,15389,_ZN5CatchlsERSoRKNS_7VersionE
FN:15391,15394,_ZN5Catch14libraryVersionEv
FN:15402,15415,_ZN5Catch15WildcardPatternC2ERKNSt7__cxx1112basic_stringIcSt11char_traitsIcESaIcEEENS_13CaseSensitive6ChoiceE
FN:15417,15430,_ZNK5Catch15WildcardPattern7matchesERKNSt7__cxx1112basic_stringIcSt11char_traitsIcESaIcEEE
FN:15432,15434,_ZNK5Catch15WildcardPattern15normaliseStringERKNSt7__cxx1112basic_stringIcSt11char_traitsIcESaIcEEE
FN:15446,15457,_ZN5Catch12_GLOBAL__N_113trailingBytesEh
FN:15459,15470,_ZN5Catch12_GLOBAL__N_111headerValueEh
FN:15472,15478,_ZN5Catch12_GLOBAL__N_113hexEscapeCharERSoh
FN:15480,15482,_ZN5Catch12_GLOBAL__N_113shouldNewlineENS_13XmlFormattingE
FN:15484,15486,_ZN5Catch12_GLOBAL__N_112shouldIndentENS_13XmlFormattingE
FN:15490,15495,_ZN5CatchorENS_13XmlFormattingES0_
FN:15497,15502,_ZN5CatchanENS_13XmlFormattingES0_
FN:15504,15507,_ZN5Catch9XmlEncodeC2ERKNSt7__cxx1112basic_stringIcSt11char_traitsIcESaIcEEENS0_7ForWhatE
FN:15509,15601,_ZNK5Catch9XmlEncode8encodeToERSo
FN:1559,1561,_ZN5Catch6Detail17rawMemoryToStringIP4CardEENSt7__cxx1112basic_stringIcSt11char_traitsIcESaIcEEERKT_
FN:1559,1561,_ZN5Catch6Detail17rawMemoryToStringIP4PileEENSt7__cxx1112basic_stringIcSt11char_traitsIcESaIcEEERKT_
FN:15603,15606,_ZN5CatchlsERSoRKNS_9XmlEncodeE
FN:15608,15611,_ZN5Catch9XmlWriter13ScopedElementC2EPS0_NS_13XmlFormattingE
FN:15613,15619,_ZN5Catch9XmlWriter13ScopedElementC2EOS1_
FN:15620,15629,_ZN5Catch9XmlWriter13ScopedElementaSEOS1_
FN:15631,15635,_ZN5Catch9XmlWriter13ScopedElementD2Ev
FN:15637,15640,_ZN5Catch9XmlWriter13ScopedElement9writeTextERKNSt7__cxx1112basic_stringIcSt11char_traitsIcESaIcEEENS_13XmlFormattingE
FN:15642,15645,_ZN5Catch9XmlWriterC2ERSo
FN:15647,15652,_ZN5Catch9XmlWriterD2Ev
FN:15654,15666,_ZN5Catch9XmlWriter12startElementERKNSt7__cxx1112basic_stringIcSt11char_traitsIcESaIcEEENS_13XmlFormattingE
FN:15668,15672,_ZN5Catch9XmlWriter13scopedElementERKNSt7__cxx1112basic_stringIcSt11char_traitsIcESaIcEEENS_13XmlFormattingE
FN:15674,15691,_ZN5Catch9XmlWriter10endElementENS_13XmlFormattingE
FN:15693,15697,_ZN5Catch9XmlWriter14writeAttributeERKNSt7__cxx1112basic_stringIcSt11char_traitsIcESaIcEEES8_
FN:15699,15702,_ZN5Catch9XmlWriter14writeAttributeERKNSt7__cxx1112basic_stringIcSt11char_traitsIcESaIcEEEb
FN:15704,15715,_ZN5Catch9XmlWriter9writeTextERKNSt7__cxx1112basic_stringIcSt11char_traitsIcESaIcEEENS_13XmlFormattingE
FN:15717,15725,_ZN5Catch9XmlWriter12writeCommentERKNSt7__cxx1112basic_stringIcSt11char_traitsIcESaIcEEENS_13XmlFormattingE
FN:15727,15729,_ZN5Catch9XmlWriter18writeStylesheetRefERKNSt7__cxx1112basic_stringIcSt11char_traitsIcESaIcEEE
FN:15731,15735,_ZN5Catch9XmlWriter14writeBlankLineEv
FN:15737,15743,_ZN5Catch9XmlWriter15ensureTagClosedEv
FN:15745,15747,_ZN5Catch9XmlWriter15applyFormattingENS_13XmlFormattingE
FN:15749,15751,_ZN5Catch9XmlWriter16writeDeclarationEv
FN:15753,15758,_ZN5Catch9XmlWriter18newlineIfNecessaryEv
FN:15770,15772,_ZN5Catch25prepareExpandedExpressionERNS_15AssertionResultE
FN:15776,15792,_ZN5Catch20getFormattedDurationB5cxx11Ed
FN:15794,15803,_ZN5Catch18shouldShowDurationERKNS_7IConfigEd
FN:15805,15818,_ZN5Catch16serializeFiltersERKSt6vectorINSt7__cxx1112basic_stringIcSt11char_traitsIcESaIcEEESaIS6_EE
FN:15820,15821,_ZN5Catch21TestEventListenerBaseC2ERKNS_14ReporterConfigE
FN:15823,15825,_ZN5Catch21TestEventListenerBase23getSupportedVerbositiesEv
FN:15827,15827,_ZN5Catch21TestEventListenerBase17assertionStartingERKNS_13AssertionInfoE
FN:15829,15831,_ZN5Catch21TestEventListenerBase14assertionEndedERKNS_14AssertionStatsE
FN:15843,15843,_ZN12_GLOBAL__N_112failedStringEv
FN:15844,15844,_ZN12_GLOBAL__N_112passedStringEv
FN:15848,15848,_ZN12_GLOBAL__N_19dimColourEv
FN:15850,15853,_ZN12_GLOBAL__N_19bothOrAllEm
FN:15865,15895,_ZN5Catch12_GLOBAL__N_111printTotalsERSoRKNS_6TotalsE
FN:15902,15907,_ZN5Catch12_GLOBAL__N_116AssertionPrinterC2ERSoRKNS_14AssertionStatsEb
FN:15909,15975,_ZN5Catch12_GLOBAL__N_116AssertionPrinter5printEv
FN:15978,15981,_ZNK5Catch12_GLOBAL__N_116AssertionPrinter15printSourceInfoEv
FN:15983,15991,_ZNK5Catch12_GLOBAL__N_116AssertionPrinter15printResultTypeENS_6Colour4CodeERKNSt7__cxx1112basic_stringIcSt11char_traitsIcESaIcEEE
FN:15993,15995,_ZNK5Catch12_GLOBAL__N_116AssertionPrinter10printIssueERKNSt7__cxx1112basic_stringIcSt11char_traitsIcESaIcEEE
FN:15997,16006,_ZN5Catch12_GLOBAL__N_116AssertionPrinter18printExpressionWasEv
FN:16008,16012,_ZNK5Catch12_GLOBAL__N_116AssertionPrinter23printOriginalExpressionEv
FN:16014,16022,_ZNK5Catch12_GLOBAL__N_116AssertionPrinter28printReconstructedExpressionEv
FN:16024,16029,_ZN5Catch12_GLOBAL__N_116AssertionPrinter12printMessageEv
FN:16031,16055,_ZN5Catch12_GLOBAL__N_116AssertionPrinter22printRemainingMessagesENS_6Colour4CodeE
FN:16067,16069,_ZN5Catch15CompactReporter14getDescriptionB5cxx11Ev
FN:16071,16073,_ZN5Catch15CompactReporter19noMatchingTestCasesERKNSt7__cxx1112basic_stringIcSt11char_traitsIcESaIcEEE
FN:16075,16075,_ZN5Catch15CompactReporter17assertionStartingERKNS_13AssertionInfoE
FN:16077,16094,_ZN5Catch15CompactReporter14assertionEndedERKNS_14AssertionStatsE
FN:16096,16101,_ZN5Catch15CompactReporter12sectionEndedERKNS_12SectionStatsE
FN:16103,16107,_ZN5Catch15CompactReporter12testRunEndedERKNS_12TestRunStatsE
FN:16109,16109,_ZN5Catch15CompactReporterD0Ev
FN:16109,16109,_ZN5Catch15CompactReporterD2Ev
FN:16141,16213,_ZN5Catch12_GLOBAL__N_123ConsoleAssertionPrinterC2ERSoRKNS_14AssertionStatsEb
FN:1619,1625,_ZN5Catch11StringMakerI4CardvE7convertIS1_EENSt9enable_ifIXsrNS_6Detail18IsStreamInsertableIT_EE5valueENSt7__cxx1112basic_stringIcSt11char_traitsIcESaIcEEEE4typeERKS7_
FN:1619,1625,_ZN5Catch11StringMakerIN4Card5COLOREvE7convertIS2_EENSt9enable_ifIXsrNS_6Detail18IsStreamInsertableIT_EE5valueENSt7__cxx1112basic_stringIcSt11char_traitsIcESaIcEEEE4typeERKS8_
FN:1619,1625,_ZN5Catch11StringMakerIN4Card9CARD_TYPEEvE7convertIS2_EENSt9enable_ifIXsrNS_6Detail18IsStreamInsertableIT_EE5valueENSt7__cxx1112basic_stringIcSt11char_traitsIcESaIcEEEE4typeERKS8_
FN:1619,1625,_ZN5Catch11StringMakerINS_14SourceLineInfoEvE7convertIS1_EENSt9enable_ifIXsrNS_6Detail18IsStreamInsertableIT_EE5valueENSt7__cxx1112basic_stringIcSt11char_traitsIcESaIcEEEE4typeERKS7_
FN:16215,16225,_ZNK5Catch12_GLOBAL__N_123ConsoleAssertionPrinter5printEv
FN:16228,16233,_ZNK5Catch12_GLOBAL__N_123ConsoleAssertionPrinter15printResultTypeEv
FN:16234,16241,_ZNK5Catch12_GLOBAL__N_123ConsoleAssertionPrinter23printOriginalExpressionEv
FN:16242,16248,_ZNK5Catch12_GLOBAL__N_123ConsoleAssertionPrinter28printReconstructedExpressionEv
FN:16249,16257,_ZNK5Catch12_GLOBAL__N_123ConsoleAssertionPrinter12printMessageEv
FN:16258,16261,_ZNK5Catch12_GLOBAL__N_123ConsoleAssertionPrinter15printSourceInfoEv
FN:16274,16277,_ZN5Catch12_GLOBAL__N_19makeRatioEmm
FN:16279,16286,_ZN5Catch12_GLOBAL__N_17findMaxERmS1_S1_
FN:16378,16380,_ZN5Catch12TablePrinterC2ERSoSt6vectorINS_12_GLOBAL__N_110ColumnInfoESaIS4_EE
FN:16402,16408,_ZN5Catch12TablePrinter5closeEv
FN:16438,16444,_ZN5CatchlsERNS_12TablePrinterENS_12_GLOBAL__N_18RowBreakE
FN:1644,1646,_ZN5Catch6Detail9stringifyI4CardEENSt7__cxx1112basic_stringIcSt11char_traitsIcESaIcEEERKT_
FN:1644,1646,_ZN5Catch6Detail9stringifyI5QListIP4CardEEENSt7__cxx1112basic_stringIcSt11char_traitsIcESaIcEEERKT_
FN:1644,1646,_ZN5Catch6Detail9stringifyIN4Card5COLOREEENSt7__cxx1112basic_stringIcSt11char_traitsIcESaIcEEERKT_
FN:1644,1646,_ZN5Catch6Detail9stringifyIN4Card9CARD_TYPEEEENSt7__cxx1112basic_stringIcSt11char_traitsIcESaIcEEERKT_
FN:1644,1646,_ZN5Catch6Detail9stringifyINS_14SourceLineInfoEEENSt7__cxx1112basic_stringIcSt11char_traitsIcESaIcEEERKT_
FN:1644,1646,_ZN5Catch6Detail9stringifyINSt7__cxx1112basic_stringIcSt11char_traitsIcESaIcEEEEES7_RKT_
FN:1644,1646,_ZN5Catch6Detail9stringifyINSt7__cxx1112basic_stringIwSt11char_traitsIwESaIwEEEEENS3_IcS4_IcESaIcEEERKT_
FN:1644,1646,_ZN5Catch6Detail9stringifyIP4CardEENSt7__cxx1112basic_stringIcSt11char_traitsIcESaIcEEERKT_
FN:1644,1646,_ZN5Catch6Detail9stringifyIP4PileEENSt7__cxx1112basic_stringIcSt11char_traitsIcESaIcEEERKT_
FN:1644,1646,_ZN5Catch6Detail9stringifyIaEENSt7__cxx1112basic_stringIcSt11char_traitsIcESaIcEEERKT_
FN:1644,1646,_ZN5Catch6Detail9stringifyIbEENSt7__cxx1112basic_stringIcSt11char_traitsIcESaIcEEERKT_
FN:1644,1646,_ZN5Catch6Detail9stringifyIcEENSt7__cxx1112basic_stringIcSt11char_traitsIcESaIcEEERKT_
FN:1644,1646,_ZN5Catch6Detail9stringifyIdEENSt7__cxx1112basic_stringIcSt11char_traitsIcESaIcEEERKT_
FN:1644,1646,_ZN5Catch6Detail9stringifyIiEENSt7__cxx1112basic_stringIcSt11char_traitsIcESaIcEEERKT_
FN:1644,1646,_ZN5Catch6Detail9stringifyIjEENSt7__cxx1112basic_stringIcSt11char_traitsIcESaIcEEERKT_
FN:1644,1646,_ZN5Catch6Detail9stringifyIxEENSt7__cxx1112basic_stringIcSt11char_traitsIcESaIcEEERKT_
FN:1644,1646,_ZN5Catch6Detail9stringifyIyEENSt7__cxx1112basic_stringIcSt11char_traitsIcESaIcEEERKT_
FN:16447,16469,_ZN5Catch15ConsoleReporterC2ERKNS_14ReporterConfigE
FN:16450,16469,_ZZN5Catch15ConsoleReporterC4ERKNS_14ReporterConfigEENKUlvE_clEv
FN:16470,16470,_ZN5Catch15ConsoleReporterD0Ev
FN:16470,16470,_ZN5Catch15ConsoleReporterD2Ev
FN:16472,16474,_ZN5Catch15ConsoleReporter14getDescriptionB5cxx11Ev
FN:16476,16478,_ZN5Catch15ConsoleReporter19noMatchingTestCasesERKNSt7__cxx1112basic_stringIcSt11char_traitsIcESaIcEEE
FN:16480,16482,_ZN5Catch15ConsoleReporter22reportInvalidArgumentsERKNSt7__cxx1112basic_stringIcSt11char_traitsIcESaIcEEE
FN:16484,16484,_ZN5Catch15ConsoleReporter17assertionStartingERKNS_13AssertionInfoE
FN:16486,16501,_ZN5Catch15ConsoleReporter14assertionEndedERKNS_14AssertionStatsE
FN:16503,16507,_ZN5Catch15ConsoleReporter15sectionStartingERKNS_11SectionInfoE
FN:16508,16527,_ZN5Catch15ConsoleReporter12sectionEndedERKNS_12SectionStatsE
FN:16577,16581,_ZN5Catch15ConsoleReporter13testCaseEndedERKNS_13TestCaseStatsE
FN:16582,16590,_ZN5Catch15ConsoleReporter14testGroupEndedERKNS_14TestGroupStatsE
FN:16591,16596,_ZN5Catch15ConsoleReporter12testRunEndedERKNS_12TestRunStatsE
FN:16597,16600,_ZN5Catch15ConsoleReporter15testRunStartingERKNS_11TestRunInfoE
FN:16602,16606,_ZN5Catch15ConsoleReporter9lazyPrintEv
FN:16608,16619,_ZN5Catch15ConsoleReporter37lazyPrintWithoutClosingBenchmarkTableEv
FN:16620,16631,_ZN5Catch15ConsoleReporter16lazyPrintRunInfoEv
FN:16632,16637,_ZN5Catch15ConsoleReporter18lazyPrintGroupInfoEv
FN:16638,16658,_ZN5Catch15ConsoleReporter29printTestCaseAndSectionHeaderEv
FN:16660,16663,_ZN5Catch15ConsoleReporter17printClosedHeaderERKNSt7__cxx1112basic_stringIcSt11char_traitsIcESaIcEEE
FN:16664,16670,_ZN5Catch15ConsoleReporter15printOpenHeaderERKNSt7__cxx1112basic_stringIcSt11char_traitsIcESaIcEEE
FN:16674,16681,_ZN5Catch15ConsoleReporter17printHeaderStringERKNSt7__cxx1112basic_stringIcSt11char_traitsIcESaIcEEEm
FN:16685,16687,_ZN5Catch13SummaryColumnC2ENSt7__cxx1112basic_stringIcSt11char_traitsIcESaIcEEENS_6Colour4CodeE
FN:16688,16700,_ZN5Catch13SummaryColumn6addRowEm
FN:16708,16736,_ZN5Catch15ConsoleReporter11printTotalsERKNS_6TotalsE
FN:16737,16753,_ZN5Catch15ConsoleReporter15printSummaryRowERKNSt7__cxx1112basic_stringIcSt11char_traitsIcESaIcEEERKSt6vectorINS_13SummaryColumnESaISA_EEm
FN:16755,16775,_ZN5Catch15ConsoleReporter18printTotalsDividerERKNS_6TotalsE
FN:16776,16778,_ZN5Catch15ConsoleReporter19printSummaryDividerEv
FN:16780,16785,_ZN5Catch15ConsoleReporter16printTestFiltersEv
FN:16810,16834,_ZN5Catch12_GLOBAL__N_119getCurrentTimestampEv
FN:16836,16843,_ZN5Catch12_GLOBAL__N_111fileNameTagERKSt6vectorINSt7__cxx1112basic_stringIcSt11char_traitsIcESaIcEEESaIS7_EE
FN:16839,16839,_ZZN5Catch12_GLOBAL__N_111fileNameTagERKSt6vectorINSt7__cxx1112basic_stringIcSt11char_traitsIcESaIcEEESaIS7_EEENKUlRKS7_E_clESD_
FN:16849,16853,_ZN5Catch12_GLOBAL__N_114formatDurationEd
FN:16857,16863,_ZN5Catch13JunitReporterC2ERKNS_14ReporterConfigE
FN:16865,16865,_ZN5Catch13JunitReporterD0Ev
FN:16865,16865,_ZN5Catch13JunitReporterD2Ev
FN:16867,16869,_ZN5Catch13JunitReporter14getDescriptionB5cxx11Ev
FN:16871,16871,_ZN5Catch13JunitReporter19noMatchingTestCasesERKNSt7__cxx1112basic_stringIcSt11char_traitsIcESaIcEEE
FN:16873,16876,_ZN5Catch13JunitReporter15testRunStartingERKNS_11TestRunInfoE
FN:16878,16884,_ZN5Catch13JunitReporter17testGroupStartingERKNS_9GroupInfoE
FN:16886,16888,_ZN5Catch13JunitReporter16testCaseStartingERKNS_12TestCaseInfoE
FN:16890,16894,_ZN5Catch13JunitReporter14assertionEndedERKNS_14AssertionStatsE
FN:16896,16900,_ZN5Catch13JunitReporter13testCaseEndedERKNS_13TestCaseStatsE
FN:16902,16906,_ZN5Catch13JunitReporter14testGroupEndedERKNS_14TestGroupStatsE
FN:16908,16910,_ZN5Catch13JunitReporter22testRunEndedCumulativeEv
FN:16912,16948,_ZN5Catch13JunitReporter10writeGroupERKNS_22CumulativeReporterBaseIS0_E4NodeINS_14TestGroupStatsENS3_INS_13TestCaseStatsENS2_11SectionNodeEEEEEd
FN:16950,16970,_ZN5Catch13JunitReporter13writeTestCaseERKNS_22CumulativeReporterBaseIS0_E4NodeINS_13TestCaseStatsENS2_11SectionNodeEEE
FN:16972,17016,_ZN5Catch13JunitReporter12writeSectionERKNSt7__cxx1112basic_stringIcSt11char_traitsIcESaIcEEES8_RKNS_22CumulativeReporterBaseIS0_E11SectionNodeEb
FN:17018,17021,_ZN5Catch13JunitReporter15writeAssertionsERKNS_22CumulativeReporterBaseIS0_E11SectionNodeE
FN:17023,17079,_ZN5Catch13JunitReporter14writeAssertionERKNS_14AssertionStatsE
FN:17091,17094,_ZN5Catch17ListeningReporterC2Ev
FN:17096,17098,_ZN5Catch17ListeningReporter11addListenerEOSt10unique_ptrINS_18IStreamingReporterESt14default_deleteIS2_EE
FN:17100,17104,_ZN5Catch17ListeningReporter11addReporterEOSt10unique_ptrINS_18IStreamingReporterESt14default_deleteIS2_EE
FN:17106,17108,_ZNK5Catch17ListeningReporter14getPreferencesEv
FN:17110,17112,_ZN5Catch17ListeningReporter23getSupportedVerbositiesEv
FN:17114,17119,_ZN5Catch17ListeningReporter19noMatchingTestCasesERKNSt7__cxx1112basic_stringIcSt11char_traitsIcESaIcEEE
FN:17121,17126,_ZN5Catch17ListeningReporter22reportInvalidArgumentsERKNSt7__cxx1112basic_stringIcSt11char_traitsIcESaIcEEE
FN:17156,17161,_ZN5Catch17ListeningReporter15testRunStartingERKNS_11TestRunInfoE
FN:17163,17168,_ZN5Catch17ListeningReporter17testGroupStartingERKNS_9GroupInfoE
FN:17170,17175,_ZN5Catch17ListeningReporter16testCaseStartingERKNS_12TestCaseInfoE
FN:17177,17182,_ZN5Catch17ListeningReporter15sectionStartingERKNS_11SectionInfoE
FN:17184,17189,_ZN5Catch17ListeningReporter17assertionStartingERKNS_13AssertionInfoE
FN:17192,17197,_ZN5Catch17ListeningReporter14assertionEndedERKNS_14AssertionStatsE
FN:17199,17204,_ZN5Catch17ListeningReporter12sectionEndedERKNS_12SectionStatsE
FN:17206,17211,_ZN5Catch17ListeningReporter13testCaseEndedERKNS_13TestCaseStatsE
FN:17213,17218,_ZN5Catch17ListeningReporter14testGroupEndedERKNS_14TestGroupStatsE
FN:17220,17225,_ZN5Catch17ListeningReporter12testRunEndedERKNS_12TestRunStatsE
FN:17227,17232,_ZN5Catch17ListeningReporter8skipTestERKNS_12TestCaseInfoE
FN:17234,17236,_ZNK5Catch17ListeningReporter7isMultiEv
FN:17250,17256,_ZN5Catch11XmlReporterC2ERKNS_14ReporterConfigE
FN:17258,17258,_ZN5Catch11XmlReporterD0Ev
FN:17258,17258,_ZN5Catch11XmlReporterD2Ev
FN:17260,17262,_ZN5Catch11XmlReporter14getDescriptionB5cxx11Ev
FN:17264,17266,_ZNK5Catch11XmlReporter16getStylesheetRefB5cxx11Ev
FN:17268,17272,_ZN5Catch11XmlReporter15writeSourceInfoERKNS_14SourceLineInfoE
FN:17274,17276,_ZN5Catch11XmlReporter19noMatchingTestCasesERKNSt7__cxx1112basic_stringIcSt11char_traitsIcESaIcEEE
FN:17278,17291,_ZN5Catch11XmlReporter15testRunStartingERKNS_11TestRunInfoE
FN:17293,17297,_ZN5Catch11XmlReporter17testGroupStartingERKNS_9GroupInfoE
FN:17299,17311,_ZN5Catch11XmlReporter16testCaseStartingERKNS_12TestCaseInfoE
FN:17313,17321,_ZN5Catch11XmlReporter15sectionStartingERKNS_11SectionInfoE
FN:17323,17323,_ZN5Catch11XmlReporter17assertionStartingERKNS_13AssertionInfoE
FN:17325,17397,_ZN5Catch11XmlReporter14assertionEndedERKNS_14AssertionStatsE
FN:17399,17412,_ZN5Catch11XmlReporter12sectionEndedERKNS_12SectionStatsE
FN:17414,17428,_ZN5Catch11XmlReporter13testCaseEndedERKNS_13TestCaseStatsE
FN:17430,17442,_ZN5Catch11XmlReporter14testGroupEndedERKNS_14TestGroupStatsE
FN:17444,17455,_ZN5Catch11XmlReporter12testRunEndedERKNS_12TestRunStatsE
FN:1798,1804,_ZN5Catch11StringMakerIP4CardvE7convertIS1_EENSt7__cxx1112basic_stringIcSt11char_traitsIcESaIcEEEPT_
FN:1798,1804,_ZN5Catch11StringMakerIP4PilevE7convertIS1_EENSt7__cxx1112basic_stringIcSt11char_traitsIcESaIcEEEPT_
FN:1829,1839,_ZN5Catch6Detail13rangeToStringIN5QListIP4CardE14const_iteratorES6_EENSt7__cxx1112basic_stringIcSt11char_traitsIcESaIcEEET_T0_
FN:2018,2020,_ZN5Catch13rangeToStringI5QListIP4CardEEENSt7__cxx1112basic_stringIcSt11char_traitsIcESaIcEEERKT_
FN:2041,2043,_ZN5Catch11StringMakerI5QListIP4CardEvE7convertB5cxx11ERKS4_
FN:2203,2203,_ZNK5Catch20ITransientExpression18isBinaryExpressionEv
FN:2204,2204,_ZNK5Catch20ITransientExpression9getResultEv
FN:2207,2210,_ZN5Catch20ITransientExpressionC2Ebb
FN:2229,2232,_ZNK5Catch10BinaryExprIRK4CardS3_E29streamReconstructedExpressionERSo
FN:2229,2232,_ZNK5Catch10BinaryExprIRK5QListIP4CardES6_E29streamReconstructedExpressionERSo
FN:2229,2232,_ZNK5Catch10BinaryExprIRKN4Card5COLORES4_E29streamReconstructedExpressionERSo
FN:2229,2232,_ZNK5Catch10BinaryExprIRKN4Card9CARD_TYPEES4_E29streamReconstructedExpressionERSo
FN:2229,2232,_ZNK5Catch10BinaryExprIRKNSt7__cxx1112basic_stringIcSt11char_traitsIcESaIcEEES8_E29streamReconstructedExpressionERSo
FN:2229,2232,_ZNK5Catch10BinaryExprIRKP4CardS4_E29streamReconstructedExpressionERSo
FN:2229,2232,_ZNK5Catch10BinaryExprIRKP4PileS4_E29streamReconstructedExpressionERSo
FN:2229,2232,_ZNK5Catch10BinaryExprIRKiS2_E29streamReconstructedExpressionERSo
FN:2229,2232,_ZNK5Catch10BinaryExprIRKjRKiE29streamReconstructedExpressionERSo
FN:2229,2232,_ZNK5Catch10BinaryExprIRKjRKxE29streamReconstructedExpressionERSo
FN:2229,2232,_ZNK5Catch10BinaryExprIRKjS2_E29streamReconstructedExpressionERSo
FN:2229,2232,_ZNK5Catch10BinaryExprIRKxRKiE29streamReconstructedExpressionERSo
FN:2229,2232,_ZNK5Catch10BinaryExprIbbE29streamReconstructedExpressionERSo
FN:2235,2240,_ZN5Catch10BinaryExprIRK4CardS3_EC2EbS3_NS_9StringRefES3_
FN:2235,2240,_ZN5Catch10BinaryExprIRK5QListIP4CardES6_EC2EbS6_NS_9StringRefES6_
FN:2235,2240,_ZN5Catch10BinaryExprIRKN4Card5COLORES4_EC2EbS4_NS_9StringRefES4_
FN:2235,2240,_ZN5Catch10BinaryExprIRKN4Card9CARD_TYPEES4_EC2EbS4_NS_9StringRefES4_
FN:2235,2240,_ZN5Catch10BinaryExprIRKNSt7__cxx1112basic_stringIcSt11char_traitsIcESaIcEEES8_EC2EbS8_NS_9StringRefES8_
FN:2235,2240,_ZN5Catch10BinaryExprIRKP4CardS4_EC2EbS4_NS_9StringRefES4_
FN:2235,2240,_ZN5Catch10BinaryExprIRKP4PileS4_EC2EbS4_NS_9StringRefES4_
FN:2235,2240,_ZN5Catch10BinaryExprIRKiS2_EC2EbS2_NS_9StringRefES2_
FN:2235,2240,_ZN5Catch10BinaryExprIRKjRKiEC2EbS2_NS_9StringRefES4_
FN:2235,2240,_ZN5Catch10BinaryExprIRKjRKxEC2EbS2_NS_9StringRefES4_
FN:2235,2240,_ZN5Catch10BinaryExprIRKjS2_EC2EbS2_NS_9StringRefES2_
FN:2235,2240,_ZN5Catch10BinaryExprIRKxRKiEC2EbS2_NS_9StringRefES4_
FN:2235,2240,_ZN5Catch10BinaryExprIbbEC2EbbNS_9StringRefEb
FN:2303,2305,_ZNK5Catch9UnaryExprIbE29streamReconstructedExpressionERSo
FN:2308,2311,_ZN5Catch9UnaryExprIbEC2Eb
FN:2316,2316,_ZN5Catch12compareEqualI4CardS1_EEbRKT_RKT0_
FN:2316,2316,_ZN5Catch12compareEqualI5QListIP4CardES4_EEbRKT_RKT0_
FN:2316,2316,_ZN5Catch12compareEqualIN4Card5COLORES2_EEbRKT_RKT0_
FN:2316,2316,_ZN5Catch12compareEqualIN4Card9CARD_TYPEES2_EEbRKT_RKT0_
FN:2316,2316,_ZN5Catch12compareEqualINSt7__cxx1112basic_stringIcSt11char_traitsIcESaIcEEES6_EEbRKT_RKT0_
FN:2316,2316,_ZN5Catch12compareEqualIP4CardS2_EEbRKT_RKT0_
FN:2316,2316,_ZN5Catch12compareEqualIP4PileS2_EEbRKT_RKT0_
FN:2316,2316,_ZN5Catch12compareEqualIiiEEbRKT_RKT0_
FN:2316,2316,_ZN5Catch12compareEqualIjiEEbRKT_RKT0_
FN:2316,2316,_ZN5Catch12compareEqualIjjEEbRKT_RKT0_
FN:2316,2316,_ZN5Catch12compareEqualIjxEEbRKT_RKT0_
FN:2316,2316,_ZN5Catch12compareEqualIxiEEbRKT_RKT0_
FN:2327,2327,_ZN5Catch15compareNotEqualI4CardRKS1_EEbRKT_OT0_
FN:2327,2327,_ZN5Catch15compareNotEqualIN4Card5COLORERKS2_EEbRKT_OT0_
FN:2327,2327,_ZN5Catch15compareNotEqualIN4Card9CARD_TYPEERKS2_EEbRKT_OT0_
FN:2327,2327,_ZN5Catch15compareNotEqualIiRKiEEbRKT_OT0_
FN:2341,2341,_ZN5Catch7ExprLhsIRK4CardEC2ES3_
FN:2341,2341,_ZN5Catch7ExprLhsIRK5QListIP4CardEEC2ES6_
FN:2341,2341,_ZN5Catch7ExprLhsIRKN4Card5COLOREEC2ES4_
FN:2341,2341,_ZN5Catch7ExprLhsIRKN4Card9CARD_TYPEEEC2ES4_
FN:2341,2341,_ZN5Catch7ExprLhsIRKNSt7__cxx1112basic_stringIcSt11char_traitsIcESaIcEEEEC2ES8_
FN:2341,2341,_ZN5Catch7ExprLhsIRKP4CardEC2ES4_
FN:2341,2341,_ZN5Catch7ExprLhsIRKP4PileEC2ES4_
FN:2341,2341,_ZN5Catch7ExprLhsIRKiEC2ES2_
FN:2341,2341,_ZN5Catch7ExprLhsIRKjEC2ES2_
FN:2341,2341,_ZN5Catch7ExprLhsIRKxEC2ES2_
FN:2341,2341,_ZN5Catch7ExprLhsIbEC2Eb
FN:2344,2346,_ZN5Catch7ExprLhsIRK4CardEeqIS1_EEKNS_10BinaryExprIS3_RKT_EES9_
FN:2344,2346,_ZN5Catch7ExprLhsIRK5QListIP4CardEEeqIS4_EEKNS_10BinaryExprIS6_RKT_EESC_
FN:2344,2346,_ZN5Catch7ExprLhsIRKN4Card5COLOREEeqIS2_EEKNS_10BinaryExprIS4_RKT_EESA_
FN:2344,2346,_ZN5Catch7ExprLhsIRKN4Card9CARD_TYPEEEeqIS2_EEKNS_10BinaryExprIS4_RKT_EESA_
FN:2344,2346,_ZN5Catch7ExprLhsIRKNSt7__cxx1112basic_stringIcSt11char_traitsIcESaIcEEEEeqIS6_EEKNS_10BinaryExprIS8_RKT_EESE_
FN:2344,2346,_ZN5Catch7ExprLhsIRKP4CardEeqIS2_EEKNS_10BinaryExprIS4_RKT_EESA_
FN:2344,2346,_ZN5Catch7ExprLhsIRKP4PileEeqIS2_EEKNS_10BinaryExprIS4_RKT_EESA_
FN:2344,2346,_ZN5Catch7ExprLhsIRKiEeqIiEEKNS_10BinaryExprIS2_RKT_EES8_
FN:2344,2346,_ZN5Catch7ExprLhsIRKjEeqIiEEKNS_10BinaryExprIS2_RKT_EES8_
FN:2344,2346,_ZN5Catch7ExprLhsIRKjEeqIjEEKNS_10BinaryExprIS2_RKT_EES8_
FN:2344,2346,_ZN5Catch7ExprLhsIRKjEeqIxEEKNS_10BinaryExprIS2_RKT_EES8_
FN:2344,2346,_ZN5Catch7ExprLhsIRKxEeqIiEEKNS_10BinaryExprIS2_RKT_EES8_
FN:2347,2349,_ZN5Catch7ExprLhsIbEeqEb
FN:2352,2354,_ZN5Catch7ExprLhsIRK4CardEneIS1_EEKNS_10BinaryExprIS3_RKT_EES9_
FN:2352,2354,_ZN5Catch7ExprLhsIRKN4Card5COLOREEneIS2_EEKNS_10BinaryExprIS4_RKT_EESA_
FN:2352,2354,_ZN5Catch7ExprLhsIRKN4Card9CARD_TYPEEEneIS2_EEKNS_10BinaryExprIS4_RKT_EESA_
FN:2352,2354,_ZN5Catch7ExprLhsIRKiEneIiEEKNS_10BinaryExprIS2_RKT_EES8_
FN:2372,2374,_ZN5Catch7ExprLhsIRKiEleIiEEKNS_10BinaryExprIS2_RKT_EES8_
FN:2402,2404,_ZNK5Catch7ExprLhsIbE13makeUnaryExprEv
FN:2416,2418,_ZN5Catch10DecomposerleI4CardEENS_7ExprLhsIRKT_EES6_
FN:2416,2418,_ZN5Catch10DecomposerleI5QListIP4CardEEENS_7ExprLhsIRKT_EES9_
FN:2416,2418,_ZN5Catch10DecomposerleIN4Card5COLOREEENS_7ExprLhsIRKT_EES7_
FN:2416,2418,_ZN5Catch10DecomposerleIN4Card9CARD_TYPEEEENS_7ExprLhsIRKT_EES7_
FN:2416,2418,_ZN5Catch10DecomposerleINSt7__cxx1112basic_stringIcSt11char_traitsIcESaIcEEEEENS_7ExprLhsIRKT_EESB_
FN:2416,2418,_ZN5Catch10DecomposerleIP4CardEENS_7ExprLhsIRKT_EES7_
FN:2416,2418,_ZN5Catch10DecomposerleIP4PileEENS_7ExprLhsIRKT_EES7_
FN:2416,2418,_ZN5Catch10DecomposerleIiEENS_7ExprLhsIRKT_EES5_
FN:2416,2418,_ZN5Catch10DecomposerleIjEENS_7ExprLhsIRKT_EES5_
FN:2416,2418,_ZN5Catch10DecomposerleIxEENS_7ExprLhsIRKT_EES5_
FN:2420,2422,_ZN5Catch10DecomposerleEb
FN:2560,2564,_ZN5Catch16AssertionHandlerD2Ev
FN:2567,2569,_ZN5Catch16AssertionHandler10handleExprIbEEvRKNS_7ExprLhsIT_EE
FN:2633,2636,_ZN5Catch14MessageBuilderlsINSt7__cxx1112basic_stringIcSt11char_traitsIcESaIcEEEEERS0_RKT_
FN:3105,3106,_ZN5Catch6Detail6ApproxC2IevEERKT_
FN:3105,3106,_ZN5Catch6Detail6ApproxC2IivEERKT_
FN:3105,3106,_ZN5Catch6Detail6ApproxC2IyvEERKT_
FN:3245,3245,_ZN5Catch8Matchers4Impl18MatcherUntypedBaseC2Ev
FN:3403,3405,_ZN5Catch8Matchers9Exception23ExceptionMessageMatcherC2ERKNSt7__cxx1112basic_stringIcSt11char_traitsIcESaIcEEE
FN:3775,3780,_ZN5Catch9MatchExprINSt7__cxx1112basic_stringIcSt11char_traitsIcESaIcEEERKNS_8Matchers4Impl11MatcherBaseIS6_EEEC2ERKS6_SC_RKNS_9StringRefE
FN:3782,3789,_ZNK5Catch9MatchExprINSt7__cxx1112basic_stringIcSt11char_traitsIcESaIcEEERKNS_8Matchers4Impl11MatcherBaseIS6_EEE29streamReconstructedExpressionERSo
FN:3877,3879,_ZN5Catch15throw_exceptionISt11logic_errorEEvRKT_
FN:3877,3879,_ZN5Catch15throw_exceptionISt12domain_errorEEvRKT_
FN:3877,3879,_ZN5Catch15throw_exceptionISt13runtime_errorEEvRKT_
FN:4381,4387,_ZN5Catch24getCurrentMutableContextEv
FN:4389,4392,_ZN5Catch17getCurrentContextEv
FN:4411,4411,_ZN5Catch6OptionINS_11TestRunInfoEEC2Ev
FN:4411,4411,_ZN5Catch6OptionINS_12TestCaseInfoEEC2Ev
FN:4411,4411,_ZN5Catch6OptionINS_15AssertionResultEEC2Ev
FN:4411,4411,_ZN5Catch6OptionINS_9GroupInfoEEC2Ev
FN:4411,4411,_ZN5Catch6OptionImEC2Ev
FN:4419,4421,_ZN5Catch6OptionINS_11TestRunInfoEED2Ev
FN:4419,4421,_ZN5Catch6OptionINS_12TestCaseInfoEED2Ev
FN:4419,4421,_ZN5Catch6OptionINS_15AssertionResultEED2Ev
FN:4419,4421,_ZN5Catch6OptionINS_9GroupInfoEED2Ev
FN:4419,4421,_ZN5Catch6OptionImED2Ev
FN:4431,4435,_ZN5Catch6OptionINS_11TestRunInfoEEaSERKS1_
FN:4431,4435,_ZN5Catch6OptionINS_12TestCaseInfoEEaSERKS1_
FN:4431,4435,_ZN5Catch6OptionINS_15AssertionResultEEaSERKS1_
FN:4431,4435,_ZN5Catch6OptionINS_9GroupInfoEEaSERKS1_
FN:4431,4435,_ZN5Catch6OptionImEaSERKm
FN:4437,4441,_ZN5Catch6OptionINS_11TestRunInfoEE5resetEv
FN:4437,4441,_ZN5Catch6OptionINS_12TestCaseInfoEE5resetEv
FN:4437,4441,_ZN5Catch6OptionINS_15AssertionResultEE5resetEv
FN:4437,4441,_ZN5Catch6OptionINS_9GroupInfoEE5resetEv
FN:4437,4441,_ZN5Catch6OptionImE5resetEv
FN:4443,4443,_ZN5Catch6OptionImEdeEv
FN:4444,4444,_ZNK5Catch6OptionINS_15AssertionResultEEdeEv
FN:4445,4445,_ZN5Catch6OptionINS_11TestRunInfoEEptEv
FN:4445,4445,_ZN5Catch6OptionINS_12TestCaseInfoEEptEv
FN:4445,4445,_ZN5Catch6OptionINS_9GroupInfoEEptEv
FN:4448,4450,_ZNK5Catch6OptionImE7valueOrERKm
FN:4452,4452,_ZNK5Catch6OptionImE4someEv
FN:4456,4458,_ZNK5Catch6OptionImEcvbEv
FN:4570,4570,_ZN5Catch11SimplePcg32C2Ev
FN:505,508,_ZN5Catch14SourceLineInfoC2EPKcm
FN:5091,5091,_ZN5Catch15WildcardPatternD0Ev
FN:5091,5091,_ZN5Catch15WildcardPatternD2Ev
FN:5243,5247,_ZN5Catch14TestSpecParser16addCharToPatternEc
FN:5322,5322,_ZN5Catch6ConfigD0Ev
FN:5322,5322,_ZN5Catch6ConfigD2Ev
FN:5501,5505,_ZN5Catch8LazyStatINS_11TestRunInfoEEaSERKS1_
FN:5501,5505,_ZN5Catch8LazyStatINS_12TestCaseInfoEEaSERKS1_
FN:5501,5505,_ZN5Catch8LazyStatINS_9GroupInfoEEaSERKS1_
FN:5506,5509,_ZN5Catch8LazyStatINS_11TestRunInfoEE5resetEv
FN:5506,5509,_ZN5Catch8LazyStatINS_12TestCaseInfoEE5resetEv
FN:5506,5509,_ZN5Catch8LazyStatINS_9GroupInfoEE5resetEv
FN:5532,5532,_ZN5Catch14AssertionStatsC2ERKS0_
FN:5548,5548,_ZN5Catch12SectionStatsC2ERKS0_
FN:5550,5550,_ZN5Catch12SectionStatsaSERKS0_
FN:5567,5567,_ZN5Catch13TestCaseStatsC2ERKS0_
FN:5586,5586,_ZN5Catch14TestGroupStatsC2ERKS0_
FN:5602,5602,_ZN5Catch12TestRunStatsC2ERKS0_
FN:5652,5652,_ZN5Catch18IStreamingReporterD0Ev
FN:5652,5652,_ZN5Catch18IStreamingReporterD2Ev
FN:5662,5662,_ZN5Catch18IStreamingReporter22reportInvalidArgumentsERKNSt7__cxx1112basic_stringIcSt11char_traitsIcESaIcEEE
FN:5738,5745,_ZN5Catch21StreamingReporterBaseINS_11XmlReporterEEC2ERKNS_14ReporterConfigE
FN:5738,5745,_ZN5Catch21StreamingReporterBaseINS_15CompactReporterEEC2ERKNS_14ReporterConfigE
FN:5738,5745,_ZN5Catch21StreamingReporterBaseINS_15ConsoleReporterEEC2ERKNS_14ReporterConfigE
FN:5738,5745,_ZN5Catch21StreamingReporterBaseINS_21TestEventListenerBaseEEC2ERKNS_14ReporterConfigE
FN:5747,5749,_ZNK5Catch21StreamingReporterBaseINS_11XmlReporterEE14getPreferencesEv
FN:5747,5749,_ZNK5Catch21StreamingReporterBaseINS_15CompactReporterEE14getPreferencesEv
FN:5747,5749,_ZNK5Catch21StreamingReporterBaseINS_15ConsoleReporterEE14getPreferencesEv
FN:5747,5749,_ZNK5Catch21StreamingReporterBaseINS_21TestEventListenerBaseEE14getPreferencesEv
FN:5751,5753,_ZN5Catch21StreamingReporterBaseINS_11XmlReporterEE23getSupportedVerbositiesEv
FN:5751,5753,_ZN5Catch21StreamingReporterBaseINS_15CompactReporterEE23getSupportedVerbositiesEv
FN:5751,5753,_ZN5Catch21StreamingReporterBaseINS_15ConsoleReporterEE23getSupportedVerbositiesEv
FN:5755,5755,_ZN5Catch21StreamingReporterBaseINS_11XmlReporterEED0Ev
FN:5755,5755,_ZN5Catch21StreamingReporterBaseINS_11XmlReporterEED2Ev
FN:5755,5755,_ZN5Catch21StreamingReporterBaseINS_15CompactReporterEED0Ev
FN:5755,5755,_ZN5Catch21StreamingReporterBaseINS_15CompactReporterEED2Ev
FN:5755,5755,_ZN5Catch21StreamingReporterBaseINS_15ConsoleReporterEED0Ev
FN:5755,5755,_ZN5Catch21StreamingReporterBaseINS_15ConsoleReporterEED2Ev
FN:5755,5755,_ZN5Catch21StreamingReporterBaseINS_21TestEventListenerBaseEED0Ev
FN:5755,5755,_ZN5Catch21StreamingReporterBaseINS_21TestEventListenerBaseEED2Ev
FN:5757,5757,_ZN5Catch21StreamingReporterBaseINS_11XmlReporterEE19noMatchingTestCasesERKNSt7__cxx1112basic_stringIcSt11char_traitsIcESaIcEEE
FN:5757,5757,_ZN5Catch21StreamingReporterBaseINS_15CompactReporterEE19noMatchingTestCasesERKNSt7__cxx1112basic_stringIcSt11char_traitsIcESaIcEEE
FN:5757,5757,_ZN5Catch21StreamingReporterBaseINS_15ConsoleReporterEE19noMatchingTestCasesERKNSt7__cxx1112basic_stringIcSt11char_traitsIcESaIcEEE
FN:5757,5757,_ZN5Catch21StreamingReporterBaseINS_21TestEventListenerBaseEE19noMatchingTestCasesERKNSt7__cxx1112basic_stringIcSt11char_traitsIcESaIcEEE
FN:5759,5759,_ZN5Catch21StreamingReporterBaseINS_11XmlReporterEE22reportInvalidArgumentsERKNSt7__cxx1112basic_stringIcSt11char_traitsIcESaIcEEE
FN:5759,5759,_ZN5Catch21StreamingReporterBaseINS_15CompactReporterEE22reportInvalidArgumentsERKNSt7__cxx1112basic_stringIcSt11char_traitsIcESaIcEEE
FN:5759,5759,_ZN5Catch21StreamingReporterBaseINS_15ConsoleReporterEE22reportInvalidArgumentsERKNSt7__cxx1112basic_stringIcSt11char_traitsIcESaIcEEE
FN:5759,5759,_ZN5Catch21StreamingReporterBaseINS_21TestEventListenerBaseEE22reportInvalidArgumentsERKNSt7__cxx1112basic_stringIcSt11char_traitsIcESaIcEEE
FN:5761,5763,_ZN5Catch21StreamingReporterBaseINS_11XmlReporterEE15testRunStartingERKNS_11TestRunInfoE
FN:5761,5763,_ZN5Catch21StreamingReporterBaseINS_15CompactReporterEE15testRunStartingERKNS_11TestRunInfoE
FN:5761,5763,_ZN5Catch21StreamingReporterBaseINS_15ConsoleReporterEE15testRunStartingERKNS_11TestRunInfoE
FN:5761,5763,_ZN5Catch21StreamingReporterBaseINS_21TestEventListenerBaseEE15testRunStartingERKNS_11TestRunInfoE
FN:5765,5767,_ZN5Catch21StreamingReporterBaseINS_11XmlReporterEE17testGroupStartingERKNS_9GroupInfoE
FN:5765,5767,_ZN5Catch21StreamingReporterBaseINS_15CompactReporterEE17testGroupStartingERKNS_9GroupInfoE
FN:5765,5767,_ZN5Catch21StreamingReporterBaseINS_15ConsoleReporterEE17testGroupStartingERKNS_9GroupInfoE
FN:5765,5767,_ZN5Catch21StreamingReporterBaseINS_21TestEventListenerBaseEE17testGroupStartingERKNS_9GroupInfoE
FN:5769,5771,_ZN5Catch21StreamingReporterBaseINS_11XmlReporterEE16testCaseStartingERKNS_12TestCaseInfoE
FN:5769,5771,_ZN5Catch21StreamingReporterBaseINS_15CompactReporterEE16testCaseStartingERKNS_12TestCaseInfoE
FN:5769,5771,_ZN5Catch21StreamingReporterBaseINS_15ConsoleReporterEE16testCaseStartingERKNS_12TestCaseInfoE
FN:5769,5771,_ZN5Catch21StreamingReporterBaseINS_21TestEventListenerBaseEE16testCaseStartingERKNS_12TestCaseInfoE
FN:5772,5774,_ZN5Catch21StreamingReporterBaseINS_11XmlReporterEE15sectionStartingERKNS_11SectionInfoE
FN:5772,5774,_ZN5Catch21StreamingReporterBaseINS_15CompactReporterEE15sectionStartingERKNS_11SectionInfoE
FN:5772,5774,_ZN5Catch21StreamingReporterBaseINS_15ConsoleReporterEE15sectionStartingERKNS_11SectionInfoE
FN:5772,5774,_ZN5Catch21StreamingReporterBaseINS_21TestEventListenerBaseEE15sectionStartingERKNS_11SectionInfoE
FN:5776,5778,_ZN5Catch21StreamingReporterBaseINS_11XmlReporterEE12sectionEndedERKNS_12SectionStatsE
FN:5776,5778,_ZN5Catch21StreamingReporterBaseINS_15CompactReporterEE12sectionEndedERKNS_12SectionStatsE
FN:5776,5778,_ZN5Catch21StreamingReporterBaseINS_15ConsoleReporterEE12sectionEndedERKNS_12SectionStatsE
FN:5776,5778,_ZN5Catch21StreamingReporterBaseINS_21TestEventListenerBaseEE12sectionEndedERKNS_12SectionStatsE
FN:5779,5781,_ZN5Catch21StreamingReporterBaseINS_11XmlReporterEE13testCaseEndedERKNS_13TestCaseStatsE
FN:5779,5781,_ZN5Catch21StreamingReporterBaseINS_15CompactReporterEE13testCaseEndedERKNS_13TestCaseStatsE
FN:5779,5781,_ZN5Catch21StreamingReporterBaseINS_15ConsoleReporterEE13testCaseEndedERKNS_13TestCaseStatsE
FN:5779,5781,_ZN5Catch21StreamingReporterBaseINS_21TestEventListenerBaseEE13testCaseEndedERKNS_13TestCaseStatsE
FN:5782,5784,_ZN5Catch21StreamingReporterBaseINS_11XmlReporterEE14testGroupEndedERKNS_14TestGroupStatsE
FN:5782,5784,_ZN5Catch21StreamingReporterBaseINS_15CompactReporterEE14testGroupEndedERKNS_14TestGroupStatsE
FN:5782,5784,_ZN5Catch21StreamingReporterBaseINS_15ConsoleReporterEE14testGroupEndedERKNS_14TestGroupStatsE
FN:5782,5784,_ZN5Catch21StreamingReporterBaseINS_21TestEventListenerBaseEE14testGroupEndedERKNS_14TestGroupStatsE
FN:5785,5789,_ZN5Catch21StreamingReporterBaseINS_11XmlReporterEE12testRunEndedERKNS_12TestRunStatsE
FN:5785,5789,_ZN5Catch21StreamingReporterBaseINS_15CompactReporterEE12testRunEndedERKNS_12TestRunStatsE
FN:5785,5789,_ZN5Catch21StreamingReporterBaseINS_15ConsoleReporterEE12testRunEndedERKNS_12TestRunStatsE
FN:5785,5789,_ZN5Catch21StreamingReporterBaseINS_21TestEventListenerBaseEE12testRunEndedERKNS_12TestRunStatsE
FN:5791,5794,_ZN5Catch21StreamingReporterBaseINS_11XmlReporterEE8skipTestERKNS_12TestCaseInfoE
FN:5791,5794,_ZN5Catch21StreamingReporterBaseINS_15CompactReporterEE8skipTestERKNS_12TestCaseInfoE
FN:5791,5794,_ZN5Catch21StreamingReporterBaseINS_15ConsoleReporterEE8skipTestERKNS_12TestCaseInfoE
FN:5791,5794,_ZN5Catch21StreamingReporterBaseINS_21TestEventListenerBaseEE8skipTestERKNS_12TestCaseInfoE
FN:5811,5811,_ZN5Catch22CumulativeReporterBaseINS_13JunitReporterEE4NodeINS_12TestRunStatsENS3_INS_14TestGroupStatsENS3_INS_13TestCaseStatsENS2_11SectionNodeEEEEEEC2ERKS4_
FN:5811,5811,_ZN5Catch22CumulativeReporterBaseINS_13JunitReporterEE4NodeINS_13TestCaseStatsENS2_11SectionNodeEEC2ERKS4_
FN:5811,5811,_ZN5Catch22CumulativeReporterBaseINS_13JunitReporterEE4NodeINS_14TestGroupStatsENS3_INS_13TestCaseStatsENS2_11SectionNodeEEEEC2ERKS4_
FN:5812,5812,_ZN5Catch22CumulativeReporterBaseINS_13JunitReporterEE4NodeINS_12TestRunStatsENS3_INS_14TestGroupStatsENS3_INS_13TestCaseStatsENS2_11SectionNodeEEEEEED0Ev
FN:5812,5812,_ZN5Catch22CumulativeReporterBaseINS_13JunitReporterEE4NodeINS_12TestRunStatsENS3_INS_14TestGroupStatsENS3_INS_13TestCaseStatsENS2_11SectionNodeEEEEEED2Ev
FN:5812,5812,_ZN5Catch22CumulativeReporterBaseINS_13JunitReporterEE4NodeINS_13TestCaseStatsENS2_11SectionNodeEED0Ev
FN:5812,5812,_ZN5Catch22CumulativeReporterBaseINS_13JunitReporterEE4NodeINS_13TestCaseStatsENS2_11SectionNodeEED2Ev
FN:5812,5812,_ZN5Catch22CumulativeReporterBaseINS_13JunitReporterEE4NodeINS_14TestGroupStatsENS3_INS_13TestCaseStatsENS2_11SectionNodeEEEED0Ev
FN:5812,5812,_ZN5Catch22CumulativeReporterBaseINS_13JunitReporterEE4NodeINS_14TestGroupStatsENS3_INS_13TestCaseStatsENS2_11SectionNodeEEEED2Ev
FN:5819,5819,_ZN5Catch22CumulativeReporterBaseINS_13JunitReporterEE11SectionNodeC2ERKNS_12SectionStatsE
FN:5820,5820,_ZN5Catch22CumulativeReporterBaseINS_13JunitReporterEE11SectionNodeD0Ev
FN:5820,5820,_ZN5Catch22CumulativeReporterBaseINS_13JunitReporterEE11SectionNodeD2Ev
FN:5839,5839,_ZN5Catch22CumulativeReporterBaseINS_13JunitReporterEE13BySectionInfoC2ERKNS_11SectionInfoE
FN:5840,5840,_ZN5Catch22CumulativeReporterBaseINS_13JunitReporterEE13BySectionInfoC2ERKS3_
FN:5841,5844,_ZNK5Catch22CumulativeReporterBaseINS_13JunitReporterEE13BySectionInfoclERKSt10shared_ptrINS2_11SectionNodeEE
FN:5855,5862,_ZN5Catch22CumulativeReporterBaseINS_13JunitReporterEEC2ERKNS_14ReporterConfigE
FN:5863,5863,_ZN5Catch22CumulativeReporterBaseINS_13JunitReporterEED0Ev
FN:5863,5863,_ZN5Catch22CumulativeReporterBaseINS_13JunitReporterEED2Ev
FN:5865,5867,_ZNK5Catch22CumulativeReporterBaseINS_13JunitReporterEE14getPreferencesEv
FN:5869,5871,_ZN5Catch22CumulativeReporterBaseINS_13JunitReporterEE23getSupportedVerbositiesEv
FN:5873,5873,_ZN5Catch22CumulativeReporterBaseINS_13JunitReporterEE15testRunStartingERKNS_11TestRunInfoE
FN:5874,5874,_ZN5Catch22CumulativeReporterBaseINS_13JunitReporterEE17testGroupStartingERKNS_9GroupInfoE
FN:5876,5876,_ZN5Catch22CumulativeReporterBaseINS_13JunitReporterEE16testCaseStartingERKNS_12TestCaseInfoE
FN:5878,5901,_ZN5Catch22CumulativeReporterBaseINS_13JunitReporterEE15sectionStartingERKNS_11SectionInfoE
FN:5903,5903,_ZN5Catch22CumulativeReporterBaseINS_13JunitReporterEE17assertionStartingERKNS_13AssertionInfoE
FN:5905,5916,_ZN5Catch22CumulativeReporterBaseINS_13JunitReporterEE14assertionEndedERKNS_14AssertionStatsE
FN:5917,5922,_ZN5Catch22CumulativeReporterBaseINS_13JunitReporterEE12sectionEndedERKNS_12SectionStatsE
FN:5923,5933,_ZN5Catch22CumulativeReporterBaseINS_13JunitReporterEE13testCaseEndedERKNS_13TestCaseStatsE
FN:5934,5938,_ZN5Catch22CumulativeReporterBaseINS_13JunitReporterEE14testGroupEndedERKNS_14TestGroupStatsE
FN:5939,5944,_ZN5Catch22CumulativeReporterBaseINS_13JunitReporterEE12testRunEndedERKNS_12TestRunStatsE
FN:5947,5947,_ZN5Catch22CumulativeReporterBaseINS_13JunitReporterEE8skipTestERKNS_12TestCaseInfoE
FN:5965,5972,_ZN5Catch14getLineOfCharsILc126EEEPKcv
FN:5965,5972,_ZN5Catch14getLineOfCharsILc45EEEPKcv
FN:5965,5972,_ZN5Catch14getLineOfCharsILc46EEEPKcv
FN:6055,6057,_ZNK5Catch17ReporterRegistrarINS_11XmlReporterEE15ReporterFactory6createERKNS_14ReporterConfigE
FN:6055,6057,_ZNK5Catch17ReporterRegistrarINS_13JunitReporterEE15ReporterFactory6createERKNS_14ReporterConfigE
FN:6055,6057,_ZNK5Catch17ReporterRegistrarINS_15CompactReporterEE15ReporterFactory6createERKNS_14ReporterConfigE
FN:6055,6057,_ZNK5Catch17ReporterRegistrarINS_15ConsoleReporterEE15ReporterFactory6createERKNS_14ReporterConfigE
FN:6059,6061,_ZNK5Catch17ReporterRegistrarINS_11XmlReporterEE15ReporterFactory14getDescriptionB5cxx11Ev
FN:6059,6061,_ZNK5Catch17ReporterRegistrarINS_13JunitReporterEE15ReporterFactory14getDescriptionB5cxx11Ev
FN:6059,6061,_ZNK5Catch17ReporterRegistrarINS_15CompactReporterEE15ReporterFactory14getDescriptionB5cxx11Ev
FN:6059,6061,_ZNK5Catch17ReporterRegistrarINS_15ConsoleReporterEE15ReporterFactory14getDescriptionB5cxx11Ev
FN:6066,6068,_ZN5Catch17ReporterRegistrarINS_11XmlReporterEEC2ERKNSt7__cxx1112basic_stringIcSt11char_traitsIcESaIcEEE
FN:6066,6068,_ZN5Catch17ReporterRegistrarINS_13JunitReporterEEC2ERKNSt7__cxx1112basic_stringIcSt11char_traitsIcESaIcEEE
FN:6066,6068,_ZN5Catch17ReporterRegistrarINS_15CompactReporterEEC2ERKNSt7__cxx1112basic_stringIcSt11char_traitsIcESaIcEEE
FN:6066,6068,_ZN5Catch17ReporterRegistrarINS_15ConsoleReporterEEC2ERKNSt7__cxx1112basic_stringIcSt11char_traitsIcESaIcEEE
FN:618,618,_ZN5Catch9StringRefC2Ev
FN:622,625,_ZN5Catch9StringRefC2EPKcm
FN:6264,6267,_ZN5Catch9XmlWriter13ScopedElement14writeAttributeIA12_cEERS1_RKNSt7__cxx1112basic_stringIcSt11char_traitsIcESaIcEEERKT_
FN:6264,6267,_ZN5Catch9XmlWriter13ScopedElement14writeAttributeIA31_cEERS1_RKNSt7__cxx1112basic_stringIcSt11char_traitsIcESaIcEEERKT_
FN:6264,6267,_ZN5Catch9XmlWriter13ScopedElement14writeAttributeIA8_cEERS1_RKNSt7__cxx1112basic_stringIcSt11char_traitsIcESaIcEEERKT_
FN:6264,6267,_ZN5Catch9XmlWriter13ScopedElement14writeAttributeINSt7__cxx1112basic_stringIcSt11char_traitsIcESaIcEEEEERS1_RKS8_RKT_
FN:6264,6267,_ZN5Catch9XmlWriter13ScopedElement14writeAttributeIbEERS1_RKNSt7__cxx1112basic_stringIcSt11char_traitsIcESaIcEEERKT_
FN:6264,6267,_ZN5Catch9XmlWriter13ScopedElement14writeAttributeIdEERS1_RKNSt7__cxx1112basic_stringIcSt11char_traitsIcESaIcEEERKT_
FN:6264,6267,_ZN5Catch9XmlWriter13ScopedElement14writeAttributeIjEERS1_RKNSt7__cxx1112basic_stringIcSt11char_traitsIcESaIcEEERKT_
FN:6264,6267,_ZN5Catch9XmlWriter13ScopedElement14writeAttributeImEERS1_RKNSt7__cxx1112basic_stringIcSt11char_traitsIcESaIcEEERKT_
FN:627,630,_ZN5Catch9StringRefC2ERKNSt7__cxx1112basic_stringIcSt11char_traitsIcESaIcEEE
FN:6291,6295,_ZN5Catch9XmlWriter14writeAttributeIA12_cEERS0_RKNSt7__cxx1112basic_stringIcSt11char_traitsIcESaIcEEERKT_
FN:6291,6295,_ZN5Catch9XmlWriter14writeAttributeIA1_cEERS0_RKNSt7__cxx1112basic_stringIcSt11char_traitsIcESaIcEEERKT_
FN:6291,6295,_ZN5Catch9XmlWriter14writeAttributeIA31_cEERS0_RKNSt7__cxx1112basic_stringIcSt11char_traitsIcESaIcEEERKT_
FN:6291,6295,_ZN5Catch9XmlWriter14writeAttributeIA4_cEERS0_RKNSt7__cxx1112basic_stringIcSt11char_traitsIcESaIcEEERKT_
FN:6291,6295,_ZN5Catch9XmlWriter14writeAttributeIA5_cEERS0_RKNSt7__cxx1112basic_stringIcSt11char_traitsIcESaIcEEERKT_
FN:6291,6295,_ZN5Catch9XmlWriter14writeAttributeIA8_cEERS0_RKNSt7__cxx1112basic_stringIcSt11char_traitsIcESaIcEEERKT_
FN:6291,6295,_ZN5Catch9XmlWriter14writeAttributeINS_9StringRefEEERS0_RKNSt7__cxx1112basic_stringIcSt11char_traitsIcESaIcEEERKT_
FN:6291,6295,_ZN5Catch9XmlWriter14writeAttributeIPKcEERS0_RKNSt7__cxx1112basic_stringIcSt11char_traitsIcESaIcEEERKT_
FN:6291,6295,_ZN5Catch9XmlWriter14writeAttributeIdEERS0_RKNSt7__cxx1112basic_stringIcSt11char_traitsIcESaIcEEERKT_
FN:6291,6295,_ZN5Catch9XmlWriter14writeAttributeIjEERS0_RKNSt7__cxx1112basic_stringIcSt11char_traitsIcESaIcEEERKT_
FN:6291,6295,_ZN5Catch9XmlWriter14writeAttributeImEERS0_RKNSt7__cxx1112basic_stringIcSt11char_traitsIcESaIcEEERKT_
FN:632,634,_ZNK5Catch9StringRefcvNSt7__cxx1112basic_stringIcSt11char_traitsIcESaIcEEEEv
FN:642,645,_ZNK5Catch9StringRefixEm
FN:648,650,_ZNK5Catch9StringRef5emptyEv
FN:651,653,_ZNK5Catch9StringRef4sizeEv
FN:668,670,_ZNK5Catch9StringRef16isNullTerminatedEv
FN:673,673,_ZNK5Catch9StringRef5beginEv
FN:674,674,_ZNK5Catch9StringRef3endEv
FN:680,682,_ZN5Catchli3_srEPKcm
FN:685,687,_Zli9_catch_srPKcm
FN:7481,7484,_ZN5Catch16TestCaseTrackingeqERKNS0_15NameAndLocationES3_
FN:7495,7497,_ZN5Catch16TestCaseTracking8ITrackerC2ERKNS0_15NameAndLocationE
FN:7500,7502,_ZNK5Catch16TestCaseTracking8ITracker15nameAndLocationEv
FN:7578,7580,_ZNK5Catch16TestCaseTracking11TrackerBase10hasStartedEv
FN:7867,7869,_ZN12_GLOBAL__N_116marginComparisonEddd
FN:7876,7881,_ZN5Catch6Detail6ApproxC2Ed
FN:7883,7885,_ZN5Catch6Detail6Approx6customEv
FN:7887,7891,_ZNK5Catch6Detail6ApproxngEv
FN:7893,7897,_ZNK5Catch6Detail6Approx8toStringB5cxx11Ev
FN:7899,7904,_ZNK5Catch6Detail6Approx22equalityComparisonImplEd
FN:7906,7911,_ZN5Catch6Detail6Approx9setMarginEd
FN:7913,7918,_ZN5Catch6Detail6Approx10setEpsilonEd
FN:7923,7925,_ZN5Catch8literalsli2_aEe
FN:7926,7928,_ZN5Catch8literalsli2_aEy
FN:7931,7933,_ZN5Catch11StringMakerINS_6Detail6ApproxEvE7convertB5cxx11ERKS2_
FN:8022,8026,_ZN5Catch21FatalConditionHandler6engageEv
FN:8028,8032,_ZN5Catch21FatalConditionHandler9disengageEv
FN:8039,8042,_ZN5Catch26FatalConditionHandlerGuardC2EPNS_21FatalConditionHandlerE
FN:8043,8045,_ZN5Catch26FatalConditionHandlerGuardD2Ev
FN:8188,8191,_ZN5Catch12_GLOBAL__N_1lsERSoRKNS_20ITransientExpressionE
FN:8194,8196,_ZN5Catch14LazyExpressionC2Eb
FN:8198,8198,_ZN5Catch14LazyExpressionC2ERKS0_
FN:8200,8202,_ZNK5Catch14LazyExpressioncvbEv
FN:8204,8218,_ZN5CatchlsERSoRKNS_14LazyExpressionE
FN:8220,8227,_ZN5Catch16AssertionHandlerC2ERKNS_9StringRefERKNS_14SourceLineInfoES1_NS_17ResultDisposition5FlagsE
FN:8229,8231,_ZN5Catch16AssertionHandler10handleExprERKNS_20ITransientExpressionE
FN:8232,8234,_ZN5Catch16AssertionHandler13handleMessageENS_9ResultWas6OfTypeERKNS_9StringRefE
FN:8236,8238,_ZNK5Catch16AssertionHandler11allowThrowsEv
FN:8240,8257,_ZN5Catch16AssertionHandler8completeEv
FN:8248,8248,_ZZN5Catch16AssertionHandler8completeEvENKUlvE_clEv
FN:8258,8260,_ZN5Catch16AssertionHandler12setCompletedEv
FN:8262,8264,_ZN5Catch16AssertionHandler33handleUnexpectedInflightExceptionEv
FN:8266,8268,_ZN5Catch16AssertionHandler31handleExceptionThrownAsExpectedEv
FN:8269,8271,_ZN5Catch16AssertionHandler34handleExceptionNotThrownAsExpectedEv
FN:8273,8275,_ZN5Catch16AssertionHandler34handleUnexpectedExceptionNotThrownEv
FN:8277,8279,_ZN5Catch16AssertionHandler25handleThrowingCallSkippedEv
FN:8283,8285,_ZN5Catch24handleExceptionMatchExprERNS_16AssertionHandlerERKNSt7__cxx1112basic_stringIcSt11char_traitsIcESaIcEEERKNS_9StringRefE
FN:8292,8294,_ZN5Catch19AssertionResultDataC2ENS_9ResultWas6OfTypeERKNS_14LazyExpressionE
FN:8296,8306,_ZNK5Catch19AssertionResultData21reconstructExpressionB5cxx11Ev
FN:8308,8311,_ZN5Catch15AssertionResultC2ERKNS_13AssertionInfoERKNS_19AssertionResultDataE
FN:8314,8316,_ZNK5Catch15AssertionResult9succeededEv
FN:8319,8321,_ZNK5Catch15AssertionResult4isOkEv
FN:8323,8325,_ZNK5Catch15AssertionResult13getResultTypeEv
FN:8327,8329,_ZNK5Catch15AssertionResult13hasExpressionEv
FN:8331,8333,_ZNK5Catch15AssertionResult10hasMessageEv
FN:8335,8346,_ZNK5Catch15AssertionResult13getExpressionB5cxx11Ev
FN:8348,8360,_ZNK5Catch15AssertionResult20getExpressionInMacroB5cxx11Ev
FN:8362,8364,_ZNK5Catch15AssertionResult21hasExpandedExpressionEv
FN:8366,8371,_ZNK5Catch15AssertionResult21getExpandedExpressionB5cxx11Ev
FN:8373,8375,_ZNK5Catch15AssertionResult10getMessageB5cxx11Ev
FN:8376,8378,_ZNK5Catch15AssertionResult13getSourceInfoEv
FN:8380,8382,_ZNK5Catch15AssertionResult16getTestMacroNameEv
FN:8395,8399,_ZN5Catch24handleExceptionMatchExprERNS_16AssertionHandlerERKNS_8Matchers4Impl11MatcherBaseINSt7__cxx1112basic_stringIcSt11char_traitsIcESaIcEEEEERKNS_9StringRefE
FN:8476,8479,_ZN5Catch5clara8TextFlow12isWhitespaceEc
FN:8480,8483,_ZN5Catch5clara8TextFlow17isBreakableBeforeEc
FN:8484,8487,_ZN5Catch5clara8TextFlow16isBreakableAfterEc
FN:8509,8511,_ZN5Catch5clara8TextFlow6Column8iteratorC2ERKS2_m
FN:8513,8513,_ZNK5Catch5clara8TextFlow6Column8iterator4lineB5cxx11Ev
FN:8515,8523,_ZNK5Catch5clara8TextFlow6Column8iterator10isBoundaryEm
FN:8525,8553,_ZN5Catch5clara8TextFlow6Column8iterator10calcLengthEv
FN:8555,8558,_ZNK5Catch5clara8TextFlow6Column8iterator6indentEv
FN:8560,8562,_ZNK5Catch5clara8TextFlow6Column8iterator18addIndentAndSuffixERKNSt7__cxx1112basic_stringIcSt11char_traitsIcESaIcEEE
FN:8571,8577,_ZN5Catch5clara8TextFlow6Column8iteratorC2ERKS2_
FN:8579,8583,_ZNK5Catch5clara8TextFlow6Column8iteratordeB5cxx11Ev
FN:8585,8600,_ZN5Catch5clara8TextFlow6Column8iteratorppEv
FN:8607,8612,_ZNK5Catch5clara8TextFlow6Column8iteratoreqERKS3_
FN:8613,8615,_ZNK5Catch5clara8TextFlow6Column8iteratorneERKS3_
FN:8619,8619,_ZN5Catch5clara8TextFlow6ColumnC2ERKNSt7__cxx1112basic_stringIcSt11char_traitsIcESaIcEEE
FN:8621,8625,_ZN5Catch5clara8TextFlow6Column5widthEm
FN:8626,8629,_ZN5Catch5clara8TextFlow6Column6indentEm
FN:8630,8633,_ZN5Catch5clara8TextFlow6Column13initialIndentEm
FN:8635,8635,_ZNK5Catch5clara8TextFlow6Column5widthEv
FN:8636,8636,_ZNK5Catch5clara8TextFlow6Column5beginEv
FN:8637,8637,_ZNK5Catch5clara8TextFlow6Column3endEv
FN:8639,8649,_ZN5Catch5clara8TextFlowlsERSoRKNS1_6ColumnE
FN:8663,8665,_ZN5Catch5clara8TextFlow6SpacerC2Em
FN:8681,8688,_ZN5Catch5clara8TextFlow7Columns8iteratorC2ERKS2_NS3_6EndTagE
FN:8697,8704,_ZN5Catch5clara8TextFlow7Columns8iteratorC2ERKS2_
FN:8709,8711,_ZNK5Catch5clara8TextFlow7Columns8iteratorneERKS3_
FN:8712,8729,_ZNK5Catch5clara8TextFlow7Columns8iteratordeB5cxx11Ev
FN:8730,8736,_ZN5Catch5clara8TextFlow7Columns8iteratorppEv
FN:8745,8745,_ZNK5Catch5clara8TextFlow7Columns5beginEv
FN:8746,8746,_ZNK5Catch5clara8TextFlow7Columns3endEv
FN:8748,8751,_ZN5Catch5clara8TextFlow7ColumnspLERKNS1_6ColumnE
FN:8752,8756,_ZN5Catch5clara8TextFlow7ColumnsplERKNS1_6ColumnE
FN:8758,8769,_ZN5Catch5clara8TextFlowlsERSoRKNS1_7ColumnsE
FN:8778,8783,_ZN5Catch5clara8TextFlow6ColumnplERKS2_
FN:8830,8832,_ZN5Catch5clara6detail4ArgsC2EiPKPKc
FN:8839,8841,_ZNK5Catch5clara6detail4Args7exeNameB5cxx11Ev
FN:8854,8860,_ZN5Catch5clara6detail11isOptPrefixEc
FN:8869,8898,_ZN5Catch5clara6detail11TokenStream10loadBufferEv
FN:8901,8901,_ZN5Catch5clara6detail11TokenStreamC2ERKNS1_4ArgsE
FN:8903,8905,_ZN5Catch5clara6detail11TokenStreamC2EN9__gnu_cxx17__normal_iteratorIPKNSt7__cxx1112basic_stringIcSt11char_traitsIcESaIcEEESt6vectorISA_SaISA_EEEESG_
FN:8907,8909,_ZNK5Catch5clara6detail11TokenStreamcvbEv
FN:8913,8916,_ZNK5Catch5clara6detail11TokenStreamdeEv
FN:8918,8921,_ZNK5Catch5clara6detail11TokenStreamptEv
FN:8923,8932,_ZN5Catch5clara6detail11TokenStreamppEv
FN:8942,8942,_ZN5Catch5clara6detail10ResultBaseC2ENS2_4TypeE
FN:8943,8943,_ZN5Catch5clara6detail10ResultBaseD0Ev
FN:8943,8943,_ZN5Catch5clara6detail10ResultBaseD2Ev
FN:8953,8956,_ZNK5Catch5clara6detail15ResultValueBaseINS1_10ParseStateEE5valueEv
FN:8953,8956,_ZNK5Catch5clara6detail15ResultValueBaseINS1_15ParseResultTypeEE5valueEv
FN:8959,8959,_ZN5Catch5clara6detail15ResultValueBaseINS1_10ParseStateEEC2ENS1_10ResultBase4TypeE
FN:8959,8959,_ZN5Catch5clara6detail15ResultValueBaseINS1_15ParseResultTypeEEC2ENS1_10ResultBase4TypeE
FN:8961,8964,_ZN5Catch5clara6detail15ResultValueBaseINS1_10ParseStateEEC2ERKS4_
FN:8961,8964,_ZN5Catch5clara6detail15ResultValueBaseINS1_15ParseResultTypeEEC2ERKS4_
FN:8966,8968,_ZN5Catch5clara6detail15ResultValueBaseINS1_10ParseStateEEC2ENS1_10ResultBase4TypeERKS3_
FN:8966,8968,_ZN5Catch5clara6detail15ResultValueBaseINS1_15ParseResultTypeEEC2ENS1_10ResultBase4TypeERKS3_
FN:8970,8977,_ZN5Catch5clara6detail15ResultValueBaseINS1_10ParseStateEEaSERKS4_
FN:8979,8982,_ZN5Catch5clara6detail15ResultValueBaseINS1_10ParseStateEED0Ev
FN:8979,8982,_ZN5Catch5clara6detail15ResultValueBaseINS1_10ParseStateEED2Ev
FN:8979,8982,_ZN5Catch5clara6detail15ResultValueBaseINS1_15ParseResultTypeEED0Ev
FN:8979,8982,_ZN5Catch5clara6detail15ResultValueBaseINS1_15ParseResultTypeEED2Ev
FN:8999,9004,_ZN5Catch5clara6detail11BasicResultINS1_10ParseStateEEC2INS1_15ParseResultTypeEEERKNS2_IT_EE
FN:8999,9004,_ZN5Catch5clara6detail11BasicResultINS1_10ParseStateEEC2IvEERKNS2_IT_EE
FN:9007,9007,_ZN5Catch5clara6detail11BasicResultINS1_10ParseStateEE2okIS3_EES4_RKT_
FN:9007,9007,_ZN5Catch5clara6detail11BasicResultINS1_15ParseResultTypeEE2okIS3_EES4_RKT_
FN:9008,9008,_ZN5Catch5clara6detail11BasicResultIvE2okEv
FN:9009,9009,_ZN5Catch5clara6detail11BasicResultIvE10logicErrorERKNSt7__cxx1112basic_stringIcSt11char_traitsIcESaIcEEE
FN:9010,9010,_ZN5Catch5clara6detail11BasicResultINS1_10ParseStateEE12runtimeErrorERKNSt7__cxx1112basic_stringIcSt11char_traitsIcESaIcEEE
FN:9010,9010,_ZN5Catch5clara6detail11BasicResultINS1_15ParseResultTypeEE12runtimeErrorERKNSt7__cxx1112basic_stringIcSt11char_traitsIcESaIcEEE
FN:9012,9012,_ZNK5Catch5clara6detail11BasicResultINS1_10ParseStateEEcvbEv
FN:9012,9012,_ZNK5Catch5clara6detail11BasicResultINS1_15ParseResultTypeEEcvbEv
FN:9012,9012,_ZNK5Catch5clara6detail11BasicResultIvEcvbEv
FN:9013,9013,_ZNK5Catch5clara6detail11BasicResultINS1_10ParseStateEE4typeEv
FN:9013,9013,_ZNK5Catch5clara6detail11BasicResultINS1_15ParseResultTypeEE4typeEv
FN:9013,9013,_ZNK5Catch5clara6detail11BasicResultIvE4typeEv
FN:9014,9014,_ZNK5Catch5clara6detail11BasicResultINS1_10ParseStateEE12errorMessageB5cxx11Ev
FN:9014,9014,_ZNK5Catch5clara6detail11BasicResultINS1_15ParseResultTypeEE12errorMessageB5cxx11Ev
FN:9014,9014,_ZNK5Catch5clara6detail11BasicResultIvE12errorMessageB5cxx11Ev
FN:9017,9025,_ZNK5Catch5clara6detail11BasicResultINS1_10ParseStateEE9enforceOkEv
FN:9017,9025,_ZNK5Catch5clara6detail11BasicResultINS1_15ParseResultTypeEE9enforceOkEv
FN:9017,9025,_ZNK5Catch5clara6detail11BasicResultIvE9enforceOkEv
FN:9029,9034,_ZN5Catch5clara6detail11BasicResultINS1_10ParseStateEEC2ENS1_10ResultBase4TypeERKNSt7__cxx1112basic_stringIcSt11char_traitsIcESaIcEEE
FN:9029,9034,_ZN5Catch5clara6detail11BasicResultINS1_15ParseResultTypeEEC2ENS1_10ResultBase4TypeERKNSt7__cxx1112basic_stringIcSt11char_traitsIcESaIcEEE
FN:9029,9034,_ZN5Catch5clara6detail11BasicResultIvEC2ENS1_10ResultBase4TypeERKNSt7__cxx1112basic_stringIcSt11char_traitsIcESaIcEEE
FN:9047,9050,_ZN5Catch5clara6detail10ParseStateC2ENS1_15ParseResultTypeERKNS1_11TokenStreamE
FN:9052,9052,_ZNK5Catch5clara6detail10ParseState4typeEv
FN:9053,9053,_ZNK5Catch5clara6detail10ParseState15remainingTokensEv
FN:9070,9078,_ZN5Catch5clara6detail11convertIntoIdEENS1_11BasicResultINS1_15ParseResultTypeEEERKNSt7__cxx1112basic_stringIcSt11char_traitsIcESaIcEEERT_
FN:9070,9078,_ZN5Catch5clara6detail11convertIntoIiEENS1_11BasicResultINS1_15ParseResultTypeEEERKNSt7__cxx1112basic_stringIcSt11char_traitsIcESaIcEEERT_
FN:9070,9078,_ZN5Catch5clara6detail11convertIntoIjEENS1_11BasicResultINS1_15ParseResultTypeEEERKNSt7__cxx1112basic_stringIcSt11char_traitsIcESaIcEEERT_
FN:9070,9078,_ZN5Catch5clara6detail11convertIntoIlEENS1_11BasicResultINS1_15ParseResultTypeEEERKNSt7__cxx1112basic_stringIcSt11char_traitsIcESaIcEEERT_
FN:9079,9082,_ZN5Catch5clara6detail11convertIntoERKNSt7__cxx1112basic_stringIcSt11char_traitsIcESaIcEEERS7_
FN:9083,9093,_ZN5Catch5clara6detail11convertIntoERKNSt7__cxx1112basic_stringIcSt11char_traitsIcESaIcEEERb
FN:9085,9085,_ZZN5Catch5clara6detail11convertIntoERKNSt7__cxx1112basic_stringIcSt11char_traitsIcESaIcEEERbENKUlhE_clEh
FN:9114,9114,_ZN5Catch5clara6detail8BoundRefD0Ev
FN:9114,9114,_ZN5Catch5clara6detail8BoundRefD2Ev
FN:9115,9115,_ZNK5Catch5clara6detail8BoundRef11isContainerEv
FN:9116,9116,_ZNK5Catch5clara6detail8BoundRef6isFlagEv
FN:9123,9123,_ZNK5Catch5clara6detail16BoundFlagRefBase6isFlagEv
FN:9130,9130,_ZN5Catch5clara6detail13BoundValueRefINSt7__cxx1112basic_stringIcSt11char_traitsIcESaIcEEEEC2ERS8_
FN:9130,9130,_ZN5Catch5clara6detail13BoundValueRefIdEC2ERd
FN:9130,9130,_ZN5Catch5clara6detail13BoundValueRefIjEC2ERj
FN:9130,9130,_ZN5Catch5clara6detail13BoundValueRefIlEC2ERl
FN:9132,9134,_ZN5Catch5clara6detail13BoundValueRefINSt7__cxx1112basic_stringIcSt11char_traitsIcESaIcEEEE8setValueERKS8_
FN:9132,9134,_ZN5Catch5clara6detail13BoundValueRefIdE8setValueERKNSt7__cxx1112basic_stringIcSt11char_traitsIcESaIcEEE
FN:9132,9134,_ZN5Catch5clara6detail13BoundValueRefIjE8setValueERKNSt7__cxx1112basic_stringIcSt11char_traitsIcESaIcEEE
FN:9132,9134,_ZN5Catch5clara6detail13BoundValueRefIlE8setValueERKNSt7__cxx1112basic_stringIcSt11char_traitsIcESaIcEEE
FN:9141,9141,_ZN5Catch5clara6detail13BoundValueRefISt6vectorINSt7__cxx1112basic_stringIcSt11char_traitsIcESaIcEEESaIS9_EEEC2ERSB_
FN:9143,9143,_ZNK5Catch5clara6detail13BoundValueRefISt6vectorINSt7__cxx1112basic_stringIcSt11char_traitsIcESaIcEEESaIS9_EEE11isContainerEv
FN:9145,9151,_ZN5Catch5clara6detail13BoundValueRefISt6vectorINSt7__cxx1112basic_stringIcSt11char_traitsIcESaIcEEESaIS9_EEE8setValueERKS9_
FN:9157,9157,_ZN5Catch5clara6detail12BoundFlagRefC2ERb
FN:9159,9162,_ZN5Catch5clara6detail12BoundFlagRef7setFlagEb
FN:9170,9172,_ZN5Catch5clara6detail13LambdaInvokerINS1_11BasicResultINS1_15ParseResultTypeEEEE6invokeIZNS1_4HelpC4ERbEUlbE_bEES5_RKT_RKT0_
FN:9170,9172,_ZN5Catch5clara6detail13LambdaInvokerINS1_11BasicResultINS1_15ParseResultTypeEEEE6invokeIZNS_21makeCommandLineParserERNS_10ConfigDataEEUlRKNSt7__cxx1112basic_stringIcSt11char_traitsIcESaIcEEEE0_SF_EES5_RKT_RKT0_
FN:9170,9172,_ZN5Catch5clara6detail13LambdaInvokerINS1_11BasicResultINS1_15ParseResultTypeEEEE6invokeIZNS_21makeCommandLineParserERNS_10ConfigDataEEUlRKNSt7__cxx1112basic_stringIcSt11char_traitsIcESaIcEEEE1_SF_EES5_RKT_RKT0_
FN:9170,9172,_ZN5Catch5clara6detail13LambdaInvokerINS1_11BasicResultINS1_15ParseResultTypeEEEE6invokeIZNS_21makeCommandLineParserERNS_10ConfigDataEEUlRKNSt7__cxx1112basic_stringIcSt11char_traitsIcESaIcEEEE2_SF_EES5_RKT_RKT0_
FN:9170,9172,_ZN5Catch5clara6detail13LambdaInvokerINS1_11BasicResultINS1_15ParseResultTypeEEEE6invokeIZNS_21makeCommandLineParserERNS_10ConfigDataEEUlRKNSt7__cxx1112basic_stringIcSt11char_traitsIcESaIcEEEE3_SF_EES5_RKT_RKT0_
FN:9170,9172,_ZN5Catch5clara6detail13LambdaInvokerINS1_11BasicResultINS1_15ParseResultTypeEEEE6invokeIZNS_21makeCommandLineParserERNS_10ConfigDataEEUlRKNSt7__cxx1112basic_stringIcSt11char_traitsIcESaIcEEEE4_SF_EES5_RKT_RKT0_
FN:9170,9172,_ZN5Catch5clara6detail13LambdaInvokerINS1_11BasicResultINS1_15ParseResultTypeEEEE6invokeIZNS_21makeCommandLineParserERNS_10ConfigDataEEUlRKNSt7__cxx1112basic_stringIcSt11char_traitsIcESaIcEEEE5_SF_EES5_RKT_RKT0_
FN:9170,9172,_ZN5Catch5clara6detail13LambdaInvokerINS1_11BasicResultINS1_15ParseResultTypeEEEE6invokeIZNS_21makeCommandLineParserERNS_10ConfigDataEEUlRKNSt7__cxx1112basic_stringIcSt11char_traitsIcESaIcEEEE6_SF_EES5_RKT_RKT0_
FN:9170,9172,_ZN5Catch5clara6detail13LambdaInvokerINS1_11BasicResultINS1_15ParseResultTypeEEEE6invokeIZNS_21makeCommandLineParserERNS_10ConfigDataEEUlRKNSt7__cxx1112basic_stringIcSt11char_traitsIcESaIcEEEE_SF_EES5_RKT_RKT0_
FN:9178,9181,_ZN5Catch5clara6detail13LambdaInvokerIvE6invokeIZNS_21makeCommandLineParserERNS_10ConfigDataEEUlbE7_bEENS1_11BasicResultINS1_15ParseResultTypeEEERKT_RKT0_
FN:9178,9181,_ZN5Catch5clara6detail13LambdaInvokerIvE6invokeIZNS_21makeCommandLineParserERNS_10ConfigDataEEUlbE9_bEENS1_11BasicResultINS1_15ParseResultTypeEEERKT_RKT0_
FN:9178,9181,_ZN5Catch5clara6detail13LambdaInvokerIvE6invokeIZNS_21makeCommandLineParserERNS_10ConfigDataEEUliE8_iEENS1_11BasicResultINS1_15ParseResultTypeEEERKT_RKT0_
FN:9185,9191,_ZN5Catch5clara6detail12invokeLambdaINSt7__cxx1112basic_stringIcSt11char_traitsIcESaIcEEEZNS_21makeCommandLineParserERNS_10ConfigDataEEUlRKS8_E0_EENS1_11BasicResultINS1_15ParseResultTypeEEERKT0_SC_
FN:9185,9191,_ZN5Catch5clara6detail12invokeLambdaINSt7__cxx1112basic_stringIcSt11char_traitsIcESaIcEEEZNS_21makeCommandLineParserERNS_10ConfigDataEEUlRKS8_E1_EENS1_11BasicResultINS1_15ParseResultTypeEEERKT0_SC_
FN:9185,9191,_ZN5Catch5clara6detail12invokeLambdaINSt7__cxx1112basic_stringIcSt11char_traitsIcESaIcEEEZNS_21makeCommandLineParserERNS_10ConfigDataEEUlRKS8_E2_EENS1_11BasicResultINS1_15ParseResultTypeEEERKT0_SC_
FN:9185,9191,_ZN5Catch5clara6detail12invokeLambdaINSt7__cxx1112basic_stringIcSt11char_traitsIcESaIcEEEZNS_21makeCommandLineParserERNS_10ConfigDataEEUlRKS8_E3_EENS1_11BasicResultINS1_15ParseResultTypeEEERKT0_SC_
FN:9185,9191,_ZN5Catch5clara6detail12invokeLambdaINSt7__cxx1112basic_stringIcSt11char_traitsIcESaIcEEEZNS_21makeCommandLineParserERNS_10ConfigDataEEUlRKS8_E4_EENS1_11BasicResultINS1_15ParseResultTypeEEERKT0_SC_
FN:9185,9191,_ZN5Catch5clara6detail12invokeLambdaINSt7__cxx1112basic_stringIcSt11char_traitsIcESaIcEEEZNS_21makeCommandLineParserERNS_10ConfigDataEEUlRKS8_E5_EENS1_11BasicResultINS1_15ParseResultTypeEEERKT0_SC_
FN:9185,9191,_ZN5Catch5clara6detail12invokeLambdaINSt7__cxx1112basic_stringIcSt11char_traitsIcESaIcEEEZNS_21makeCommandLineParserERNS_10ConfigDataEEUlRKS8_E6_EENS1_11BasicResultINS1_15ParseResultTypeEEERKT0_SC_
FN:9185,9191,_ZN5Catch5clara6detail12invokeLambdaINSt7__cxx1112basic_stringIcSt11char_traitsIcESaIcEEEZNS_21makeCommandLineParserERNS_10ConfigDataEEUlRKS8_E_EENS1_11BasicResultINS1_15ParseResultTypeEEERKT0_SC_
FN:9185,9191,_ZN5Catch5clara6detail12invokeLambdaIbZNS_21makeCommandLineParserERNS_10ConfigDataEEUlbE9_EENS1_11BasicResultINS1_15ParseResultTypeEEERKT0_RKNSt7__cxx1112basic_stringIcSt11char_traitsIcESaIcEEE
FN:9185,9191,_ZN5Catch5clara6detail12invokeLambdaIiZNS_21makeCommandLineParserERNS_10ConfigDataEEUliE8_EENS1_11BasicResultINS1_15ParseResultTypeEEERKT0_RKNSt7__cxx1112basic_stringIcSt11char_traitsIcESaIcEEE
FN:9198,9198,_ZN5Catch5clara6detail11BoundLambdaIZNS_21makeCommandLineParserERNS_10ConfigDataEEUlRKNSt7__cxx1112basic_stringIcSt11char_traitsIcESaIcEEEE0_EC2ERKSD_
FN:9198,9198,_ZN5Catch5clara6detail11BoundLambdaIZNS_21makeCommandLineParserERNS_10ConfigDataEEUlRKNSt7__cxx1112basic_stringIcSt11char_traitsIcESaIcEEEE1_EC2ERKSD_
FN:9198,9198,_ZN5Catch5clara6detail11BoundLambdaIZNS_21makeCommandLineParserERNS_10ConfigDataEEUlRKNSt7__cxx1112basic_stringIcSt11char_traitsIcESaIcEEEE2_EC2ERKSD_
FN:9198,9198,_ZN5Catch5clara6detail11BoundLambdaIZNS_21makeCommandLineParserERNS_10ConfigDataEEUlRKNSt7__cxx1112basic_stringIcSt11char_traitsIcESaIcEEEE3_EC2ERKSD_
FN:9198,9198,_ZN5Catch5clara6detail11BoundLambdaIZNS_21makeCommandLineParserERNS_10ConfigDataEEUlRKNSt7__cxx1112basic_stringIcSt11char_traitsIcESaIcEEEE4_EC2ERKSD_
FN:9198,9198,_ZN5Catch5clara6detail11BoundLambdaIZNS_21makeCommandLineParserERNS_10ConfigDataEEUlRKNSt7__cxx1112basic_stringIcSt11char_traitsIcESaIcEEEE5_EC2ERKSD_
FN:9198,9198,_ZN5Catch5clara6detail11BoundLambdaIZNS_21makeCommandLineParserERNS_10ConfigDataEEUlRKNSt7__cxx1112basic_stringIcSt11char_traitsIcESaIcEEEE6_EC2ERKSD_
FN:9198,9198,_ZN5Catch5clara6detail11BoundLambdaIZNS_21makeCommandLineParserERNS_10ConfigDataEEUlRKNSt7__cxx1112basic_stringIcSt11char_traitsIcESaIcEEEE_EC2ERKSD_
FN:9198,9198,_ZN5Catch5clara6detail11BoundLambdaIZNS_21makeCommandLineParserERNS_10ConfigDataEEUlbE9_EC2ERKS5_
FN:9198,9198,_ZN5Catch5clara6detail11BoundLambdaIZNS_21makeCommandLineParserERNS_10ConfigDataEEUliE8_EC2ERKS5_
FN:9200,9202,_ZN5Catch5clara6detail11BoundLambdaIZNS_21makeCommandLineParserERNS_10ConfigDataEEUlRKNSt7__cxx1112basic_stringIcSt11char_traitsIcESaIcEEEE0_E8setValueESC_
FN:9200,9202,_ZN5Catch5clara6detail11BoundLambdaIZNS_21makeCommandLineParserERNS_10ConfigDataEEUlRKNSt7__cxx1112basic_stringIcSt11char_traitsIcESaIcEEEE1_E8setValueESC_
FN:9200,9202,_ZN5Catch5clara6detail11BoundLambdaIZNS_21makeCommandLineParserERNS_10ConfigDataEEUlRKNSt7__cxx1112basic_stringIcSt11char_traitsIcESaIcEEEE2_E8setValueESC_
FN:9200,9202,_ZN5Catch5clara6detail11BoundLambdaIZNS_21makeCommandLineParserERNS_10ConfigDataEEUlRKNSt7__cxx1112basic_stringIcSt11char_traitsIcESaIcEEEE3_E8setValueESC_
FN:9200,9202,_ZN5Catch5clara6detail11BoundLambdaIZNS_21makeCommandLineParserERNS_10ConfigDataEEUlRKNSt7__cxx1112basic_stringIcSt11char_traitsIcESaIcEEEE4_E8setValueESC_
FN:9200,9202,_ZN5Catch5clara6detail11BoundLambdaIZNS_21makeCommandLineParserERNS_10ConfigDataEEUlRKNSt7__cxx1112basic_stringIcSt11char_traitsIcESaIcEEEE5_E8setValueESC_
FN:9200,9202,_ZN5Catch5clara6detail11BoundLambdaIZNS_21makeCommandLineParserERNS_10ConfigDataEEUlRKNSt7__cxx1112basic_stringIcSt11char_traitsIcESaIcEEEE6_E8setValueESC_
FN:9200,9202,_ZN5Catch5clara6detail11BoundLambdaIZNS_21makeCommandLineParserERNS_10ConfigDataEEUlRKNSt7__cxx1112basic_stringIcSt11char_traitsIcESaIcEEEE_E8setValueESC_
FN:9200,9202,_ZN5Catch5clara6detail11BoundLambdaIZNS_21makeCommandLineParserERNS_10ConfigDataEEUlbE9_E8setValueERKNSt7__cxx1112basic_stringIcSt11char_traitsIcESaIcEEE
FN:9200,9202,_ZN5Catch5clara6detail11BoundLambdaIZNS_21makeCommandLineParserERNS_10ConfigDataEEUliE8_E8setValueERKNSt7__cxx1112basic_stringIcSt11char_traitsIcESaIcEEE
FN:9212,9212,_ZN5Catch5clara6detail15BoundFlagLambdaIZNS1_4HelpC4ERbEUlbE_EC2ERKS5_
FN:9212,9212,_ZN5Catch5clara6detail15BoundFlagLambdaIZNS_21makeCommandLineParserERNS_10ConfigDataEEUlbE7_EC2ERKS5_
FN:9214,9216,_ZN5Catch5clara6detail15BoundFlagLambdaIZNS1_4HelpC4ERbEUlbE_E7setFlagEb
FN:9214,9216,_ZN5Catch5clara6detail15BoundFlagLambdaIZNS_21makeCommandLineParserERNS_10ConfigDataEEUlbE7_E7setFlagEb
FN:9225,9225,_ZN5Catch5clara6detail10ParserBaseD0Ev
FN:9225,9225,_ZN5Catch5clara6detail10ParserBaseD2Ev
FN:9226,9226,_ZNK5Catch5clara6detail10ParserBase8validateEv
FN:9228,9228,_ZNK5Catch5clara6detail10ParserBase11cardinalityEv
FN:9230,9232,_ZNK5Catch5clara6detail10ParserBase5parseERKNS1_4ArgsE
FN:9254,9254,_ZN5Catch5clara6detail13ParserRefImplINS1_3OptEEC2ERKSt10shared_ptrINS1_8BoundRefEE
FN:9258,9261,_ZN5Catch5clara6detail13ParserRefImplINS1_3ArgEEC2ISt6vectorINSt7__cxx1112basic_stringIcSt11char_traitsIcESaIcEEESaISC_EEEERT_RKSC_
FN:9258,9261,_ZN5Catch5clara6detail13ParserRefImplINS1_3OptEEC2INSt7__cxx1112basic_stringIcSt11char_traitsIcESaIcEEEEERT_RKSB_
FN:9258,9261,_ZN5Catch5clara6detail13ParserRefImplINS1_3OptEEC2ISt6vectorINSt7__cxx1112basic_stringIcSt11char_traitsIcESaIcEEESaISC_EEEERT_RKSC_
FN:9258,9261,_ZN5Catch5clara6detail13ParserRefImplINS1_3OptEEC2IdEERT_RKNSt7__cxx1112basic_stringIcSt11char_traitsIcESaIcEEE
FN:9258,9261,_ZN5Catch5clara6detail13ParserRefImplINS1_3OptEEC2IjEERT_RKNSt7__cxx1112basic_stringIcSt11char_traitsIcESaIcEEE
FN:9258,9261,_ZN5Catch5clara6detail13ParserRefImplINS1_3OptEEC2IlEERT_RKNSt7__cxx1112basic_stringIcSt11char_traitsIcESaIcEEE
FN:9264,9267,_ZN5Catch5clara6detail13ParserRefImplINS1_3OptEEC2IZNS_21makeCommandLineParserERNS_10ConfigDataEEUlRKNSt7__cxx1112basic_stringIcSt11char_traitsIcESaIcEEEE0_EERKT_SF_
FN:9264,9267,_ZN5Catch5clara6detail13ParserRefImplINS1_3OptEEC2IZNS_21makeCommandLineParserERNS_10ConfigDataEEUlRKNSt7__cxx1112basic_stringIcSt11char_traitsIcESaIcEEEE1_EERKT_SF_
FN:9264,9267,_ZN5Catch5clara6detail13ParserRefImplINS1_3OptEEC2IZNS_21makeCommandLineParserERNS_10ConfigDataEEUlRKNSt7__cxx1112basic_stringIcSt11char_traitsIcESaIcEEEE2_EERKT_SF_
FN:9264,9267,_ZN5Catch5clara6detail13ParserRefImplINS1_3OptEEC2IZNS_21makeCommandLineParserERNS_10ConfigDataEEUlRKNSt7__cxx1112basic_stringIcSt11char_traitsIcESaIcEEEE3_EERKT_SF_
FN:9264,9267,_ZN5Catch5clara6detail13ParserRefImplINS1_3OptEEC2IZNS_21makeCommandLineParserERNS_10ConfigDataEEUlRKNSt7__cxx1112basic_stringIcSt11char_traitsIcESaIcEEEE4_EERKT_SF_
FN:9264,9267,_ZN5Catch5clara6detail13ParserRefImplINS1_3OptEEC2IZNS_21makeCommandLineParserERNS_10ConfigDataEEUlRKNSt7__cxx1112basic_stringIcSt11char_traitsIcESaIcEEEE5_EERKT_SF_
FN:9264,9267,_ZN5Catch5clara6detail13ParserRefImplINS1_3OptEEC2IZNS_21makeCommandLineParserERNS_10ConfigDataEEUlRKNSt7__cxx1112basic_stringIcSt11char_traitsIcESaIcEEEE6_EERKT_SF_
FN:9264,9267,_ZN5Catch5clara6detail13ParserRefImplINS1_3OptEEC2IZNS_21makeCommandLineParserERNS_10ConfigDataEEUlRKNSt7__cxx1112basic_stringIcSt11char_traitsIcESaIcEEEE_EERKT_SF_
FN:9264,9267,_ZN5Catch5clara6detail13ParserRefImplINS1_3OptEEC2IZNS_21makeCommandLineParserERNS_10ConfigDataEEUlbE9_EERKT_RKNSt7__cxx1112basic_stringIcSt11char_traitsIcESaIcEEE
FN:9264,9267,_ZN5Catch5clara6detail13ParserRefImplINS1_3OptEEC2IZNS_21makeCommandLineParserERNS_10ConfigDataEEUliE8_EERKT_RKNSt7__cxx1112basic_stringIcSt11char_traitsIcESaIcEEE
FN:9269,9272,_ZN5Catch5clara6detail13ParserRefImplINS1_3ArgEEclERKNSt7__cxx1112basic_stringIcSt11char_traitsIcESaIcEEE
FN:9269,9272,_ZN5Catch5clara6detail13ParserRefImplINS1_3OptEEclERKNSt7__cxx1112basic_stringIcSt11char_traitsIcESaIcEEE
FN:9274,9277,_ZN5Catch5clara6detail13ParserRefImplINS1_3OptEE8optionalEv
FN:9284,9286,_ZNK5Catch5clara6detail13ParserRefImplINS1_3ArgEE10isOptionalEv
FN:9288,9293,_ZNK5Catch5clara6detail13ParserRefImplINS1_3ArgEE11cardinalityEv
FN:9288,9293,_ZNK5Catch5clara6detail13ParserRefImplINS1_3OptEE11cardinalityEv
FN:9295,9295,_ZNK5Catch5clara6detail13ParserRefImplINS1_3ArgEE4hintB5cxx11Ev
FN:9308,9308,_ZN5Catch5clara6detail7ExeNameC2Ev
FN:9310,9312,_ZN5Catch5clara6detail7ExeNameC2ERNSt7__cxx1112basic_stringIcSt11char_traitsIcESaIcEEE
FN:9320,9322,_ZNK5Catch5clara6detail7ExeName5parseERKNSt7__cxx1112basic_stringIcSt11char_traitsIcESaIcEEERKNS1_11TokenStreamE
FN:9324,9324,_ZNK5Catch5clara6detail7ExeName4nameB5cxx11Ev
FN:9325,9337,_ZN5Catch5clara6detail7ExeName3setERKNSt7__cxx1112basic_stringIcSt11char_traitsIcESaIcEEE
FN:9344,9362,_ZNK5Catch5clara6detail3Arg5parseERKNSt7__cxx1112basic_stringIcSt11char_traitsIcESaIcEEERKNS1_11TokenStreamE
FN:9365,9372,_ZN5Catch5clara6detail12normaliseOptERKNSt7__cxx1112basic_stringIcSt11char_traitsIcESaIcEEE
FN:9380,9380,_ZN5Catch5clara6detail3OptC2IZNS1_4HelpC4ERbEUlbE_EERKT_
FN:9380,9380,_ZN5Catch5clara6detail3OptC2IZNS_21makeCommandLineParserERNS_10ConfigDataEEUlbE7_EERKT_
FN:9382,9382,_ZN5Catch5clara6detail3OptC2ERb
FN:9385,9385,_ZN5Catch5clara6detail3OptC2IZNS_21makeCommandLineParserERNS_10ConfigDataEEUlRKNSt7__cxx1112basic_stringIcSt11char_traitsIcESaIcEEEE0_EERKT_SD_
FN:9385,9385,_ZN5Catch5clara6detail3OptC2IZNS_21makeCommandLineParserERNS_10ConfigDataEEUlRKNSt7__cxx1112basic_stringIcSt11char_traitsIcESaIcEEEE1_EERKT_SD_
FN:9385,9385,_ZN5Catch5clara6detail3OptC2IZNS_21makeCommandLineParserERNS_10ConfigDataEEUlRKNSt7__cxx1112basic_stringIcSt11char_traitsIcESaIcEEEE2_EERKT_SD_
FN:9385,9385,_ZN5Catch5clara6detail3OptC2IZNS_21makeCommandLineParserERNS_10ConfigDataEEUlRKNSt7__cxx1112basic_stringIcSt11char_traitsIcESaIcEEEE3_EERKT_SD_
FN:9385,9385,_ZN5Catch5clara6detail3OptC2IZNS_21makeCommandLineParserERNS_10ConfigDataEEUlRKNSt7__cxx1112basic_stringIcSt11char_traitsIcESaIcEEEE4_EERKT_SD_
FN:9385,9385,_ZN5Catch5clara6detail3OptC2IZNS_21makeCommandLineParserERNS_10ConfigDataEEUlRKNSt7__cxx1112basic_stringIcSt11char_traitsIcESaIcEEEE5_EERKT_SD_
FN:9385,9385,_ZN5Catch5clara6detail3OptC2IZNS_21makeCommandLineParserERNS_10ConfigDataEEUlRKNSt7__cxx1112basic_stringIcSt11char_traitsIcESaIcEEEE6_EERKT_SD_
FN:9385,9385,_ZN5Catch5clara6detail3OptC2IZNS_21makeCommandLineParserERNS_10ConfigDataEEUlRKNSt7__cxx1112basic_stringIcSt11char_traitsIcESaIcEEEE_EERKT_SD_
FN:9385,9385,_ZN5Catch5clara6detail3OptC2IZNS_21makeCommandLineParserERNS_10ConfigDataEEUlbE9_EERKT_RKNSt7__cxx1112basic_stringIcSt11char_traitsIcESaIcEEE
FN:9385,9385,_ZN5Catch5clara6detail3OptC2IZNS_21makeCommandLineParserERNS_10ConfigDataEEUliE8_EERKT_RKNSt7__cxx1112basic_stringIcSt11char_traitsIcESaIcEEE
FN:9388,9388,_ZN5Catch5clara6detail3OptC2INSt7__cxx1112basic_stringIcSt11char_traitsIcESaIcEEEEERT_RKS9_
FN:9388,9388,_ZN5Catch5clara6detail3OptC2ISt6vectorINSt7__cxx1112basic_stringIcSt11char_traitsIcESaIcEEESaISA_EEEERT_RKSA_
FN:9388,9388,_ZN5Catch5clara6detail3OptC2IdEERT_RKNSt7__cxx1112basic_stringIcSt11char_traitsIcESaIcEEE
FN:9388,9388,_ZN5Catch5clara6detail3OptC2IjEERT_RKNSt7__cxx1112basic_stringIcSt11char_traitsIcESaIcEEE
FN:9388,9388,_ZN5Catch5clara6detail3OptC2IlEERT_RKNSt7__cxx1112basic_stringIcSt11char_traitsIcESaIcEEE
FN:9390,9393,_ZN5Catch5clara6detail3OptixERKNSt7__cxx1112basic_stringIcSt11char_traitsIcESaIcEEE
FN:9395,9408,_ZNK5Catch5clara6detail3Opt14getHelpColumnsEv
FN:9410,9417,_ZNK5Catch5clara6detail3Opt7isMatchERKNSt7__cxx1112basic_stringIcSt11char_traitsIcESaIcEEE
FN:9421,9455,_ZNK5Catch5clara6detail3Opt5parseERKNSt7__cxx1112basic_stringIcSt11char_traitsIcESaIcEEERKNS1_11TokenStreamE
FN:9457,9472,_ZNK5Catch5clara6detail3Opt8validateEv
FN:9476,9486,_ZN5Catch5clara6detail4HelpC2ERb
FN:9477,9480,_ZZN5Catch5clara6detail4HelpC4ERbENKUlbE_clEb
FN:9495,9498,_ZN5Catch5clara6detail6ParseroRERKNS1_7ExeNameE
FN:9500,9503,_ZN5Catch5clara6detail6ParseroRERKNS1_3ArgE
FN:9505,9508,_ZN5Catch5clara6detail6ParseroRERKNS1_3OptE
FN:9517,9519,_ZNK5Catch5clara6detail6ParserorINS1_3ArgEEES2_RKT_
FN:9517,9519,_ZNK5Catch5clara6detail6ParserorINS1_3OptEEES2_RKT_
FN:9517,9519,_ZNK5Catch5clara6detail6ParserorINS1_4HelpEEES2_RKT_
FN:9517,9519,_ZNK5Catch5clara6detail6ParserorINS1_7ExeNameEEES2_RKT_
FN:9527,9534,_ZNK5Catch5clara6detail6Parser14getHelpColumnsEv
FN:9536,9575,_ZNK5Catch5clara6detail6Parser13writeToStreamERSo
FN:9577,9580,_ZN5Catch5clara6detaillsERSoRKNS1_6ParserE
FN:9582,9594,_ZNK5Catch5clara6detail6Parser8validateEv
FN:9598,9642,_ZNK5Catch5clara6detail6Parser5parseERKNSt7__cxx1112basic_stringIcSt11char_traitsIcESaIcEEERKNS1_11TokenStreamE
FN:9647,9649,_ZNK5Catch5clara6detail20ComposableParserImplINS1_7ExeNameEEorINS1_4HelpEEENS1_6ParserERKT_
FN:9702,9909,_ZN5Catch21makeCommandLineParserERNS_10ConfigDataE
FN:9706,9721,_ZZN5Catch21makeCommandLineParserERNS_10ConfigDataEENKUlRKNSt7__cxx1112basic_stringIcSt11char_traitsIcESaIcEEEE_clES9_
FN:9707,9715,_ZZZN5Catch21makeCommandLineParserERNS_10ConfigDataEENKUlRKNSt7__cxx1112basic_stringIcSt11char_traitsIcESaIcEEEE_clES9_ENKUlvE_clEv
FN:9722,9742,_ZZN5Catch21makeCommandLineParserERNS_10ConfigDataEENKUlRKNSt7__cxx1112basic_stringIcSt11char_traitsIcESaIcEEEE0_clES9_
FN:9743,9753,_ZZN5Catch21makeCommandLineParserERNS_10ConfigDataEENKUlRKNSt7__cxx1112basic_stringIcSt11char_traitsIcESaIcEEEE1_clES9_
FN:9754,9759,_ZZN5Catch21makeCommandLineParserERNS_10ConfigDataEENKUlRKNSt7__cxx1112basic_stringIcSt11char_traitsIcESaIcEEEE2_clES9_
FN:9760,9772,_ZZN5Catch21makeCommandLineParserERNS_10ConfigDataEENKUlRKNSt7__cxx1112basic_stringIcSt11char_traitsIcESaIcEEEE3_clES9_
FN:9773,9786,_ZZN5Catch21makeCommandLineParserERNS_10ConfigDataEENKUlRKNSt7__cxx1112basic_stringIcSt11char_traitsIcESaIcEEEE4_clES9_
FN:9787,9798,_ZZN5Catch21makeCommandLineParserERNS_10ConfigDataEENKUlRKNSt7__cxx1112basic_stringIcSt11char_traitsIcESaIcEEEE5_clES9_
FN:9799,9810,_ZZN5Catch21makeCommandLineParserERNS_10ConfigDataEENKUlRKNSt7__cxx1112basic_stringIcSt11char_traitsIcESaIcEEEE6_clES9_
FN:9842,9842,_ZZN5Catch21makeCommandLineParserERNS_10ConfigDataEENKUlbE7_clEb
FN:9845,9845,_ZZN5Catch21makeCommandLineParserERNS_10ConfigDataEENKUliE8_clEi
FN:9851,9851,_ZZN5Catch21makeCommandLineParserERNS_10ConfigDataEENKUlbE9_clEb
FN:9920,9922,_ZNK5Catch14SourceLineInfoeqERKS0_
FN:9923,9927,_ZNK5Catch14SourceLineInfoltERKS0_
FN:9929,9936,_ZN5CatchlsERSoRKNS_14SourceLineInfoE
FN:9938,9940,_ZNK5Catch13StreamEndStoppsB5cxx11Ev
FN:9942,9942,_ZN5Catch11NonCopyableC2Ev
FN:9943,9943,_ZN5Catch11NonCopyableD0Ev
FN:9943,9943,_ZN5Catch11NonCopyableD2Ev
FN:9951,9974,_ZN5Catch6ConfigC2ERKNS_10ConfigDataE
FN:9976,9978,_ZNK5Catch6Config11getFilenameB5cxx11Ev
FN:9980,9980,_ZNK5Catch6Config9listTestsEv
FN:9981,9981,_ZNK5Catch6Config17listTestNamesOnlyEv
FN:9982,9982,_ZNK5Catch6Config8listTagsEv
FN:9983,9983,_ZNK5Catch6Config13listReportersEv
FN:9985,9985,_ZNK5Catch6Config14getProcessNameB5cxx11Ev
FN:9986,9986,_ZNK5Catch6Config15getReporterNameB5cxx11Ev
FN:9988,9988,_ZNK5Catch6Config14getTestsOrTagsB5cxx11Ev
FN:9989,9989,_ZNK5Catch6Config16getSectionsToRunB5cxx11Ev
FN:9991,9991,_ZNK5Catch6Config8testSpecEv
FN:9992,9992,_ZNK5Catch6Config14hasTestFiltersEv
FN:9994,9994,_ZNK5Catch6Config8showHelpEv
FN:9997,9997,_ZNK5Catch6Config11allowThrowsEv
FN:9998,9998,_ZNK5Catch6Config6streamEv
FN:9999,9999,_ZNK5Catch6Config4nameB5cxx11Ev
FNDA:15,_ZNK5Catch6Config24includeSuccessfulResultsEv
FNDA:0,_ZNK5Catch6Config26warnAboutMissingAssertionsEv
FNDA:1,_ZNK5Catch6Config16warnAboutNoTestsEv
FNDA:340,_ZNK5Catch6Config13showDurationsEv
FNDA:170,_ZNK5Catch6Config11minDurationEv
FNDA:3,_ZNK5Catch6Config8runOrderEv
FNDA:86,_ZNK5Catch6Config7rngSeedEv
FNDA:1,_ZNK5Catch6Config9useColourEv
FNDA:0,_ZNK5Catch6Config16shouldDebugBreakEv
FNDA:95,_ZNK5Catch6Config10abortAfterEv
FNDA:0,_ZNK5Catch6Config14showInvisiblesEv
FNDA:1,_ZNK5Catch6Config9verbosityEv
FNDA:1,_ZNK5Catch6Config19benchmarkNoAnalysisEv
FNDA:0,_ZNK5Catch6Config16benchmarkSamplesEv
FNDA:0,_ZNK5Catch6Config27benchmarkConfidenceIntervalEv
FNDA:0,_ZNK5Catch6Config18benchmarkResamplesEv
FNDA:0,_ZNK5Catch6Config19benchmarkWarmupTimeEv
FNDA:1,_ZN5Catch6Config10openStreamEv
FNDA:1,_ZN5Catch12_GLOBAL__N_111IColourImplD2Ev
FNDA:8,_ZN5Catch12_GLOBAL__N_112NoColourImpl3useENS_6Colour4CodeE
FNDA:1,_ZN5Catch12_GLOBAL__N_112NoColourImpl8instanceEv
FNDA:0,_ZN5Catch12_GLOBAL__N_115PosixColourImpl3useENS_6Colour4CodeE
FNDA:0,_ZN5Catch12_GLOBAL__N_115PosixColourImpl8instanceEv
FNDA:0,_ZN5Catch12_GLOBAL__N_115PosixColourImpl9setColourEPKc
FNDA:1,_ZN5Catch12_GLOBAL__N_119useColourOnPlatformEv
FNDA:1,_ZN5Catch12_GLOBAL__N_122platformColourInstanceEv
FNDA:4,_ZN5Catch6ColourC2ENS0_4CodeE
FNDA:0,_ZN5Catch6ColourC2EOS0_
FNDA:0,_ZN5Catch6ColouraSEOS0_
FNDA:4,_ZN5Catch6ColourD2Ev
FNDA:8,_ZN5Catch6Colour3useENS0_4CodeE
FNDA:4,_ZN5CatchlsERSoRKNS_6ColourE
FNDA:1436,_ZN5Catch7Context16getResultCaptureEv
FNDA:0,_ZN5Catch7Context9getRunnerEv
FNDA:15,_ZNK5Catch7Context9getConfigEv
FNDA:1,_ZN5Catch7Context16setResultCaptureEPNS_14IResultCaptureE
FNDA:1,_ZN5Catch7Context9setRunnerEPNS_7IRunnerE
FNDA:2,_ZN5Catch7Context9setConfigERKSt10shared_ptrIKNS_7IConfigEE
FNDA:1,_ZN5Catch15IMutableContext13createContextEv
FNDA:2,_ZN5Catch14cleanUpContextEv
FNDA:0,_ZN5Catch8IContextD0Ev
FNDA:1,_ZN5Catch8IContextD2Ev
FNDA:0,_ZN5Catch15IMutableContextD0Ev
FNDA:1,_ZN5Catch15IMutableContextD2Ev
FNDA:1,_ZN5Catch7ContextD0Ev
FNDA:1,_ZN5Catch7ContextD2Ev
FNDA:0,_ZN5Catch3rngEv
FNDA:0,_ZN5Catch19writeToDebugConsoleERKNSt7__cxx1112basic_stringIcSt11char_traitsIcESaIcEEE
FNDA:0,_ZN5Catch16isDebuggerActiveEv
FNDA:0,_ZN5Catch20ITransientExpressionD0Ev
FNDA:76,_ZN5Catch20ITransientExpressionD2Ev
FNDA:0,_ZN5Catch29formatReconstructedExpressionERSoRKNSt7__cxx1112basic_stringIcSt11char_traitsIcESaIcEEENS_9StringRefES8_
FNDA:0,_ZN5Catch17throw_logic_errorERKNSt7__cxx1112basic_stringIcSt11char_traitsIcESaIcEEE
FNDA:0,_ZN5Catch18throw_domain_errorERKNSt7__cxx1112basic_stringIcSt11char_traitsIcESaIcEEE
FNDA:0,_ZN5Catch19throw_runtime_errorERKNSt7__cxx1112basic_stringIcSt11char_traitsIcESaIcEEE
FNDA:0,_ZN5Catch26IMutableEnumValuesRegistryD0Ev
FNDA:1,_ZN5Catch26IMutableEnumValuesRegistryD2Ev
FNDA:0,_ZN5Catch6Detail12_GLOBAL__N_119extractInstanceNameENS_9StringRefE
FNDA:0,_ZN5Catch6Detail10parseEnumsENS_9StringRefE
FNDA:0,_ZN5Catch6Detail8EnumInfoD2Ev
FNDA:0,_ZNK5Catch6Detail8EnumInfo6lookupEi
FNDA:0,_ZN5Catch6Detail12makeEnumInfoENS_9StringRefES1_RKSt6vectorIiSaIiEE
FNDA:0,_ZN5Catch6Detail18EnumValuesRegistry12registerEnumENS_9StringRefES2_RKSt6vectorIiSaIiEE
FNDA:1,_ZN5Catch10ErrnoGuardC2Ev
FNDA:1,_ZN5Catch10ErrnoGuardD2Ev
FNDA:0,_ZN5Catch27ExceptionTranslatorRegistryD0Ev
FNDA:1,_ZN5Catch27ExceptionTranslatorRegistryD2Ev
FNDA:0,_ZN5Catch27ExceptionTranslatorRegistry18registerTranslatorEPKNS_20IExceptionTranslatorE
FNDA:0,_ZNK5Catch27ExceptionTranslatorRegistry24translateActiveExceptionB5cxx11Ev
FNDA:0,_ZNK5Catch27ExceptionTranslatorRegistry14tryTranslatorsB5cxx11Ev
FNDA:0,_ZN12_GLOBAL__N_111reportFatalEPKc
FNDA:85,_ZN5CatchL29restorePreviousSignalHandlersEv
FNDA:0,_ZN5CatchL12handleSignalEi
FNDA:1,_ZN5Catch21FatalConditionHandlerC2Ev
FNDA:1,_ZN5Catch21FatalConditionHandlerD2Ev
FNDA:85,_ZN5Catch21FatalConditionHandler15engage_platformEv
FNDA:85,_ZN5Catch21FatalConditionHandler18disengage_platformEv
FNDA:0,_ZN5Catch17IGeneratorTrackerD0Ev
FNDA:0,_ZN5Catch17IGeneratorTrackerD2Ev
FNDA:0,_ZNK5Catch18GeneratorException4whatEv
FNDA:0,_ZN5Catch10Generators20GeneratorUntypedBaseD0Ev
FNDA:0,_ZN5Catch10Generators20GeneratorUntypedBaseD2Ev
FNDA:0,_ZN5Catch10Generators23acquireGeneratorTrackerENS_9StringRefERKNS_14SourceLineInfoE
FNDA:0,_ZN5Catch14IResultCaptureD0Ev
FNDA:1,_ZN5Catch14IResultCaptureD2Ev
FNDA:0,_ZN5Catch7IConfigD0Ev
FNDA:1,_ZN5Catch7IConfigD2Ev
FNDA:0,_ZN5Catch20IExceptionTranslatorD0Ev
FNDA:0,_ZN5Catch20IExceptionTranslatorD2Ev
FNDA:0,_ZN5Catch28IExceptionTranslatorRegistryD0Ev
FNDA:1,_ZN5Catch28IExceptionTranslatorRegistryD2Ev
FNDA:0,_ZN5Catch12IRegistryHubD0Ev
FNDA:1,_ZN5Catch12IRegistryHubD2Ev
FNDA:0,_ZN5Catch19IMutableRegistryHubD0Ev
FNDA:1,_ZN5Catch19IMutableRegistryHubD2Ev
FNDA:1,_ZN5Catch14ReporterConfigC2ERKSt10shared_ptrIKNS_7IConfigEE
FNDA:0,_ZN5Catch14ReporterConfigC2ERKSt10shared_ptrIKNS_7IConfigEERSo
FNDA:2,_ZNK5Catch14ReporterConfig6streamEv
FNDA:2,_ZNK5Catch14ReporterConfig10fullConfigEv
FNDA:1,_ZN5Catch11TestRunInfoC2ERKNSt7__cxx1112basic_stringIcSt11char_traitsIcESaIcEEE
FNDA:2,_ZN5Catch9GroupInfoC2ERKNSt7__cxx1112basic_stringIcSt11char_traitsIcESaIcEEEmm
FNDA:14,_ZN5Catch14AssertionStatsC2ERKNS_15AssertionResultERKSt6vectorINS_11MessageInfoESaIS5_EERKNS_6TotalsE
FNDA:0,_ZN5Catch14AssertionStatsD0Ev
FNDA:14,_ZN5Catch14AssertionStatsD2Ev
FNDA:170,_ZN5Catch12SectionStatsC2ERKNS_11SectionInfoERKNS_6CountsEdb
FNDA:0,_ZN5Catch12SectionStatsD0Ev
FNDA:170,_ZN5Catch12SectionStatsD2Ev
FNDA:8,_ZN5Catch13TestCaseStatsC2ERKNS_12TestCaseInfoERKNS_6TotalsERKNSt7__cxx1112basic_stringIcSt11char_traitsIcESaIcEEESE_b
FNDA:0,_ZN5Catch13TestCaseStatsD0Ev
FNDA:8,_ZN5Catch13TestCaseStatsD2Ev
FNDA:1,_ZN5Catch14TestGroupStatsC2ERKNS_9GroupInfoERKNS_6TotalsEb
FNDA:0,_ZN5Catch14TestGroupStatsC2ERKNS_9GroupInfoE
FNDA:0,_ZN5Catch14TestGroupStatsD0Ev
FNDA:1,_ZN5Catch14TestGroupStatsD2Ev
FNDA:1,_ZN5Catch12TestRunStatsC2ERKNS_11TestRunInfoERKNS_6TotalsEb
FNDA:0,_ZN5Catch12TestRunStatsD0Ev
FNDA:1,_ZN5Catch12TestRunStatsD2Ev
FNDA:0,_ZN5Catch18IStreamingReporter21fatalErrorEncounteredENS_9StringRefE
FNDA:0,_ZNK5Catch18IStreamingReporter7isMultiEv
FNDA:0,_ZN5Catch16IReporterFactoryD0Ev
FNDA:4,_ZN5Catch16IReporterFactoryD2Ev
FNDA:0,_ZN5Catch17IReporterRegistryD0Ev
FNDA:1,_ZN5Catch17IReporterRegistryD2Ev
FNDA:0,_ZN5Catch7IRunnerD0Ev
FNDA:1,_ZN5Catch7IRunnerD2Ev
FNDA:0,_ZN5Catch12ITestInvokerD0Ev
FNDA:8,_ZN5Catch12ITestInvokerD2Ev
FNDA:0,_ZN5Catch17ITestCaseRegistryD0Ev
FNDA:1,_ZN5Catch17ITestCaseRegistryD2Ev
FNDA:1,_ZN5Catch12LeakDetectorC2Ev
FNDA:1,_ZN5Catch12LeakDetectorD2Ev
FNDA:0,_ZN5Catch9listTestsERKNS_6ConfigE
FNDA:0,_ZN5Catch18listTestsNamesOnlyERKNS_6ConfigE
FNDA:0,_ZN5Catch7TagInfo3addERKNSt7__cxx1112basic_stringIcSt11char_traitsIcESaIcEEE
FNDA:0,_ZNK5Catch7TagInfo3allB5cxx11Ev
FNDA:0,_ZN5Catch8listTagsERKNS_6ConfigE
FNDA:0,_ZN5Catch13listReportersEv
FNDA:1,_ZN5Catch4listERKSt10shared_ptrINS_6ConfigEE
FNDA:0,_ZNK5Catch8Matchers4Impl18MatcherUntypedBase8toStringB5cxx11Ev
FNDA:0,_ZN5Catch8Matchers4Impl18MatcherUntypedBaseD0Ev
FNDA:0,_ZN5Catch8Matchers4Impl18MatcherUntypedBaseD2Ev
FNDA:0,_ZNK5Catch8Matchers9Exception23ExceptionMessageMatcher5matchERKSt9exception
FNDA:0,_ZNK5Catch8Matchers9Exception23ExceptionMessageMatcher8describeB5cxx11Ev
FNDA:0,_ZN5Catch8Matchers7MessageERKNSt7__cxx1112basic_stringIcSt11char_traitsIcESaIcEEE
FNDA:0,_ZN5Catch12_GLOBAL__N_17convertEf
FNDA:0,_ZN5Catch12_GLOBAL__N_17convertEd
FNDA:0,_ZN5Catch12_GLOBAL__N_115almostEqualUlpsIdEEbT_S2_m
FNDA:0,_ZN5Catch12_GLOBAL__N_115almostEqualUlpsIfEEbT_S2_m
FNDA:0,_ZN5Catch12_GLOBAL__N_19nextafterEff
FNDA:0,_ZN5Catch12_GLOBAL__N_19nextafterEdd
FNDA:0,_ZN5Catch12_GLOBAL__N_14stepIdEET_S2_S2_m
FNDA:0,_ZN5Catch12_GLOBAL__N_14stepIfEET_S2_S2_m
FNDA:0,_ZN5Catch12_GLOBAL__N_116marginComparisonEddd
FNDA:0,_ZN5Catch12_GLOBAL__N_15writeIdEEvRSoT_
FNDA:0,_ZN5Catch12_GLOBAL__N_15writeIfEEvRSoT_
FNDA:0,_ZN5Catch8Matchers8Floating16WithinAbsMatcherC2Edd
FNDA:0,_ZNK5Catch8Matchers8Floating16WithinAbsMatcher5matchERKd
FNDA:0,_ZNK5Catch8Matchers8Floating16WithinAbsMatcher8describeB5cxx11Ev
FNDA:0,_ZN5Catch8Matchers8Floating17WithinUlpsMatcherC2EdmNS1_17FloatingPointKindE
FNDA:0,_ZNK5Catch8Matchers8Floating17WithinUlpsMatcher5matchERKd
FNDA:0,_ZNK5Catch8Matchers8Floating17WithinUlpsMatcher8describeB5cxx11Ev
FNDA:0,_ZN5Catch8Matchers8Floating16WithinRelMatcherC2Edd
FNDA:0,_ZNK5Catch8Matchers8Floating16WithinRelMatcher5matchERKd
FNDA:0,_ZNK5Catch8Matchers8Floating16WithinRelMatcher8describeB5cxx11Ev
FNDA:0,_ZN5Catch8Matchers9WithinULPEdm
FNDA:0,_ZN5Catch8Matchers9WithinULPEfm
FNDA:0,_ZN5Catch8Matchers9WithinAbsEdd
FNDA:0,_ZN5Catch8Matchers9WithinRelEdd
FNDA:0,_ZN5Catch8Matchers9WithinRelEd
FNDA:0,_ZN5Catch8Matchers9WithinRelEff
FNDA:0,_ZN5Catch8Matchers9WithinRelEf
FNDA:0,_ZN5Catch8Matchers7Generic6Detail19finalizeDescriptionERKNSt7__cxx1112basic_stringIcSt11char_traitsIcESaIcEEE
FNDA:0,_ZN5Catch8Matchers9StdString11CasedStringC2ERKNSt7__cxx1112basic_stringIcSt11char_traitsIcESaIcEEENS_13CaseSensitive6ChoiceE
FNDA:0,_ZNK5Catch8Matchers9StdString11CasedString12adjustStringERKNSt7__cxx1112basic_stringIcSt11char_traitsIcESaIcEEE
FNDA:0,_ZNK5Catch8Matchers9StdString11CasedString21caseSensitivitySuffixB5cxx11Ev
FNDA:0,_ZN5Catch8Matchers9StdString17StringMatcherBaseC2ERKNSt7__cxx1112basic_stringIcSt11char_traitsIcESaIcEEERKNS1_11CasedStringE
FNDA:0,_ZNK5Catch8Matchers9StdString17StringMatcherBase8describeB5cxx11Ev
FNDA:0,_ZN5Catch8Matchers9StdString13EqualsMatcherC2ERKNS1_11CasedStringE
FNDA:0,_ZNK5Catch8Matchers9StdString13EqualsMatcher5matchERKNSt7__cxx1112basic_stringIcSt11char_traitsIcESaIcEEE
FNDA:0,_ZN5Catch8Matchers9StdString15ContainsMatcherC2ERKNS1_11CasedStringE
FNDA:0,_ZNK5Catch8Matchers9StdString15ContainsMatcher5matchERKNSt7__cxx1112basic_stringIcSt11char_traitsIcESaIcEEE
FNDA:0,_ZN5Catch8Matchers9StdString17StartsWithMatcherC2ERKNS1_11CasedStringE
FNDA:0,_ZNK5Catch8Matchers9StdString17StartsWithMatcher5matchERKNSt7__cxx1112basic_stringIcSt11char_traitsIcESaIcEEE
FNDA:0,_ZN5Catch8Matchers9StdString15EndsWithMatcherC2ERKNS1_11CasedStringE
FNDA:0,_ZNK5Catch8Matchers9StdString15EndsWithMatcher5matchERKNSt7__cxx1112basic_stringIcSt11char_traitsIcESaIcEEE
FNDA:0,_ZN5Catch8Matchers9StdString12RegexMatcherC2ENSt7__cxx1112basic_stringIcSt11char_traitsIcESaIcEEENS_13CaseSensitive6ChoiceE
FNDA:0,_ZNK5Catch8Matchers9StdString12RegexMatcher5matchERKNSt7__cxx1112basic_stringIcSt11char_traitsIcESaIcEEE
FNDA:0,_ZNK5Catch8Matchers9StdString12RegexMatcher8describeB5cxx11Ev
FNDA:0,_ZN5Catch8Matchers6EqualsERKNSt7__cxx1112basic_stringIcSt11char_traitsIcESaIcEEENS_13CaseSensitive6ChoiceE
FNDA:0,_ZN5Catch8Matchers8ContainsERKNSt7__cxx1112basic_stringIcSt11char_traitsIcESaIcEEENS_13CaseSensitive6ChoiceE
FNDA:0,_ZN5Catch8Matchers8EndsWithERKNSt7__cxx1112basic_stringIcSt11char_traitsIcESaIcEEENS_13CaseSensitive6ChoiceE
FNDA:0,_ZN5Catch8Matchers10StartsWithERKNSt7__cxx1112basic_stringIcSt11char_traitsIcESaIcEEENS_13CaseSensitive6ChoiceE
FNDA:0,_ZN5Catch8Matchers7MatchesERKNSt7__cxx1112basic_stringIcSt11char_traitsIcESaIcEEENS_13CaseSensitive6ChoiceE
FNDA:0,_ZN5Catch11MessageInfoC2ERKNS_9StringRefERKNS_14SourceLineInfoENS_9ResultWas6OfTypeE
FNDA:0,_ZNK5Catch11MessageInfoeqERKS0_
FNDA:0,_ZNK5Catch11MessageInfoltERKS0_
FNDA:0,_ZN5Catch14MessageBuilderC2ERKNS_9StringRefERKNS_14SourceLineInfoENS_9ResultWas6OfTypeE
FNDA:0,_ZN5Catch13ScopedMessageC2ERKNS_14MessageBuilderE
FNDA:0,_ZN5Catch13ScopedMessageC2EOS0_
FNDA:0,_ZN5Catch13ScopedMessageD2Ev
FNDA:0,_ZN5Catch8CapturerC2ENS_9StringRefERKNS_14SourceLineInfoENS_9ResultWas6OfTypeES1_
FNDA:0,_ZZN5Catch8CapturerC4ENS_9StringRefERKNS_14SourceLineInfoENS_9ResultWas6OfTypeES1_ENKUlmmE_clEmm
FNDA:0,_ZZN5Catch8CapturerC4ENS_9StringRefERKNS_14SourceLineInfoENS_9ResultWas6OfTypeES1_ENKUlmcE0_clEmc
FNDA:0,_ZN5Catch8CapturerD2Ev
FNDA:0,_ZN5Catch8Capturer12captureValueEmRKNSt7__cxx1112basic_stringIcSt11char_traitsIcESaIcEEE
FNDA:0,_ZN5Catch16RedirectedStreamC2ERSoS1_
FNDA:0,_ZN5Catch16RedirectedStreamD2Ev
FNDA:0,_ZN5Catch16RedirectedStdOutC2Ev
FNDA:0,_ZNK5Catch16RedirectedStdOut3strB5cxx11Ev
FNDA:0,_ZN5Catch16RedirectedStdErrC2Ev
FNDA:0,_ZNK5Catch16RedirectedStdErr3strB5cxx11Ev
FNDA:0,_ZN5Catch17RedirectedStreamsC2ERNSt7__cxx1112basic_stringIcSt11char_traitsIcESaIcEEES7_
FNDA:0,_ZN5Catch17RedirectedStreamsD2Ev
FNDA:0,_ZN5Catch5isnanEf
FNDA:0,_ZN5Catch5isnanEd
FNDA:0,_ZN5Catch12_GLOBAL__N_112rotate_rightEjj
FNDA:0,_ZN5Catch11SimplePcg32C2Ej
FNDA:0,_ZN5Catch11SimplePcg324seedEj
FNDA:0,_ZN5Catch11SimplePcg327discardEm
FNDA:0,_ZN5Catch11SimplePcg32clEv
FNDA:0,_ZN5CatcheqERKNS_11SimplePcg32ES2_
FNDA:0,_ZN5CatchneERKNS_11SimplePcg32ES2_
FNDA:0,_ZN5Catch12TestRegistryD0Ev
FNDA:1,_ZN5Catch12TestRegistryD2Ev
FNDA:17,_ZN5Catch9SingletonINS_12_GLOBAL__N_111RegistryHubENS_12IRegistryHubENS_19IMutableRegistryHubEE11getInternalEv
FNDA:0,_ZN5Catch9SingletonINS_13StringStreamsES1_S1_E11getInternalEv
FNDA:5,_ZN5Catch9SingletonINS_12_GLOBAL__N_111RegistryHubENS_12IRegistryHubENS_19IMutableRegistryHubEE3getEv
FNDA:12,_ZN5Catch9SingletonINS_12_GLOBAL__N_111RegistryHubENS_12IRegistryHubENS_19IMutableRegistryHubEE10getMutableEv
FNDA:0,_ZN5Catch9SingletonINS_13StringStreamsES1_S1_E10getMutableEv
FNDA:1,_ZN5Catch12_GLOBAL__N_111RegistryHubC2Ev
FNDA:2,_ZNK5Catch12_GLOBAL__N_111RegistryHub19getReporterRegistryEv
FNDA:1,_ZNK5Catch12_GLOBAL__N_111RegistryHub19getTestCaseRegistryEv
FNDA:0,_ZNK5Catch12_GLOBAL__N_111RegistryHub30getExceptionTranslatorRegistryEv
FNDA:1,_ZNK5Catch12_GLOBAL__N_111RegistryHub19getTagAliasRegistryEv
FNDA:1,_ZNK5Catch12_GLOBAL__N_111RegistryHub27getStartupExceptionRegistryEv
FNDA:4,_ZN5Catch12_GLOBAL__N_111RegistryHub16registerReporterERKNSt7__cxx1112basic_stringIcSt11char_traitsIcESaIcEEERKSt10shared_ptrINS_16IReporterFactoryEE
FNDA:0,_ZN5Catch12_GLOBAL__N_111RegistryHub16registerListenerERKSt10shared_ptrINS_16IReporterFactoryEE
FNDA:8,_ZN5Catch12_GLOBAL__N_111RegistryHub12registerTestERKNS_8TestCaseE
FNDA:0,_ZN5Catch12_GLOBAL__N_111RegistryHub18registerTranslatorEPKNS_20IExceptionTranslatorE
FNDA:0,_ZN5Catch12_GLOBAL__N_111RegistryHub16registerTagAliasERKNSt7__cxx1112basic_stringIcSt11char_traitsIcESaIcEEES9_RKNS_14SourceLineInfoE
FNDA:0,_ZN5Catch12_GLOBAL__N_111RegistryHub24registerStartupExceptionEv
FNDA:0,_ZN5Catch12_GLOBAL__N_111RegistryHub28getMutableEnumValuesRegistryEv
FNDA:5,_ZN5Catch14getRegistryHubEv
FNDA:12,_ZN5Catch21getMutableRegistryHubEv
FNDA:2,_ZN5Catch7cleanUpEv
FNDA:0,_ZN5Catch24translateActiveExceptionB5cxx11Ev
FNDA:0,_ZN5Catch16ReporterRegistryD0Ev
FNDA:1,_ZN5Catch16ReporterRegistryD2Ev
FNDA:1,_ZNK5Catch16ReporterRegistry6createERKNSt7__cxx1112basic_stringIcSt11char_traitsIcESaIcEEERKSt10shared_ptrIKNS_7IConfigEE
FNDA:4,_ZN5Catch16ReporterRegistry16registerReporterERKNSt7__cxx1112basic_stringIcSt11char_traitsIcESaIcEEERKSt10shared_ptrINS_16IReporterFactoryEE
FNDA:0,_ZN5Catch16ReporterRegistry16registerListenerERKSt10shared_ptrINS_16IReporterFactoryEE
FNDA:0,_ZNK5Catch16ReporterRegistry12getFactoriesB5cxx11Ev
FNDA:1,_ZNK5Catch16ReporterRegistry12getListenersEv
FNDA:28,_ZN5Catch4isOkENS_9ResultWas6OfTypeE
FNDA:0,_ZN5Catch10isJustInfoEi
FNDA:0,_ZN5CatchorENS_17ResultDisposition5FlagsES1_
FNDA:0,_ZN5Catch23shouldContinueOnFailureEi
FNDA:0,_ZN5Catch21shouldSuppressFailureEi
FNDA:0,_ZN5Catch10Generators16GeneratorTrackerC2ERKNS_16TestCaseTracking15NameAndLocationERNS2_14TrackerContextEPNS2_8ITrackerE
FNDA:0,_ZN5Catch10Generators16GeneratorTracker7acquireERNS_16TestCaseTracking14TrackerContextERKNS2_15NameAndLocationE
FNDA:0,_ZNK5Catch10Generators16GeneratorTracker18isGeneratorTrackerEv
FNDA:0,_ZNK5Catch10Generators16GeneratorTracker12hasGeneratorEv
FNDA:0,_ZN5Catch10Generators16GeneratorTracker5closeEv
FNDA:0,_ZZN5Catch10Generators16GeneratorTracker5closeEvENKUlvE_clEv
FNDA:0,_ZZZN5Catch10Generators16GeneratorTracker5closeEvENKUlvE_clEvENKUlSt10shared_ptrINS_16TestCaseTracking8ITrackerEEE_clES6_
FNDA:0,_ZNK5Catch10Generators16GeneratorTracker12getGeneratorEv
FNDA:0,_ZN5Catch10Generators16GeneratorTracker12setGeneratorEOSt10unique_ptrINS0_20GeneratorUntypedBaseESt14default_deleteIS3_EE
FNDA:0,_ZN5Catch10Generators16GeneratorTrackerD0Ev
FNDA:0,_ZN5Catch10Generators16GeneratorTrackerD2Ev
FNDA:1,_ZN5Catch10RunContextC2ERKSt10shared_ptrIKNS_7IConfigEEOSt10unique_ptrINS_18IStreamingReporterESt14default_deleteIS8_EE
FNDA:0,_ZN5Catch10RunContextD0Ev
FNDA:1,_ZN5Catch10RunContextD2Ev
FNDA:1,_ZN5Catch10RunContext17testGroupStartingERKNSt7__cxx1112basic_stringIcSt11char_traitsIcESaIcEEEmm
FNDA:1,_ZN5Catch10RunContext14testGroupEndedERKNSt7__cxx1112basic_stringIcSt11char_traitsIcESaIcEEERKNS_6TotalsEmm
FNDA:8,_ZN5Catch10RunContext7runTestERKNS_8TestCaseE
FNDA:0,_ZNK5Catch10RunContext6configEv
FNDA:0,_ZNK5Catch10RunContext8reporterEv
FNDA:14,_ZN5Catch10RunContext14assertionEndedERKNS_15AssertionResultE
FNDA:90,_ZN5Catch10RunContext18resetAssertionInfoEv
FNDA:1261,_ZN5Catch10RunContext14sectionStartedERKNS_11SectionInfoERNS_6CountsE
FNDA:0,_ZN5Catch10RunContext23acquireGeneratorTrackerENS_9StringRefERKNS_14SourceLineInfoE
FNDA:170,_ZN5Catch10RunContext24testForMissingAssertionsERNS_6CountsE
FNDA:85,_ZN5Catch10RunContext12sectionEndedERKNS_14SectionEndInfoE
FNDA:0,_ZN5Catch10RunContext17sectionEndedEarlyERKNS_14SectionEndInfoE
FNDA:0,_ZN5Catch10RunContext17pushScopedMessageERKNS_11MessageInfoE
FNDA:0,_ZN5Catch10RunContext16popScopedMessageERKNS_11MessageInfoE
FNDA:0,_ZN5Catch10RunContext22emplaceUnscopedMessageERKNS_14MessageBuilderE
FNDA:0,_ZNK5Catch10RunContext18getCurrentTestNameB5cxx11Ev
FNDA:0,_ZNK5Catch10RunContext13getLastResultEv
FNDA:0,_ZN5Catch10RunContext22exceptionEarlyReportedEv
FNDA:0,_ZN5Catch10RunContext25handleFatalErrorConditionENS_9StringRefE
FNDA:0,_ZN5Catch10RunContext19lastAssertionPassedEv
FNDA:76,_ZN5Catch10RunContext15assertionPassedEv
FNDA:95,_ZNK5Catch10RunContext8abortingEv
FNDA:85,_ZN5Catch10RunContext14runCurrentTestERNSt7__cxx1112basic_stringIcSt11char_traitsIcESaIcEEES7_
FNDA:85,_ZN5Catch10RunContext20invokeActiveTestCaseEv
FNDA:85,_ZN5Catch10RunContext24handleUnfinishedSectionsEv
FNDA:76,_ZN5Catch10RunContext10handleExprERKNS_13AssertionInfoERKNS_20ITransientExpressionERNS_17AssertionReactionE
FNDA:0,_ZN5Catch10RunContext10reportExprERKNS_13AssertionInfoENS_9ResultWas6OfTypeEPKNS_20ITransientExpressionEb
FNDA:0,_ZN5Catch10RunContext13handleMessageERKNS_13AssertionInfoENS_9ResultWas6OfTypeERKNS_9StringRefERNS_17AssertionReactionE
FNDA:0,_ZN5Catch10RunContext34handleUnexpectedExceptionNotThrownERKNS_13AssertionInfoERNS_17AssertionReactionE
FNDA:0,_ZN5Catch10RunContext33handleUnexpectedInflightExceptionERKNS_13AssertionInfoERKNSt7__cxx1112basic_stringIcSt11char_traitsIcESaIcEEERNS_17AssertionReactionE
FNDA:0,_ZN5Catch10RunContext16populateReactionERNS_17AssertionReactionE
FNDA:0,_ZN5Catch10RunContext16handleIncompleteERKNS_13AssertionInfoE
FNDA:14,_ZN5Catch10RunContext13handleNonExprERKNS_13AssertionInfoENS_9ResultWas6OfTypeERNS_17AssertionReactionE
FNDA:1436,_ZN5Catch16getResultCaptureEv
FNDA:86,_ZN5Catch7seedRngERKNS_7IConfigE
FNDA:0,_ZN5Catch7rngSeedEv
FNDA:1261,_ZN5Catch7SectionC2ERKNS_11SectionInfoE
FNDA:0,_ZN5Catch7SectionD0Ev
FNDA:1261,_ZN5Catch7SectionD2Ev
FNDA:1261,_ZNK5Catch7SectioncvbEv
FNDA:1346,_ZN5Catch11SectionInfoC2ERKNS_14SourceLineInfoERKNSt7__cxx1112basic_stringIcSt11char_traitsIcESaIcEEE
FNDA:1,_ZN5Catch7Session3runIcEEiiPKPKT_
FNDA:1,_ZN5Catch12_GLOBAL__N_114createReporterERKNSt7__cxx1112basic_stringIcSt11char_traitsIcESaIcEEERKSt10shared_ptrIKNS_7IConfigEE
FNDA:1,_ZN5Catch12_GLOBAL__N_112makeReporterERKSt10shared_ptrINS_6ConfigEE
FNDA:1,_ZN5Catch12_GLOBAL__N_19TestGroupC2ERKSt10shared_ptrINS_6ConfigEE
FNDA:1,_ZN5Catch12_GLOBAL__N_19TestGroup7executeEv
FNDA:0,_ZN5Catch12_GLOBAL__N_120applyFilenamesAsTagsERKNS_7IConfigE
FNDA:1,_ZN5Catch7SessionC2Ev
FNDA:0,_ZN5Catch7SessionD0Ev
FNDA:1,_ZN5Catch7SessionD2Ev
FNDA:0,_ZNK5Catch7Session8showHelpEv
FNDA:0,_ZN5Catch7Session11libIdentifyEv
FNDA:1,_ZN5Catch7Session16applyCommandLineEiPKPKc
FNDA:0,_ZN5Catch7Session13useConfigDataERKNS_10ConfigDataE
FNDA:1,_ZN5Catch7Session3runEv
FNDA:0,_ZNK5Catch7Session3cliEv
FNDA:0,_ZN5Catch7Session3cliERKNS_5clara6detail6ParserE
FNDA:0,_ZN5Catch7Session10configDataEv
FNDA:1,_ZN5Catch7Session6configEv
FNDA:1,_ZN5Catch7Session11runInternalEv
FNDA:3,_ZN5Catch12_GLOBAL__N_1L13getSingletonsEv
FNDA:0,_ZN5Catch10ISingletonD0Ev
FNDA:1,_ZN5Catch10ISingletonD2Ev
FNDA:1,_ZN5Catch12addSingletonEPNS_10ISingletonE
FNDA:2,_ZN5Catch17cleanupSingletonsEv
FNDA:0,_ZN5Catch24StartupExceptionRegistry3addERKNSt15__exception_ptr13exception_ptrE
FNDA:1,_ZNK5Catch24StartupExceptionRegistry13getExceptionsEv
FNDA:0,_ZN5Catch7IStreamD0Ev
FNDA:1,_ZN5Catch7IStreamD2Ev
FNDA:0,_ZN5Catch6Detail12_GLOBAL__N_113StreamBufImplINS1_17OutputDebugWriterELm256EEC2Ev
FNDA:0,_ZN5Catch6Detail12_GLOBAL__N_113StreamBufImplINS1_17OutputDebugWriterELm256EED0Ev
FNDA:0,_ZN5Catch6Detail12_GLOBAL__N_113StreamBufImplINS1_17OutputDebugWriterELm256EED2Ev
FNDA:0,_ZN5Catch6Detail12_GLOBAL__N_113StreamBufImplINS1_17OutputDebugWriterELm256EE8overflowEi
FNDA:0,_ZN5Catch6Detail12_GLOBAL__N_113StreamBufImplINS1_17OutputDebugWriterELm256EE4syncEv
FNDA:0,_ZN5Catch6Detail12_GLOBAL__N_117OutputDebugWriterclERKNSt7__cxx1112basic_stringIcSt11char_traitsIcESaIcEEE
FNDA:0,_ZN5Catch6Detail12_GLOBAL__N_110FileStreamC2ENS_9StringRefE
FNDA:0,_ZN5Catch6Detail12_GLOBAL__N_110FileStreamD0Ev
FNDA:0,_ZN5Catch6Detail12_GLOBAL__N_110FileStreamD2Ev
FNDA:0,_ZNK5Catch6Detail12_GLOBAL__N_110FileStream6streamEv
FNDA:1,_ZN5Catch6Detail12_GLOBAL__N_110CoutStreamC2Ev
FNDA:1,_ZN5Catch6Detail12_GLOBAL__N_110CoutStreamD0Ev
FNDA:1,_ZN5Catch6Detail12_GLOBAL__N_110CoutStreamD2Ev
FNDA:1,_ZNK5Catch6Detail12_GLOBAL__N_110CoutStream6streamEv
FNDA:0,_ZN5Catch6Detail12_GLOBAL__N_114DebugOutStreamC2Ev
FNDA:0,_ZN5Catch6Detail12_GLOBAL__N_114DebugOutStreamD0Ev
FNDA:0,_ZN5Catch6Detail12_GLOBAL__N_114DebugOutStreamD2Ev
FNDA:0,_ZNK5Catch6Detail12_GLOBAL__N_114DebugOutStream6streamEv
FNDA:1,_ZN5Catch10makeStreamERKNS_9StringRefE
FNDA:0,_ZN5Catch13StringStreams3addEv
FNDA:0,_ZN5Catch13StringStreams7releaseEm
FNDA:0,_ZN5Catch20ReusableStringStreamC2Ev
FNDA:0,_ZN5Catch20ReusableStringStreamD0Ev
FNDA:0,_ZN5Catch20ReusableStringStreamD2Ev
FNDA:0,_ZNK5Catch20ReusableStringStream3strB5cxx11Ev
FNDA:1,_ZN5Catch4coutEv
FNDA:0,_ZN5Catch4cerrEv
FNDA:0,_ZN5Catch4clogEv
FNDA:37,_ZN5Catch12_GLOBAL__N_19toLowerChEc
FNDA:0,_ZN5Catch10startsWithERKNSt7__cxx1112basic_stringIcSt11char_traitsIcESaIcEEES7_
FNDA:40,_ZN5Catch10startsWithERKNSt7__cxx1112basic_stringIcSt11char_traitsIcESaIcEEEc
FNDA:0,_ZN5Catch8endsWithERKNSt7__cxx1112basic_stringIcSt11char_traitsIcESaIcEEES7_
FNDA:0,_ZN5Catch8endsWithERKNSt7__cxx1112basic_stringIcSt11char_traitsIcESaIcEEEc
FNDA:0,_ZN5Catch8containsERKNSt7__cxx1112basic_stringIcSt11char_traitsIcESaIcEEES7_
FNDA:8,_ZN5Catch14toLowerInPlaceERNSt7__cxx1112basic_stringIcSt11char_traitsIcESaIcEEE
FNDA:8,_ZN5Catch7toLowerERKNSt7__cxx1112basic_stringIcSt11char_traitsIcESaIcEEE
FNDA:101,_ZN5Catch4trimERKNSt7__cxx1112basic_stringIcSt11char_traitsIcESaIcEEE
FNDA:0,_ZN5Catch4trimENS_9StringRefE
FNDA:0,_ZZN5Catch4trimENS_9StringRefEENKUlcE_clEc
FNDA:0,_ZN5Catch14replaceInPlaceERNSt7__cxx1112basic_stringIcSt11char_traitsIcESaIcEEERKS5_S8_
FNDA:0,_ZN5Catch14splitStringRefENS_9StringRefEc
FNDA:76,_ZN5Catch11isFalseTestEi
FNDA:2,_ZN5Catch9pluraliseC2EmRKNSt7__cxx1112basic_stringIcSt11char_traitsIcESaIcEEE
FNDA:2,_ZN5CatchlsERSoRKNS_9pluraliseE
FNDA:178,_ZN5Catch9StringRefC2EPKc
FNDA:0,_ZNK5Catch9StringRef5c_strEv
FNDA:0,_ZNK5Catch9StringRef4dataEv
FNDA:0,_ZNK5Catch9StringRef6substrEmm
FNDA:0,_ZNK5Catch9StringRefeqERKS0_
FNDA:0,_ZN5CatchlsERSoRKNS_9StringRefE
FNDA:0,_ZN5CatchpLERNSt7__cxx1112basic_stringIcSt11char_traitsIcESaIcEEERKNS_9StringRefE
FNDA:0,_ZN5Catch8TagAliasC2ERKNSt7__cxx1112basic_stringIcSt11char_traitsIcESaIcEEENS_14SourceLineInfoE
FNDA:0,_ZN5Catch22RegistrarForTagAliasesC2EPKcS2_RKNS_14SourceLineInfoE
FNDA:0,_ZN5Catch16TagAliasRegistryD0Ev
FNDA:1,_ZN5Catch16TagAliasRegistryD2Ev
FNDA:0,_ZNK5Catch16TagAliasRegistry4findERKNSt7__cxx1112basic_stringIcSt11char_traitsIcESaIcEEE
FNDA:0,_ZNK5Catch16TagAliasRegistry13expandAliasesERKNSt7__cxx1112basic_stringIcSt11char_traitsIcESaIcEEE
FNDA:0,_ZN5Catch16TagAliasRegistry3addERKNSt7__cxx1112basic_stringIcSt11char_traitsIcESaIcEEES8_RKNS_14SourceLineInfoE
FNDA:0,_ZN5Catch17ITagAliasRegistryD0Ev
FNDA:1,_ZN5Catch17ITagAliasRegistryD2Ev
FNDA:1,_ZN5Catch17ITagAliasRegistry3getEv
FNDA:24,_ZN5Catch12_GLOBAL__N_115parseSpecialTagERKNSt7__cxx1112basic_stringIcSt11char_traitsIcESaIcEEE
FNDA:8,_ZN5Catch12_GLOBAL__N_113isReservedTagERKNSt7__cxx1112basic_stringIcSt11char_traitsIcESaIcEEE
FNDA:8,_ZN5Catch12_GLOBAL__N_121enforceNotReservedTagERKNSt7__cxx1112basic_stringIcSt11char_traitsIcESaIcEEERKNS_14SourceLineInfoE
FNDA:8,_ZN5Catch12makeTestCaseEPNS_12ITestInvokerERKNSt7__cxx1112basic_stringIcSt11char_traitsIcESaIcEEERKNS_11NameAndTagsERKNS_14SourceLineInfoE
FNDA:8,_ZN5Catch7setTagsERNS_12TestCaseInfoESt6vectorINSt7__cxx1112basic_stringIcSt11char_traitsIcESaIcEEESaIS8_EE
FNDA:8,_ZN5Catch12TestCaseInfoC2ERKNSt7__cxx1112basic_stringIcSt11char_traitsIcESaIcEEES8_S8_RKSt6vectorIS6_SaIS6_EERKNS_14SourceLineInfoE
FNDA:8,_ZNK5Catch12TestCaseInfo8isHiddenEv
FNDA:0,_ZNK5Catch12TestCaseInfo6throwsEv
FNDA:0,_ZNK5Catch12TestCaseInfo8okToFailEv
FNDA:8,_ZNK5Catch12TestCaseInfo14expectedToFailEv
FNDA:0,_ZNK5Catch12TestCaseInfo12tagsAsStringB5cxx11Ev
FNDA:8,_ZN5Catch8TestCaseC2EPNS_12ITestInvokerEONS_12TestCaseInfoE
FNDA:0,_ZNK5Catch8TestCase8withNameERKNSt7__cxx1112basic_stringIcSt11char_traitsIcESaIcEEE
FNDA:85,_ZNK5Catch8TestCase6invokeEv
FNDA:0,_ZNK5Catch8TestCaseeqERKS0_
FNDA:32,_ZNK5Catch8TestCaseltERKS0_
FNDA:101,_ZNK5Catch8TestCase15getTestCaseInfoEv
FNDA:0,_ZN5Catch12_GLOBAL__N_110TestHasherC2Em
FNDA:0,_ZNK5Catch12_GLOBAL__N_110TestHasherclERKNS_8TestCaseE
FNDA:1,_ZN5Catch9sortTestsERKNS_7IConfigERKSt6vectorINS_8TestCaseESaIS4_EE
FNDA:0,_ZZN5Catch9sortTestsERKNS_7IConfigERKSt6vectorINS_8TestCaseESaIS4_EEENKUlRKSt4pairImPKS4_ESE_E_clESE_SE_
FNDA:0,_ZN5Catch11isThrowSafeERKNS_8TestCaseERKNS_7IConfigE
FNDA:0,_ZN5Catch9matchTestERKNS_8TestCaseERKNS_8TestSpecERKNS_7IConfigE
FNDA:1,_ZN5Catch27enforceNoDuplicateTestCasesERKSt6vectorINS_8TestCaseESaIS1_EE
FNDA:0,_ZN5Catch11filterTestsERKSt6vectorINS_8TestCaseESaIS1_EERKNS_8TestSpecERKNS_7IConfigE
FNDA:1,_ZN5Catch21getAllTestCasesSortedERKNS_7IConfigE
FNDA:8,_ZN5Catch12TestRegistry12registerTestERKNS_8TestCaseE
FNDA:0,_ZNK5Catch12TestRegistry11getAllTestsEv
FNDA:1,_ZNK5Catch12TestRegistry17getAllTestsSortedERKNS_7IConfigE
FNDA:8,_ZN5Catch21TestInvokerAsFunctionC2EPFvvE
FNDA:85,_ZNK5Catch21TestInvokerAsFunction6invokeEv
FNDA:8,_ZN5Catch16extractClassNameB5cxx11ERKNS_9StringRefE
FNDA:1354,_ZN5Catch16TestCaseTracking15NameAndLocationC2ERKNSt7__cxx1112basic_stringIcSt11char_traitsIcESaIcEEERKNS_14SourceLineInfoE
FNDA:0,_ZN5Catch16TestCaseTracking8ITrackerD0Ev
FNDA:101,_ZN5Catch16TestCaseTracking8ITrackerD2Ev
FNDA:8,_ZN5Catch16TestCaseTracking14TrackerContext8startRunEv
FNDA:0,_ZN5Catch16TestCaseTracking14TrackerContext6endRunEv
FNDA:85,_ZN5Catch16TestCaseTracking14TrackerContext10startCycleEv
FNDA:170,_ZN5Catch16TestCaseTracking14TrackerContext13completeCycleEv
FNDA:1346,_ZNK5Catch16TestCaseTracking14TrackerContext14completedCycleEv
FNDA:1516,_ZN5Catch16TestCaseTracking14TrackerContext14currentTrackerEv
FNDA:340,_ZN5Catch16TestCaseTracking14TrackerContext17setCurrentTrackerEPNS0_8ITrackerE
FNDA:101,_ZN5Catch16TestCaseTracking11TrackerBaseC2ERKNS0_15NameAndLocationERNS0_14TrackerContextEPNS0_8ITrackerE
FNDA:2181,_ZNK5Catch16TestCaseTracking11TrackerBase10isCompleteEv
FNDA:85,_ZNK5Catch16TestCaseTracking11TrackerBase23isSuccessfullyCompletedEv
FNDA:1261,_ZNK5Catch16TestCaseTracking11TrackerBase6isOpenEv
FNDA:0,_ZNK5Catch16TestCaseTracking11TrackerBase11hasChildrenEv
FNDA:93,_ZN5Catch16TestCaseTracking11TrackerBase8addChildERKSt10shared_ptrINS0_8ITrackerEE
FNDA:1346,_ZN5Catch16TestCaseTracking11TrackerBase9findChildERKNS0_15NameAndLocationE
FNDA:11153,_ZZN5Catch16TestCaseTracking11TrackerBase9findChildERKNS0_15NameAndLocationEENKUlRKSt10shared_ptrINS0_8ITrackerEEE_clES9_
FNDA:0,_ZN5Catch16TestCaseTracking11TrackerBase6parentEv
FNDA:255,_ZN5Catch16TestCaseTracking11TrackerBase9openChildEv
FNDA:0,_ZNK5Catch16TestCaseTracking11TrackerBase16isSectionTrackerEv
FNDA:0,_ZNK5Catch16TestCaseTracking11TrackerBase18isGeneratorTrackerEv
FNDA:170,_ZN5Catch16TestCaseTracking11TrackerBase4openEv
FNDA:170,_ZN5Catch16TestCaseTracking11TrackerBase5closeEv
FNDA:750,_ZZN5Catch16TestCaseTracking11TrackerBase5closeEvENKUlRKSt10shared_ptrINS0_8ITrackerEEE_clES6_
FNDA:0,_ZN5Catch16TestCaseTracking11TrackerBase4failEv
FNDA:0,_ZN5Catch16TestCaseTracking11TrackerBase23markAsNeedingAnotherRunEv
FNDA:170,_ZN5Catch16TestCaseTracking11TrackerBase12moveToParentEv
FNDA:0,_ZN5Catch20ReusableStringStreamlsI4CardEERS0_RKT_
FNDA:0,_ZN5Catch20ReusableStringStreamlsIA12_cEERS0_RKT_
FNDA:0,_ZN5Catch20ReusableStringStreamlsIA13_cEERS0_RKT_
FNDA:0,_ZN5Catch20ReusableStringStreamlsIA15_cEERS0_RKT_
FNDA:0,_ZN5Catch20ReusableStringStreamlsIA16_cEERS0_RKT_
FNDA:0,_ZN5Catch20ReusableStringStreamlsIA17_cEERS0_RKT_
FNDA:0,_ZN5Catch20ReusableStringStreamlsIA18_cEERS0_RKT_
FNDA:0,_ZN5Catch20ReusableStringStreamlsIA19_cEERS0_RKT_
FNDA:0,_ZN5Catch20ReusableStringStreamlsIA1_cEERS0_RKT_
FNDA:0,_ZN5Catch20ReusableStringStreamlsIA20_cEERS0_RKT_
FNDA:0,_ZN5Catch20ReusableStringStreamlsIA21_cEERS0_RKT_
FNDA:0,_ZN5Catch20ReusableStringStreamlsIA22_cEERS0_RKT_
FNDA:0,_ZN5Catch20ReusableStringStreamlsIA23_cEERS0_RKT_
FNDA:0,_ZN5Catch20ReusableStringStreamlsIA25_cEERS0_RKT_
FNDA:0,_ZN5Catch20ReusableStringStreamlsIA26_cEERS0_RKT_
FNDA:0,_ZN5Catch20ReusableStringStreamlsIA27_cEERS0_RKT_
FNDA:0,_ZN5Catch20ReusableStringStreamlsIA2_cEERS0_RKT_
FNDA:0,_ZN5Catch20ReusableStringStreamlsIA31_cEERS0_RKT_
FNDA:0,_ZN5Catch20ReusableStringStreamlsIA32_cEERS0_RKT_
FNDA:0,_ZN5Catch20ReusableStringStreamlsIA36_cEERS0_RKT_
FNDA:0,_ZN5Catch20ReusableStringStreamlsIA37_cEERS0_RKT_
FNDA:0,_ZN5Catch20ReusableStringStreamlsIA3_cEERS0_RKT_
FNDA:0,_ZN5Catch20ReusableStringStreamlsIA40_cEERS0_RKT_
FNDA:0,_ZN5Catch20ReusableStringStreamlsIA44_cEERS0_RKT_
FNDA:0,_ZN5Catch20ReusableStringStreamlsIA47_cEERS0_RKT_
FNDA:0,_ZN5Catch20ReusableStringStreamlsIA4_cEERS0_RKT_
FNDA:0,_ZN5Catch20ReusableStringStreamlsIA53_cEERS0_RKT_
FNDA:0,_ZN5Catch20ReusableStringStreamlsIA57_cEERS0_RKT_
FNDA:0,_ZN5Catch20ReusableStringStreamlsIA59_cEERS0_RKT_
FNDA:0,_ZN5Catch20ReusableStringStreamlsIA5_cEERS0_RKT_
FNDA:0,_ZN5Catch20ReusableStringStreamlsIA60_cEERS0_RKT_
FNDA:0,_ZN5Catch20ReusableStringStreamlsIA66_cEERS0_RKT_
FNDA:0,_ZN5Catch20ReusableStringStreamlsIA7_cEERS0_RKT_
FNDA:0,_ZN5Catch20ReusableStringStreamlsIA8_cEERS0_RKT_
FNDA:0,_ZN5Catch20ReusableStringStreamlsIA9_cEERS0_RKT_
FNDA:0,_ZN5Catch20ReusableStringStreamlsIFRSt8ios_baseS3_EEERS0_RKT_
FNDA:0,_ZN5Catch20ReusableStringStreamlsIN4Card5COLOREEERS0_RKT_
FNDA:0,_ZN5Catch20ReusableStringStreamlsIN4Card9CARD_TYPEEEERS0_RKT_
FNDA:0,_ZN5Catch20ReusableStringStreamlsINS_14LazyExpressionEEERS0_RKT_
FNDA:0,_ZN5Catch20ReusableStringStreamlsINS_14SourceLineInfoEEERS0_RKT_
FNDA:0,_ZN5Catch20ReusableStringStreamlsINS_16TestCaseTracking11TrackerBase10CycleStateEEERS0_RKT_
FNDA:0,_ZN5Catch20ReusableStringStreamlsINS_5clara8TextFlow6ColumnEEERS0_RKT_
FNDA:0,_ZN5Catch20ReusableStringStreamlsINS_9StringRefEEERS0_RKT_
FNDA:0,_ZN5Catch20ReusableStringStreamlsINSt7__cxx1112basic_stringIcSt11char_traitsIcESaIcEEEEERS0_RKT_
FNDA:0,_ZN5Catch20ReusableStringStreamlsIPKcEERS0_RKT_
FNDA:0,_ZN5Catch20ReusableStringStreamlsISt13_SetprecisionEERS0_RKT_
FNDA:0,_ZN5Catch20ReusableStringStreamlsISt5_SetwEERS0_RKT_
FNDA:0,_ZN5Catch20ReusableStringStreamlsISt8_SetfillIcEEERS0_RKT_
FNDA:0,_ZN5Catch20ReusableStringStreamlsIcEERS0_RKT_
FNDA:0,_ZN5Catch20ReusableStringStreamlsIdEERS0_RKT_
FNDA:0,_ZN5Catch20ReusableStringStreamlsIfEERS0_RKT_
FNDA:0,_ZN5Catch20ReusableStringStreamlsIjEERS0_RKT_
FNDA:0,_ZN5Catch20ReusableStringStreamlsImEERS0_RKT_
FNDA:0,_ZN5Catch20ReusableStringStreamlsIxEERS0_RKT_
FNDA:0,_ZN5Catch20ReusableStringStreamlsIyEERS0_RKT_
FNDA:170,_ZN5Catch16TestCaseTracking11TrackerBase10moveToThisEv
FNDA:101,_ZN5Catch16TestCaseTracking14SectionTrackerC2ERKNS0_15NameAndLocationERNS0_14TrackerContextEPNS0_8ITrackerE
FNDA:2181,_ZNK5Catch16TestCaseTracking14SectionTracker10isCompleteEv
FNDA:1354,_ZNK5Catch16TestCaseTracking14SectionTracker16isSectionTrackerEv
FNDA:1346,_ZN5Catch16TestCaseTracking14SectionTracker7acquireERNS0_14TrackerContextERKNS0_15NameAndLocationE
FNDA:0,_ZN5Catch20ReusableStringStream3getEv
FNDA:758,_ZN5Catch16TestCaseTracking14SectionTracker7tryOpenEv
FNDA:8,_ZN5Catch16TestCaseTracking14SectionTracker17addInitialFiltersERKSt6vectorINSt7__cxx1112basic_stringIcSt11char_traitsIcESaIcEEESaIS8_EE
FNDA:93,_ZN5Catch16TestCaseTracking14SectionTracker14addNextFiltersERKSt6vectorINSt7__cxx1112basic_stringIcSt11char_traitsIcESaIcEEESaIS8_EE
FNDA:0,_ZNK5Catch16TestCaseTracking14SectionTracker10getFiltersB5cxx11Ev
FNDA:0,_ZNK5Catch16TestCaseTracking14SectionTracker11trimmedNameB5cxx11Ev
FNDA:8,_ZN5Catch15makeTestInvokerEPFvvE
FNDA:8,_ZN5Catch11NameAndTagsC2ERKNS_9StringRefES3_
FNDA:8,_ZN5Catch7AutoRegC2EPNS_12ITestInvokerERKNS_14SourceLineInfoERKNS_9StringRefERKNS_11NameAndTagsE
FNDA:0,_ZN5Catch7AutoRegD0Ev
FNDA:8,_ZN5Catch7AutoRegD2Ev
FNDA:0,_ZN5Catch8TestSpec7PatternC2ERKNSt7__cxx1112basic_stringIcSt11char_traitsIcESaIcEEE
FNDA:0,_ZN5Catch8TestSpec7PatternD0Ev
FNDA:0,_ZN5Catch8TestSpec7PatternD2Ev
FNDA:0,_ZNK5Catch8TestSpec7Pattern4nameB5cxx11Ev
FNDA:0,_ZN5Catch8TestSpec11NamePatternC2ERKNSt7__cxx1112basic_stringIcSt11char_traitsIcESaIcEEES9_
FNDA:0,_ZNK5Catch8TestSpec11NamePattern7matchesERKNS_12TestCaseInfoE
FNDA:0,_ZN5Catch8TestSpec10TagPatternC2ERKNSt7__cxx1112basic_stringIcSt11char_traitsIcESaIcEEES9_
FNDA:0,_ZNK5Catch8TestSpec10TagPattern7matchesERKNS_12TestCaseInfoE
FNDA:0,_ZN5Catch8TestSpec15ExcludedPatternC2ERKSt10shared_ptrINS0_7PatternEE
FNDA:0,_ZNK5Catch8TestSpec15ExcludedPattern7matchesERKNS_12TestCaseInfoE
FNDA:0,_ZNK5Catch8TestSpec6Filter7matchesERKNS_12TestCaseInfoE
FNDA:0,_ZZNK5Catch8TestSpec6Filter7matchesERKNS_12TestCaseInfoEENKUlRKSt10shared_ptrINS0_7PatternEEE_clES9_
FNDA:0,_ZNK5Catch8TestSpec6Filter4nameB5cxx11Ev
FNDA:1,_ZNK5Catch8TestSpec10hasFiltersEv
FNDA:0,_ZNK5Catch8TestSpec7matchesERKNS_12TestCaseInfoE
FNDA:0,_ZZNK5Catch8TestSpec7matchesERKNS_12TestCaseInfoEENKUlRKNS0_6FilterEE_clES6_
FNDA:1,_ZNK5Catch8TestSpec15matchesByFilterERKSt6vectorINS_8TestCaseESaIS2_EERKNS_7IConfigE
FNDA:0,_ZZNK5Catch8TestSpec15matchesByFilterERKSt6vectorINS_8TestCaseESaIS2_EERKNS_7IConfigEENKUlRKNS0_6FilterEE_clESC_
FNDA:2,_ZNK5Catch8TestSpec14getInvalidArgsB5cxx11Ev
FNDA:1,_ZN5Catch14TestSpecParserC2ERKNS_17ITagAliasRegistryE
FNDA:0,_ZN5Catch14TestSpecParser5parseERKNSt7__cxx1112basic_stringIcSt11char_traitsIcESaIcEEE
FNDA:1,_ZN5Catch14TestSpecParser8testSpecEv
FNDA:0,_ZN5Catch14TestSpecParser9visitCharEc
FNDA:0,_ZN5Catch14TestSpecParser15processNoneCharEc
FNDA:0,_ZN5Catch14TestSpecParser15processNameCharEc
FNDA:0,_ZN5Catch14TestSpecParser16processOtherCharEc
FNDA:0,_ZN5Catch14TestSpecParser12startNewModeENS0_4ModeE
FNDA:0,_ZN5Catch14TestSpecParser7endModeEv
FNDA:0,_ZN5Catch14TestSpecParser6escapeEv
FNDA:0,_ZNK5Catch14TestSpecParser13isControlCharEc
FNDA:1,_ZN5Catch14TestSpecParser9addFilterEv
FNDA:0,_ZN5Catch14TestSpecParser12saveLastModeEv
FNDA:0,_ZN5Catch14TestSpecParser20revertBackToLastModeEv
FNDA:0,_ZN5Catch14TestSpecParser8separateEv
FNDA:0,_ZN5Catch14TestSpecParser17preprocessPatternB5cxx11Ev
FNDA:0,_ZN5Catch14TestSpecParser14addNamePatternEv
FNDA:0,_ZN5Catch14TestSpecParser13addTagPatternEv
FNDA:0,_ZN5Catch13parseTestSpecERKNSt7__cxx1112basic_stringIcSt11char_traitsIcESaIcEEE
FNDA:1516,_ZN5Catch31getCurrentNanosecondsSinceEpochEv
FNDA:0,_ZN5Catch12_GLOBAL__N_123estimateClockResolutionEv
FNDA:0,_ZN5Catch27getEstimatedClockResolutionEv
FNDA:1346,_ZN5Catch5Timer5startEv
FNDA:170,_ZNK5Catch5Timer21getElapsedNanosecondsEv
FNDA:170,_ZNK5Catch5Timer22getElapsedMicrosecondsEv
FNDA:0,_ZNK5Catch5Timer22getElapsedMillisecondsEv
FNDA:170,_ZNK5Catch5Timer17getElapsedSecondsEv
FNDA:0,_ZN5Catch6Detail12_GLOBAL__N_110Endianness5whichEv
FNDA:0,_ZN5Catch6Detail17rawMemoryToStringB5cxx11EPKvm
FNDA:0,_ZN5Catch10fpToStringIdEENSt7__cxx1112basic_stringIcSt11char_traitsIcESaIcEEET_i
FNDA:0,_ZN5Catch10fpToStringIfEENSt7__cxx1112basic_stringIcSt11char_traitsIcESaIcEEET_i
FNDA:0,_ZN5Catch11StringMakerINSt7__cxx1112basic_stringIcSt11char_traitsIcESaIcEEEvE7convertERKS6_
FNDA:0,_ZN5Catch11StringMakerISt17basic_string_viewIcSt11char_traitsIcEEvE7convertB5cxx11ES4_
FNDA:0,_ZN5Catch11StringMakerIPKcvE7convertB5cxx11ES2_
FNDA:0,_ZN5Catch11StringMakerIPcvE7convertB5cxx11ES1_
FNDA:0,_ZN5Catch11StringMakerINSt7__cxx1112basic_stringIwSt11char_traitsIwESaIwEEEvE7convertERKS6_
FNDA:0,_ZN5Catch11StringMakerISt17basic_string_viewIwSt11char_traitsIwEEvE7convertB5cxx11ES4_
FNDA:0,_ZN5Catch11StringMakerIPKwvE7convertB5cxx11ES2_
FNDA:0,_ZN5Catch11StringMakerIPwvE7convertB5cxx11ES1_
FNDA:0,_ZN5Catch11StringMakerISt4bytevE7convertB5cxx11ES1_
FNDA:0,_ZN5Catch11StringMakerIivE7convertB5cxx11Ei
FNDA:0,_ZN5Catch11StringMakerIlvE7convertB5cxx11El
FNDA:0,_ZN5Catch11StringMakerIxvE7convertB5cxx11Ex
FNDA:0,_ZN5Catch11StringMakerIjvE7convertB5cxx11Ej
FNDA:0,_ZN5Catch11StringMakerImvE7convertB5cxx11Em
FNDA:0,_ZN5Catch11StringMakerIyvE7convertB5cxx11Ey
FNDA:0,_ZN5Catch11StringMakerIbvE7convertB5cxx11Eb
FNDA:0,_ZN5Catch11StringMakerIavE7convertB5cxx11Ea
FNDA:0,_ZN5Catch11StringMakerIcvE7convertB5cxx11Ec
FNDA:0,_ZN5Catch11StringMakerIhvE7convertB5cxx11Eh
FNDA:0,_ZN5Catch11StringMakerIDnvE7convertB5cxx11EDn
FNDA:0,_ZN5Catch11StringMakerIfvE7convertB5cxx11Ef
FNDA:0,_ZN5Catch11StringMakerIdvE7convertB5cxx11Ed
FNDA:0,_ZN5Catch12ratio_stringISt5ratioILl1ELl1000000000000000000EEE6symbolB5cxx11Ev
FNDA:0,_ZN5Catch12ratio_stringISt5ratioILl1ELl1000000000000000EEE6symbolB5cxx11Ev
FNDA:0,_ZN5Catch12ratio_stringISt5ratioILl1ELl1000000000000EEE6symbolB5cxx11Ev
FNDA:0,_ZN5Catch12ratio_stringISt5ratioILl1ELl1000000000EEE6symbolB5cxx11Ev
FNDA:0,_ZN5Catch12ratio_stringISt5ratioILl1ELl1000000EEE6symbolB5cxx11Ev
FNDA:0,_ZN5Catch12ratio_stringISt5ratioILl1ELl1000EEE6symbolB5cxx11Ev
FNDA:186,_ZNK5Catch6CountsmiERKS0_
FNDA:24,_ZN5Catch6CountspLERKS0_
FNDA:176,_ZNK5Catch6Counts5totalEv
FNDA:2,_ZNK5Catch6Counts9allPassedEv
FNDA:0,_ZNK5Catch6Counts5allOkEv
FNDA:8,_ZNK5Catch6TotalsmiERKS0_
FNDA:8,_ZN5Catch6TotalspLERKS0_
FNDA:8,_ZNK5Catch6Totals5deltaERKS0_
FNDA:85,_ZN5Catch19uncaught_exceptionsEv
FNDA:0,_ZN5Catch7VersionC2EjjjPKcj
FNDA:0,_ZN5CatchlsERSoRKNS_7VersionE
FNDA:0,_ZN5Catch14libraryVersionEv
FNDA:0,_ZN5Catch15WildcardPatternC2ERKNSt7__cxx1112basic_stringIcSt11char_traitsIcESaIcEEENS_13CaseSensitive6ChoiceE
FNDA:0,_ZNK5Catch15WildcardPattern7matchesERKNSt7__cxx1112basic_stringIcSt11char_traitsIcESaIcEEE
FNDA:0,_ZNK5Catch15WildcardPattern15normaliseStringERKNSt7__cxx1112basic_stringIcSt11char_traitsIcESaIcEEE
FNDA:0,_ZN5Catch12_GLOBAL__N_113trailingBytesEh
FNDA:0,_ZN5Catch12_GLOBAL__N_111headerValueEh
FNDA:0,_ZN5Catch12_GLOBAL__N_113hexEscapeCharERSoh
FNDA:0,_ZN5Catch12_GLOBAL__N_113shouldNewlineENS_13XmlFormattingE
FNDA:0,_ZN5Catch12_GLOBAL__N_112shouldIndentENS_13XmlFormattingE
FNDA:0,_ZN5CatchorENS_13XmlFormattingES0_
FNDA:0,_ZN5CatchanENS_13XmlFormattingES0_
FNDA:0,_ZN5Catch9XmlEncodeC2ERKNSt7__cxx1112basic_stringIcSt11char_traitsIcESaIcEEENS0_7ForWhatE
FNDA:0,_ZNK5Catch9XmlEncode8encodeToERSo
FNDA:0,_ZN5Catch6Detail17rawMemoryToStringIP4CardEENSt7__cxx1112basic_stringIcSt11char_traitsIcESaIcEEERKT_
FNDA:0,_ZN5Catch6Detail17rawMemoryToStringIP4PileEENSt7__cxx1112basic_stringIcSt11char_traitsIcESaIcEEERKT_
FNDA:0,_ZN5CatchlsERSoRKNS_9XmlEncodeE
FNDA:0,_ZN5Catch9XmlWriter13ScopedElementC2EPS0_NS_13XmlFormattingE
FNDA:0,_ZN5Catch9XmlWriter13ScopedElementC2EOS1_
FNDA:0,_ZN5Catch9XmlWriter13ScopedElementaSEOS1_
FNDA:0,_ZN5Catch9XmlWriter13ScopedElementD2Ev
FNDA:0,_ZN5Catch9XmlWriter13ScopedElement9writeTextERKNSt7__cxx1112basic_stringIcSt11char_traitsIcESaIcEEENS_13XmlFormattingE
FNDA:0,_ZN5Catch9XmlWriterC2ERSo
FNDA:0,_ZN5Catch9XmlWriterD2Ev
FNDA:0,_ZN5Catch9XmlWriter12startElementERKNSt7__cxx1112basic_stringIcSt11char_traitsIcESaIcEEENS_13XmlFormattingE
FNDA:0,_ZN5Catch9XmlWriter13scopedElementERKNSt7__cxx1112basic_stringIcSt11char_traitsIcESaIcEEENS_13XmlFormattingE
FNDA:0,_ZN5Catch9XmlWriter10endElementENS_13XmlFormattingE
FNDA:0,_ZN5Catch9XmlWriter14writeAttributeERKNSt7__cxx1112basic_stringIcSt11char_traitsIcESaIcEEES8_
FNDA:0,_ZN5Catch9XmlWriter14writeAttributeERKNSt7__cxx1112basic_stringIcSt11char_traitsIcESaIcEEEb
FNDA:0,_ZN5Catch9XmlWriter9writeTextERKNSt7__cxx1112basic_stringIcSt11char_traitsIcESaIcEEENS_13XmlFormattingE
FNDA:0,_ZN5Catch9XmlWriter12writeCommentERKNSt7__cxx1112basic_stringIcSt11char_traitsIcESaIcEEENS_13XmlFormattingE
FNDA:0,_ZN5Catch9XmlWriter18writeStylesheetRefERKNSt7__cxx1112basic_stringIcSt11char_traitsIcESaIcEEE
FNDA:0,_ZN5Catch9XmlWriter14writeBlankLineEv
FNDA:0,_ZN5Catch9XmlWriter15ensureTagClosedEv
FNDA:0,_ZN5Catch9XmlWriter15applyFormattingENS_13XmlFormattingE
FNDA:0,_ZN5Catch9XmlWriter16writeDeclarationEv
FNDA:0,_ZN5Catch9XmlWriter18newlineIfNecessaryEv
FNDA:0,_ZN5Catch25prepareExpandedExpressionERNS_15AssertionResultE
FNDA:0,_ZN5Catch20getFormattedDurationB5cxx11Ed
FNDA:170,_ZN5Catch18shouldShowDurationERKNS_7IConfigEd
FNDA:0,_ZN5Catch16serializeFiltersERKSt6vectorINSt7__cxx1112basic_stringIcSt11char_traitsIcESaIcEEESaIS6_EE
FNDA:0,_ZN5Catch21TestEventListenerBaseC2ERKNS_14ReporterConfigE
FNDA:0,_ZN5Catch21TestEventListenerBase23getSupportedVerbositiesEv
FNDA:0,_ZN5Catch21TestEventListenerBase17assertionStartingERKNS_13AssertionInfoE
FNDA:0,_ZN5Catch21TestEventListenerBase14assertionEndedERKNS_14AssertionStatsE
FNDA:0,_ZN12_GLOBAL__N_112failedStringEv
FNDA:0,_ZN12_GLOBAL__N_112passedStringEv
FNDA:0,_ZN12_GLOBAL__N_19dimColourEv
FNDA:0,_ZN12_GLOBAL__N_19bothOrAllEm
FNDA:0,_ZN5Catch12_GLOBAL__N_111printTotalsERSoRKNS_6TotalsE
FNDA:0,_ZN5Catch12_GLOBAL__N_116AssertionPrinterC2ERSoRKNS_14AssertionStatsEb
FNDA:0,_ZN5Catch12_GLOBAL__N_116AssertionPrinter5printEv
FNDA:0,_ZNK5Catch12_GLOBAL__N_116AssertionPrinter15printSourceInfoEv
FNDA:0,_ZNK5Catch12_GLOBAL__N_116AssertionPrinter15printResultTypeENS_6Colour4CodeERKNSt7__cxx1112basic_stringIcSt11char_traitsIcESaIcEEE
FNDA:0,_ZNK5Catch12_GLOBAL__N_116AssertionPrinter10printIssueERKNSt7__cxx1112basic_stringIcSt11char_traitsIcESaIcEEE
FNDA:0,_ZN5Catch12_GLOBAL__N_116AssertionPrinter18printExpressionWasEv
FNDA:0,_ZNK5Catch12_GLOBAL__N_116AssertionPrinter23printOriginalExpressionEv
FNDA:0,_ZNK5Catch12_GLOBAL__N_116AssertionPrinter28printReconstructedExpressionEv
FNDA:0,_ZN5Catch12_GLOBAL__N_116AssertionPrinter12printMessageEv
FNDA:0,_ZN5Catch12_GLOBAL__N_116AssertionPrinter22printRemainingMessagesENS_6Colour4CodeE
FNDA:0,_ZN5Catch15CompactReporter14getDescriptionB5cxx11Ev
FNDA:0,_ZN5Catch15CompactReporter19noMatchingTestCasesERKNSt7__cxx1112basic_stringIcSt11char_traitsIcESaIcEEE
FNDA:0,_ZN5Catch15CompactReporter17assertionStartingERKNS_13AssertionInfoE
FNDA:0,_ZN5Catch15CompactReporter14assertionEndedERKNS_14AssertionStatsE
FNDA:0,_ZN5Catch15CompactReporter12sectionEndedERKNS_12SectionStatsE
FNDA:0,_ZN5Catch15CompactReporter12testRunEndedERKNS_12TestRunStatsE
FNDA:0,_ZN5Catch15CompactReporterD0Ev
FNDA:0,_ZN5Catch15CompactReporterD2Ev
FNDA:0,_ZN5Catch12_GLOBAL__N_123ConsoleAssertionPrinterC2ERSoRKNS_14AssertionStatsEb
FNDA:0,_ZN5Catch11StringMakerI4CardvE7convertIS1_EENSt9enable_ifIXsrNS_6Detail18IsStreamInsertableIT_EE5valueENSt7__cxx1112basic_stringIcSt11char_traitsIcESaIcEEEE4typeERKS7_
FNDA:0,_ZN5Catch11StringMakerIN4Card5COLOREvE7convertIS2_EENSt9enable_ifIXsrNS_6Detail18IsStreamInsertableIT_EE5valueENSt7__cxx1112basic_stringIcSt11char_traitsIcESaIcEEEE4typeERKS8_
FNDA:0,_ZN5Catch11StringMakerIN4Card9CARD_TYPEEvE7convertIS2_EENSt9enable_ifIXsrNS_6Detail18IsStreamInsertableIT_EE5valueENSt7__cxx1112basic_stringIcSt11char_traitsIcESaIcEEEE4typeERKS8_
FNDA:0,_ZN5Catch11StringMakerINS_14SourceLineInfoEvE7convertIS1_EENSt9enable_ifIXsrNS_6Detail18IsStreamInsertableIT_EE5valueENSt7__cxx1112basic_stringIcSt11char_traitsIcESaIcEEEE4typeERKS7_
FNDA:0,_ZNK5Catch12_GLOBAL__N_123ConsoleAssertionPrinter5printEv
FNDA:0,_ZNK5Catch12_GLOBAL__N_123ConsoleAssertionPrinter15printResultTypeEv
FNDA:0,_ZNK5Catch12_GLOBAL__N_123ConsoleAssertionPrinter23printOriginalExpressionEv
FNDA:0,_ZNK5Catch12_GLOBAL__N_123ConsoleAssertionPrinter28printReconstructedExpressionEv
FNDA:0,_ZNK5Catch12_GLOBAL__N_123ConsoleAssertionPrinter12printMessageEv
FNDA:0,_ZNK5Catch12_GLOBAL__N_123ConsoleAssertionPrinter15printSourceInfoEv
FNDA:3,_ZN5Catch12_GLOBAL__N_19makeRatioEmm
FNDA:1,_ZN5Catch12_GLOBAL__N_17findMaxERmS1_S1_
FNDA:1,_ZN5Catch12TablePrinterC2ERSoSt6vectorINS_12_GLOBAL__N_110ColumnInfoESaIS4_EE
FNDA:348,_ZN5Catch12TablePrinter5closeEv
FNDA:0,_ZN5CatchlsERNS_12TablePrinterENS_12_GLOBAL__N_18RowBreakE
FNDA:0,_ZN5Catch6Detail9stringifyI4CardEENSt7__cxx1112basic_stringIcSt11char_traitsIcESaIcEEERKT_
FNDA:0,_ZN5Catch6Detail9stringifyI5QListIP4CardEEENSt7__cxx1112basic_stringIcSt11char_traitsIcESaIcEEERKT_
FNDA:0,_ZN5Catch6Detail9stringifyIN4Card5COLOREEENSt7__cxx1112basic_stringIcSt11char_traitsIcESaIcEEERKT_
FNDA:0,_ZN5Catch6Detail9stringifyIN4Card9CARD_TYPEEEENSt7__cxx1112basic_stringIcSt11char_traitsIcESaIcEEERKT_
FNDA:0,_ZN5Catch6Detail9stringifyINS_14SourceLineInfoEEENSt7__cxx1112basic_stringIcSt11char_traitsIcESaIcEEERKT_
FNDA:0,_ZN5Catch6Detail9stringifyINSt7__cxx1112basic_stringIcSt11char_traitsIcESaIcEEEEES7_RKT_
FNDA:0,_ZN5Catch6Detail9stringifyINSt7__cxx1112basic_stringIwSt11char_traitsIwESaIwEEEEENS3_IcS4_IcESaIcEEERKT_
FNDA:0,_ZN5Catch6Detail9stringifyIP4CardEENSt7__cxx1112basic_stringIcSt11char_traitsIcESaIcEEERKT_
FNDA:0,_ZN5Catch6Detail9stringifyIP4PileEENSt7__cxx1112basic_stringIcSt11char_traitsIcESaIcEEERKT_
FNDA:0,_ZN5Catch6Detail9stringifyIaEENSt7__cxx1112basic_stringIcSt11char_traitsIcESaIcEEERKT_
FNDA:0,_ZN5Catch6Detail9stringifyIbEENSt7__cxx1112basic_stringIcSt11char_traitsIcESaIcEEERKT_
FNDA:0,_ZN5Catch6Detail9stringifyIcEENSt7__cxx1112basic_stringIcSt11char_traitsIcESaIcEEERKT_
FNDA:0,_ZN5Catch6Detail9stringifyIdEENSt7__cxx1112basic_stringIcSt11char_traitsIcESaIcEEERKT_
FNDA:0,_ZN5Catch6Detail9stringifyIiEENSt7__cxx1112basic_stringIcSt11char_traitsIcESaIcEEERKT_
FNDA:0,_ZN5Catch6Detail9stringifyIjEENSt7__cxx1112basic_stringIcSt11char_traitsIcESaIcEEERKT_
FNDA:0,_ZN5Catch6Detail9stringifyIxEENSt7__cxx1112basic_stringIcSt11char_traitsIcESaIcEEERKT_
FNDA:0,_ZN5Catch6Detail9stringifyIyEENSt7__cxx1112basic_stringIcSt11char_traitsIcESaIcEEERKT_
FNDA:1,_ZN5Catch15ConsoleReporterC2ERKNS_14ReporterConfigE
FNDA:1,_ZZN5Catch15ConsoleReporterC4ERKNS_14ReporterConfigEENKUlvE_clEv
FNDA:1,_ZN5Catch15ConsoleReporterD0Ev
FNDA:1,_ZN5Catch15ConsoleReporterD2Ev
FNDA:0,_ZN5Catch15ConsoleReporter14getDescriptionB5cxx11Ev
FNDA:0,_ZN5Catch15ConsoleReporter19noMatchingTestCasesERKNSt7__cxx1112basic_stringIcSt11char_traitsIcESaIcEEE
FNDA:0,_ZN5Catch15ConsoleReporter22reportInvalidArgumentsERKNSt7__cxx1112basic_stringIcSt11char_traitsIcESaIcEEE
FNDA:76,_ZN5Catch15ConsoleReporter17assertionStartingERKNS_13AssertionInfoE
FNDA:14,_ZN5Catch15ConsoleReporter14assertionEndedERKNS_14AssertionStatsE
FNDA:170,_ZN5Catch15ConsoleReporter15sectionStartingERKNS_11SectionInfoE
FNDA:170,_ZN5Catch15ConsoleReporter12sectionEndedERKNS_12SectionStatsE
FNDA:8,_ZN5Catch15ConsoleReporter13testCaseEndedERKNS_13TestCaseStatsE
FNDA:1,_ZN5Catch15ConsoleReporter14testGroupEndedERKNS_14TestGroupStatsE
FNDA:1,_ZN5Catch15ConsoleReporter12testRunEndedERKNS_12TestRunStatsE
FNDA:1,_ZN5Catch15ConsoleReporter15testRunStartingERKNS_11TestRunInfoE
FNDA:0,_ZN5Catch15ConsoleReporter9lazyPrintEv
FNDA:0,_ZN5Catch15ConsoleReporter37lazyPrintWithoutClosingBenchmarkTableEv
FNDA:0,_ZN5Catch15ConsoleReporter16lazyPrintRunInfoEv
FNDA:0,_ZN5Catch15ConsoleReporter18lazyPrintGroupInfoEv
FNDA:0,_ZN5Catch15ConsoleReporter29printTestCaseAndSectionHeaderEv
FNDA:0,_ZN5Catch15ConsoleReporter17printClosedHeaderERKNSt7__cxx1112basic_stringIcSt11char_traitsIcESaIcEEE
FNDA:0,_ZN5Catch15ConsoleReporter15printOpenHeaderERKNSt7__cxx1112basic_stringIcSt11char_traitsIcESaIcEEE
FNDA:0,_ZN5Catch15ConsoleReporter17printHeaderStringERKNSt7__cxx1112basic_stringIcSt11char_traitsIcESaIcEEEm
FNDA:0,_ZN5Catch13SummaryColumnC2ENSt7__cxx1112basic_stringIcSt11char_traitsIcESaIcEEENS_6Colour4CodeE
FNDA:0,_ZN5Catch13SummaryColumn6addRowEm
FNDA:1,_ZN5Catch15ConsoleReporter11printTotalsERKNS_6TotalsE
FNDA:0,_ZN5Catch15ConsoleReporter15printSummaryRowERKNSt7__cxx1112basic_stringIcSt11char_traitsIcESaIcEEERKSt6vectorINS_13SummaryColumnESaISA_EEm
FNDA:1,_ZN5Catch15ConsoleReporter18printTotalsDividerERKNS_6TotalsE
FNDA:0,_ZN5Catch15ConsoleReporter19printSummaryDividerEv
FNDA:1,_ZN5Catch15ConsoleReporter16printTestFiltersEv
FNDA:0,_ZN5Catch12_GLOBAL__N_119getCurrentTimestampEv
FNDA:0,_ZN5Catch12_GLOBAL__N_111fileNameTagERKSt6vectorINSt7__cxx1112basic_stringIcSt11char_traitsIcESaIcEEESaIS7_EE
FNDA:0,_ZZN5Catch12_GLOBAL__N_111fileNameTagERKSt6vectorINSt7__cxx1112basic_stringIcSt11char_traitsIcESaIcEEESaIS7_EEENKUlRKS7_E_clESD_
FNDA:0,_ZN5Catch12_GLOBAL__N_114formatDurationEd
FNDA:0,_ZN5Catch13JunitReporterC2ERKNS_14ReporterConfigE
FNDA:0,_ZN5Catch13JunitReporterD0Ev
FNDA:0,_ZN5Catch13JunitReporterD2Ev
FNDA:0,_ZN5Catch13JunitReporter14getDescriptionB5cxx11Ev
FNDA:0,_ZN5Catch13JunitReporter19noMatchingTestCasesERKNSt7__cxx1112basic_stringIcSt11char_traitsIcESaIcEEE
FNDA:0,_ZN5Catch13JunitReporter15testRunStartingERKNS_11TestRunInfoE
FNDA:0,_ZN5Catch13JunitReporter17testGroupStartingERKNS_9GroupInfoE
FNDA:0,_ZN5Catch13JunitReporter16testCaseStartingERKNS_12TestCaseInfoE
FNDA:0,_ZN5Catch13JunitReporter14assertionEndedERKNS_14AssertionStatsE
FNDA:0,_ZN5Catch13JunitReporter13testCaseEndedERKNS_13TestCaseStatsE
FNDA:0,_ZN5Catch13JunitReporter14testGroupEndedERKNS_14TestGroupStatsE
FNDA:0,_ZN5Catch13JunitReporter22testRunEndedCumulativeEv
FNDA:0,_ZN5Catch13JunitReporter10writeGroupERKNS_22CumulativeReporterBaseIS0_E4NodeINS_14TestGroupStatsENS3_INS_13TestCaseStatsENS2_11SectionNodeEEEEEd
FNDA:0,_ZN5Catch13JunitReporter13writeTestCaseERKNS_22CumulativeReporterBaseIS0_E4NodeINS_13TestCaseStatsENS2_11SectionNodeEEE
FNDA:0,_ZN5Catch13JunitReporter12writeSectionERKNSt7__cxx1112basic_stringIcSt11char_traitsIcESaIcEEES8_RKNS_22CumulativeReporterBaseIS0_E11SectionNodeEb
FNDA:0,_ZN5Catch13JunitReporter15writeAssertionsERKNS_22CumulativeReporterBaseIS0_E11SectionNodeE
FNDA:0,_ZN5Catch13JunitReporter14writeAssertionERKNS_14AssertionStatsE
FNDA:0,_ZN5Catch17ListeningReporterC2Ev
FNDA:0,_ZN5Catch17ListeningReporter11addListenerEOSt10unique_ptrINS_18IStreamingReporterESt14default_deleteIS2_EE
FNDA:0,_ZN5Catch17ListeningReporter11addReporterEOSt10unique_ptrINS_18IStreamingReporterESt14default_deleteIS2_EE
FNDA:0,_ZNK5Catch17ListeningReporter14getPreferencesEv
FNDA:0,_ZN5Catch17ListeningReporter23getSupportedVerbositiesEv
FNDA:0,_ZN5Catch17ListeningReporter19noMatchingTestCasesERKNSt7__cxx1112basic_stringIcSt11char_traitsIcESaIcEEE
FNDA:0,_ZN5Catch17ListeningReporter22reportInvalidArgumentsERKNSt7__cxx1112basic_stringIcSt11char_traitsIcESaIcEEE
FNDA:0,_ZN5Catch17ListeningReporter15testRunStartingERKNS_11TestRunInfoE
FNDA:0,_ZN5Catch17ListeningReporter17testGroupStartingERKNS_9GroupInfoE
FNDA:0,_ZN5Catch17ListeningReporter16testCaseStartingERKNS_12TestCaseInfoE
FNDA:0,_ZN5Catch17ListeningReporter15sectionStartingERKNS_11SectionInfoE
FNDA:0,_ZN5Catch17ListeningReporter17assertionStartingERKNS_13AssertionInfoE
FNDA:0,_ZN5Catch17ListeningReporter14assertionEndedERKNS_14AssertionStatsE
FNDA:0,_ZN5Catch17ListeningReporter12sectionEndedERKNS_12SectionStatsE
FNDA:0,_ZN5Catch17ListeningReporter13testCaseEndedERKNS_13TestCaseStatsE
FNDA:0,_ZN5Catch17ListeningReporter14testGroupEndedERKNS_14TestGroupStatsE
FNDA:0,_ZN5Catch17ListeningReporter12testRunEndedERKNS_12TestRunStatsE
FNDA:0,_ZN5Catch17ListeningReporter8skipTestERKNS_12TestCaseInfoE
FNDA:0,_ZNK5Catch17ListeningReporter7isMultiEv
FNDA:0,_ZN5Catch11XmlReporterC2ERKNS_14ReporterConfigE
FNDA:0,_ZN5Catch11XmlReporterD0Ev
FNDA:0,_ZN5Catch11XmlReporterD2Ev
FNDA:0,_ZN5Catch11XmlReporter14getDescriptionB5cxx11Ev
FNDA:0,_ZNK5Catch11XmlReporter16getStylesheetRefB5cxx11Ev
FNDA:0,_ZN5Catch11XmlReporter15writeSourceInfoERKNS_14SourceLineInfoE
FNDA:0,_ZN5Catch11XmlReporter19noMatchingTestCasesERKNSt7__cxx1112basic_stringIcSt11char_traitsIcESaIcEEE
FNDA:0,_ZN5Catch11XmlReporter15testRunStartingERKNS_11TestRunInfoE
FNDA:0,_ZN5Catch11XmlReporter17testGroupStartingERKNS_9GroupInfoE
FNDA:0,_ZN5Catch11XmlReporter16testCaseStartingERKNS_12TestCaseInfoE
FNDA:0,_ZN5Catch11XmlReporter15sectionStartingERKNS_11SectionInfoE
FNDA:0,_ZN5Catch11XmlReporter17assertionStartingERKNS_13AssertionInfoE
FNDA:0,_ZN5Catch11XmlReporter14assertionEndedERKNS_14AssertionStatsE
FNDA:0,_ZN5Catch11XmlReporter12sectionEndedERKNS_12SectionStatsE
FNDA:0,_ZN5Catch11XmlReporter13testCaseEndedERKNS_13TestCaseStatsE
FNDA:0,_ZN5Catch11XmlReporter14testGroupEndedERKNS_14TestGroupStatsE
FNDA:0,_ZN5Catch11XmlReporter12testRunEndedERKNS_12TestRunStatsE
FNDA:0,_ZN5Catch11StringMakerIP4CardvE7convertIS1_EENSt7__cxx1112basic_stringIcSt11char_traitsIcESaIcEEEPT_
FNDA:0,_ZN5Catch11StringMakerIP4PilevE7convertIS1_EENSt7__cxx1112basic_stringIcSt11char_traitsIcESaIcEEEPT_
FNDA:0,_ZN5Catch6Detail13rangeToStringIN5QListIP4CardE14const_iteratorES6_EENSt7__cxx1112basic_stringIcSt11char_traitsIcESaIcEEET_T0_
FNDA:0,_ZN5Catch13rangeToStringI5QListIP4CardEEENSt7__cxx1112basic_stringIcSt11char_traitsIcESaIcEEERKT_
FNDA:0,_ZN5Catch11StringMakerI5QListIP4CardEvE7convertB5cxx11ERKS4_
FNDA:0,_ZNK5Catch20ITransientExpression18isBinaryExpressionEv
FNDA:76,_ZNK5Catch20ITransientExpression9getResultEv
FNDA:76,_ZN5Catch20ITransientExpressionC2Ebb
FNDA:0,_ZNK5Catch10BinaryExprIRK4CardS3_E29streamReconstructedExpressionERSo
FNDA:0,_ZNK5Catch10BinaryExprIRK5QListIP4CardES6_E29streamReconstructedExpressionERSo
FNDA:0,_ZNK5Catch10BinaryExprIRKN4Card5COLORES4_E29streamReconstructedExpressionERSo
FNDA:0,_ZNK5Catch10BinaryExprIRKN4Card9CARD_TYPEES4_E29streamReconstructedExpressionERSo
FNDA:0,_ZNK5Catch10BinaryExprIRKNSt7__cxx1112basic_stringIcSt11char_traitsIcESaIcEEES8_E29streamReconstructedExpressionERSo
FNDA:0,_ZNK5Catch10BinaryExprIRKP4CardS4_E29streamReconstructedExpressionERSo
FNDA:0,_ZNK5Catch10BinaryExprIRKP4PileS4_E29streamReconstructedExpressionERSo
FNDA:0,_ZNK5Catch10BinaryExprIRKiS2_E29streamReconstructedExpressionERSo
FNDA:0,_ZNK5Catch10BinaryExprIRKjRKiE29streamReconstructedExpressionERSo
FNDA:0,_ZNK5Catch10BinaryExprIRKjRKxE29streamReconstructedExpressionERSo
FNDA:0,_ZNK5Catch10BinaryExprIRKjS2_E29streamReconstructedExpressionERSo
FNDA:0,_ZNK5Catch10BinaryExprIRKxRKiE29streamReconstructedExpressionERSo
FNDA:0,_ZNK5Catch10BinaryExprIbbE29streamReconstructedExpressionERSo
FNDA:4,_ZN5Catch10BinaryExprIRK4CardS3_EC2EbS3_NS_9StringRefES3_
FNDA:5,_ZN5Catch10BinaryExprIRK5QListIP4CardES6_EC2EbS6_NS_9StringRefES6_
FNDA:6,_ZN5Catch10BinaryExprIRKN4Card5COLORES4_EC2EbS4_NS_9StringRefES4_
FNDA:7,_ZN5Catch10BinaryExprIRKN4Card9CARD_TYPEES4_EC2EbS4_NS_9StringRefES4_
FNDA:3,_ZN5Catch10BinaryExprIRKNSt7__cxx1112basic_stringIcSt11char_traitsIcESaIcEEES8_EC2EbS8_NS_9StringRefES8_
FNDA:3,_ZN5Catch10BinaryExprIRKP4CardS4_EC2EbS4_NS_9StringRefES4_
FNDA:1,_ZN5Catch10BinaryExprIRKP4PileS4_EC2EbS4_NS_9StringRefES4_
FNDA:25,_ZN5Catch10BinaryExprIRKiS2_EC2EbS2_NS_9StringRefES2_
FNDA:1,_ZN5Catch10BinaryExprIRKjRKiEC2EbS2_NS_9StringRefES4_
FNDA:2,_ZN5Catch10BinaryExprIRKjRKxEC2EbS2_NS_9StringRefES4_
FNDA:2,_ZN5Catch10BinaryExprIRKjS2_EC2EbS2_NS_9StringRefES2_
FNDA:3,_ZN5Catch10BinaryExprIRKxRKiEC2EbS2_NS_9StringRefES4_
FNDA:10,_ZN5Catch10BinaryExprIbbEC2EbbNS_9StringRefEb
FNDA:0,_ZNK5Catch9UnaryExprIbE29streamReconstructedExpressionERSo
FNDA:4,_ZN5Catch9UnaryExprIbEC2Eb
FNDA:2,_ZN5Catch12compareEqualI4CardS1_EEbRKT_RKT0_
FNDA:5,_ZN5Catch12compareEqualI5QListIP4CardES4_EEbRKT_RKT0_
FNDA:5,_ZN5Catch12compareEqualIN4Card5COLORES2_EEbRKT_RKT0_
FNDA:4,_ZN5Catch12compareEqualIN4Card9CARD_TYPEES2_EEbRKT_RKT0_
FNDA:3,_ZN5Catch12compareEqualINSt7__cxx1112basic_stringIcSt11char_traitsIcESaIcEEES6_EEbRKT_RKT0_
FNDA:3,_ZN5Catch12compareEqualIP4CardS2_EEbRKT_RKT0_
FNDA:1,_ZN5Catch12compareEqualIP4PileS2_EEbRKT_RKT0_
FNDA:20,_ZN5Catch12compareEqualIiiEEbRKT_RKT0_
FNDA:1,_ZN5Catch12compareEqualIjiEEbRKT_RKT0_
FNDA:2,_ZN5Catch12compareEqualIjjEEbRKT_RKT0_
FNDA:2,_ZN5Catch12compareEqualIjxEEbRKT_RKT0_
FNDA:3,_ZN5Catch12compareEqualIxiEEbRKT_RKT0_
FNDA:2,_ZN5Catch15compareNotEqualI4CardRKS1_EEbRKT_OT0_
FNDA:1,_ZN5Catch15compareNotEqualIN4Card5COLORERKS2_EEbRKT_OT0_
FNDA:3,_ZN5Catch15compareNotEqualIN4Card9CARD_TYPEERKS2_EEbRKT_OT0_
FNDA:4,_ZN5Catch15compareNotEqualIiRKiEEbRKT_OT0_
FNDA:4,_ZN5Catch7ExprLhsIRK4CardEC2ES3_
FNDA:5,_ZN5Catch7ExprLhsIRK5QListIP4CardEEC2ES6_
FNDA:6,_ZN5Catch7ExprLhsIRKN4Card5COLOREEC2ES4_
FNDA:7,_ZN5Catch7ExprLhsIRKN4Card9CARD_TYPEEEC2ES4_
FNDA:3,_ZN5Catch7ExprLhsIRKNSt7__cxx1112basic_stringIcSt11char_traitsIcESaIcEEEEC2ES8_
FNDA:3,_ZN5Catch7ExprLhsIRKP4CardEC2ES4_
FNDA:1,_ZN5Catch7ExprLhsIRKP4PileEC2ES4_
FNDA:25,_ZN5Catch7ExprLhsIRKiEC2ES2_
FNDA:5,_ZN5Catch7ExprLhsIRKjEC2ES2_
FNDA:3,_ZN5Catch7ExprLhsIRKxEC2ES2_
FNDA:14,_ZN5Catch7ExprLhsIbEC2Eb
FNDA:2,_ZN5Catch7ExprLhsIRK4CardEeqIS1_EEKNS_10BinaryExprIS3_RKT_EES9_
FNDA:5,_ZN5Catch7ExprLhsIRK5QListIP4CardEEeqIS4_EEKNS_10BinaryExprIS6_RKT_EESC_
FNDA:5,_ZN5Catch7ExprLhsIRKN4Card5COLOREEeqIS2_EEKNS_10BinaryExprIS4_RKT_EESA_
FNDA:4,_ZN5Catch7ExprLhsIRKN4Card9CARD_TYPEEEeqIS2_EEKNS_10BinaryExprIS4_RKT_EESA_
FNDA:3,_ZN5Catch7ExprLhsIRKNSt7__cxx1112basic_stringIcSt11char_traitsIcESaIcEEEEeqIS6_EEKNS_10BinaryExprIS8_RKT_EESE_
FNDA:3,_ZN5Catch7ExprLhsIRKP4CardEeqIS2_EEKNS_10BinaryExprIS4_RKT_EESA_
FNDA:1,_ZN5Catch7ExprLhsIRKP4PileEeqIS2_EEKNS_10BinaryExprIS4_RKT_EESA_
FNDA:20,_ZN5Catch7ExprLhsIRKiEeqIiEEKNS_10BinaryExprIS2_RKT_EES8_
FNDA:1,_ZN5Catch7ExprLhsIRKjEeqIiEEKNS_10BinaryExprIS2_RKT_EES8_
FNDA:2,_ZN5Catch7ExprLhsIRKjEeqIjEEKNS_10BinaryExprIS2_RKT_EES8_
FNDA:2,_ZN5Catch7ExprLhsIRKjEeqIxEEKNS_10BinaryExprIS2_RKT_EES8_
FNDA:3,_ZN5Catch7ExprLhsIRKxEeqIiEEKNS_10BinaryExprIS2_RKT_EES8_
FNDA:10,_ZN5Catch7ExprLhsIbEeqEb
FNDA:2,_ZN5Catch7ExprLhsIRK4CardEneIS1_EEKNS_10BinaryExprIS3_RKT_EES9_
FNDA:1,_ZN5Catch7ExprLhsIRKN4Card5COLOREEneIS2_EEKNS_10BinaryExprIS4_RKT_EESA_
FNDA:3,_ZN5Catch7ExprLhsIRKN4Card9CARD_TYPEEEneIS2_EEKNS_10BinaryExprIS4_RKT_EESA_
FNDA:4,_ZN5Catch7ExprLhsIRKiEneIiEEKNS_10BinaryExprIS2_RKT_EES8_
FNDA:1,_ZN5Catch7ExprLhsIRKiEleIiEEKNS_10BinaryExprIS2_RKT_EES8_
FNDA:4,_ZNK5Catch7ExprLhsIbE13makeUnaryExprEv
FNDA:4,_ZN5Catch10DecomposerleI4CardEENS_7ExprLhsIRKT_EES6_
FNDA:5,_ZN5Catch10DecomposerleI5QListIP4CardEEENS_7ExprLhsIRKT_EES9_
FNDA:6,_ZN5Catch10DecomposerleIN4Card5COLOREEENS_7ExprLhsIRKT_EES7_
FNDA:7,_ZN5Catch10DecomposerleIN4Card9CARD_TYPEEEENS_7ExprLhsIRKT_EES7_
FNDA:3,_ZN5Catch10DecomposerleINSt7__cxx1112basic_stringIcSt11char_traitsIcESaIcEEEEENS_7ExprLhsIRKT_EESB_
FNDA:3,_ZN5Catch10DecomposerleIP4CardEENS_7ExprLhsIRKT_EES7_
FNDA:1,_ZN5Catch10DecomposerleIP4PileEENS_7ExprLhsIRKT_EES7_
FNDA:25,_ZN5Catch10DecomposerleIiEENS_7ExprLhsIRKT_EES5_
FNDA:5,_ZN5Catch10DecomposerleIjEENS_7ExprLhsIRKT_EES5_
FNDA:3,_ZN5Catch10DecomposerleIxEENS_7ExprLhsIRKT_EES5_
FNDA:14,_ZN5Catch10DecomposerleEb
FNDA:90,_ZN5Catch16AssertionHandlerD2Ev
FNDA:4,_ZN5Catch16AssertionHandler10handleExprIbEEvRKNS_7ExprLhsIT_EE
FNDA:0,_ZN5Catch14MessageBuilderlsINSt7__cxx1112basic_stringIcSt11char_traitsIcESaIcEEEEERS0_RKT_
FNDA:0,_ZN5Catch6Detail6ApproxC2IevEERKT_
FNDA:0,_ZN5Catch6Detail6ApproxC2IivEERKT_
FNDA:0,_ZN5Catch6Detail6ApproxC2IyvEERKT_
FNDA:0,_ZN5Catch8Matchers4Impl18MatcherUntypedBaseC2Ev
FNDA:0,_ZN5Catch8Matchers9Exception23ExceptionMessageMatcherC2ERKNSt7__cxx1112basic_stringIcSt11char_traitsIcESaIcEEE
FNDA:0,_ZN5Catch9MatchExprINSt7__cxx1112basic_stringIcSt11char_traitsIcESaIcEEERKNS_8Matchers4Impl11MatcherBaseIS6_EEEC2ERKS6_SC_RKNS_9StringRefE
FNDA:0,_ZNK5Catch9MatchExprINSt7__cxx1112basic_stringIcSt11char_traitsIcESaIcEEERKNS_8Matchers4Impl11MatcherBaseIS6_EEE29streamReconstructedExpressionERSo
FNDA:0,_ZN5Catch15throw_exceptionISt11logic_errorEEvRKT_
FNDA:0,_ZN5Catch15throw_exceptionISt12domain_errorEEvRKT_
FNDA:0,_ZN5Catch15throw_exceptionISt13runtime_errorEEvRKT_
FNDA:1453,_ZN5Catch24getCurrentMutableContextEv
FNDA:1451,_ZN5Catch17getCurrentContextEv
FNDA:1,_ZN5Catch6OptionINS_11TestRunInfoEEC2Ev
FNDA:1,_ZN5Catch6OptionINS_12TestCaseInfoEEC2Ev
FNDA:1,_ZN5Catch6OptionINS_15AssertionResultEEC2Ev
FNDA:1,_ZN5Catch6OptionINS_9GroupInfoEEC2Ev
FNDA:1,_ZN5Catch6OptionImEC2Ev
FNDA:1,_ZN5Catch6OptionINS_11TestRunInfoEED2Ev
FNDA:1,_ZN5Catch6OptionINS_12TestCaseInfoEED2Ev
FNDA:1,_ZN5Catch6OptionINS_15AssertionResultEED2Ev
FNDA:1,_ZN5Catch6OptionINS_9GroupInfoEED2Ev
FNDA:1,_ZN5Catch6OptionImED2Ev
FNDA:1,_ZN5Catch6OptionINS_11TestRunInfoEEaSERKS1_
FNDA:8,_ZN5Catch6OptionINS_12TestCaseInfoEEaSERKS1_
FNDA:14,_ZN5Catch6OptionINS_15AssertionResultEEaSERKS1_
FNDA:1,_ZN5Catch6OptionINS_9GroupInfoEEaSERKS1_
FNDA:0,_ZN5Catch6OptionImEaSERKm
FNDA:3,_ZN5Catch6OptionINS_11TestRunInfoEE5resetEv
FNDA:18,_ZN5Catch6OptionINS_12TestCaseInfoEE5resetEv
FNDA:15,_ZN5Catch6OptionINS_15AssertionResultEE5resetEv
FNDA:4,_ZN5Catch6OptionINS_9GroupInfoEE5resetEv
FNDA:1,_ZN5Catch6OptionImE5resetEv
FNDA:0,_ZN5Catch6OptionImEdeEv
FNDA:0,_ZNK5Catch6OptionINS_15AssertionResultEEdeEv
FNDA:0,_ZN5Catch6OptionINS_11TestRunInfoEEptEv
FNDA:0,_ZN5Catch6OptionINS_12TestCaseInfoEEptEv
FNDA:0,_ZN5Catch6OptionINS_9GroupInfoEEptEv
FNDA:0,_ZNK5Catch6OptionImE7valueOrERKm
FNDA:1,_ZNK5Catch6OptionImE4someEv
FNDA:1,_ZNK5Catch6OptionImEcvbEv
FNDA:0,_ZN5Catch11SimplePcg32C2Ev
FNDA:1368,_ZN5Catch14SourceLineInfoC2EPKcm
FNDA:0,_ZN5Catch15WildcardPatternD0Ev
FNDA:0,_ZN5Catch15WildcardPatternD2Ev
FNDA:0,_ZN5Catch14TestSpecParser16addCharToPatternEc
FNDA:0,_ZN5Catch6ConfigD0Ev
FNDA:1,_ZN5Catch6ConfigD2Ev
FNDA:1,_ZN5Catch8LazyStatINS_11TestRunInfoEEaSERKS1_
FNDA:8,_ZN5Catch8LazyStatINS_12TestCaseInfoEEaSERKS1_
FNDA:1,_ZN5Catch8LazyStatINS_9GroupInfoEEaSERKS1_
FNDA:1,_ZN5Catch8LazyStatINS_11TestRunInfoEE5resetEv
FNDA:9,_ZN5Catch8LazyStatINS_12TestCaseInfoEE5resetEv
FNDA:2,_ZN5Catch8LazyStatINS_9GroupInfoEE5resetEv
FNDA:0,_ZN5Catch14AssertionStatsC2ERKS0_
FNDA:0,_ZN5Catch12SectionStatsC2ERKS0_
FNDA:0,_ZN5Catch12SectionStatsaSERKS0_
FNDA:0,_ZN5Catch13TestCaseStatsC2ERKS0_
FNDA:0,_ZN5Catch14TestGroupStatsC2ERKS0_
FNDA:0,_ZN5Catch12TestRunStatsC2ERKS0_
FNDA:0,_ZN5Catch18IStreamingReporterD0Ev
FNDA:1,_ZN5Catch18IStreamingReporterD2Ev
FNDA:0,_ZN5Catch18IStreamingReporter22reportInvalidArgumentsERKNSt7__cxx1112basic_stringIcSt11char_traitsIcESaIcEEE
FNDA:0,_ZN5Catch21StreamingReporterBaseINS_11XmlReporterEEC2ERKNS_14ReporterConfigE
FNDA:0,_ZN5Catch21StreamingReporterBaseINS_15CompactReporterEEC2ERKNS_14ReporterConfigE
FNDA:1,_ZN5Catch21StreamingReporterBaseINS_15ConsoleReporterEEC2ERKNS_14ReporterConfigE
FNDA:0,_ZN5Catch21StreamingReporterBaseINS_21TestEventListenerBaseEEC2ERKNS_14ReporterConfigE
FNDA:0,_ZNK5Catch21StreamingReporterBaseINS_11XmlReporterEE14getPreferencesEv
FNDA:0,_ZNK5Catch21StreamingReporterBaseINS_15CompactReporterEE14getPreferencesEv
FNDA:86,_ZNK5Catch21StreamingReporterBaseINS_15ConsoleReporterEE14getPreferencesEv
FNDA:0,_ZNK5Catch21StreamingReporterBaseINS_21TestEventListenerBaseEE14getPreferencesEv
FNDA:0,_ZN5Catch21StreamingReporterBaseINS_11XmlReporterEE23getSupportedVerbositiesEv
FNDA:0,_ZN5Catch21StreamingReporterBaseINS_15CompactReporterEE23getSupportedVerbositiesEv
FNDA:1,_ZN5Catch21StreamingReporterBaseINS_15ConsoleReporterEE23getSupportedVerbositiesEv
FNDA:0,_ZN5Catch21StreamingReporterBaseINS_11XmlReporterEED0Ev
FNDA:0,_ZN5Catch21StreamingReporterBaseINS_11XmlReporterEED2Ev
FNDA:0,_ZN5Catch21StreamingReporterBaseINS_15CompactReporterEED0Ev
FNDA:0,_ZN5Catch21StreamingReporterBaseINS_15CompactReporterEED2Ev
FNDA:0,_ZN5Catch21StreamingReporterBaseINS_15ConsoleReporterEED0Ev
FNDA:1,_ZN5Catch21StreamingReporterBaseINS_15ConsoleReporterEED2Ev
FNDA:0,_ZN5Catch21StreamingReporterBaseINS_21TestEventListenerBaseEED0Ev
FNDA:0,_ZN5Catch21StreamingReporterBaseINS_21TestEventListenerBaseEED2Ev
FNDA:0,_ZN5Catch21StreamingReporterBaseINS_11XmlReporterEE19noMatchingTestCasesERKNSt7__cxx1112basic_stringIcSt11char_traitsIcESaIcEEE
FNDA:0,_ZN5Catch21StreamingReporterBaseINS_15CompactReporterEE19noMatchingTestCasesERKNSt7__cxx1112basic_stringIcSt11char_traitsIcESaIcEEE
FNDA:0,_ZN5Catch21StreamingReporterBaseINS_15ConsoleReporterEE19noMatchingTestCasesERKNSt7__cxx1112basic_stringIcSt11char_traitsIcESaIcEEE
FNDA:0,_ZN5Catch21StreamingReporterBaseINS_21TestEventListenerBaseEE19noMatchingTestCasesERKNSt7__cxx1112basic_stringIcSt11char_traitsIcESaIcEEE
FNDA:0,_ZN5Catch21StreamingReporterBaseINS_11XmlReporterEE22reportInvalidArgumentsERKNSt7__cxx1112basic_stringIcSt11char_traitsIcESaIcEEE
FNDA:0,_ZN5Catch21StreamingReporterBaseINS_15CompactReporterEE22reportInvalidArgumentsERKNSt7__cxx1112basic_stringIcSt11char_traitsIcESaIcEEE
FNDA:0,_ZN5Catch21StreamingReporterBaseINS_15ConsoleReporterEE22reportInvalidArgumentsERKNSt7__cxx1112basic_stringIcSt11char_traitsIcESaIcEEE
FNDA:0,_ZN5Catch21StreamingReporterBaseINS_21TestEventListenerBaseEE22reportInvalidArgumentsERKNSt7__cxx1112basic_stringIcSt11char_traitsIcESaIcEEE
FNDA:0,_ZN5Catch21StreamingReporterBaseINS_11XmlReporterEE15testRunStartingERKNS_11TestRunInfoE
FNDA:0,_ZN5Catch21StreamingReporterBaseINS_15CompactReporterEE15testRunStartingERKNS_11TestRunInfoE
FNDA:1,_ZN5Catch21StreamingReporterBaseINS_15ConsoleReporterEE15testRunStartingERKNS_11TestRunInfoE
FNDA:0,_ZN5Catch21StreamingReporterBaseINS_21TestEventListenerBaseEE15testRunStartingERKNS_11TestRunInfoE
FNDA:0,_ZN5Catch21StreamingReporterBaseINS_11XmlReporterEE17testGroupStartingERKNS_9GroupInfoE
FNDA:0,_ZN5Catch21StreamingReporterBaseINS_15CompactReporterEE17testGroupStartingERKNS_9GroupInfoE
FNDA:1,_ZN5Catch21StreamingReporterBaseINS_15ConsoleReporterEE17testGroupStartingERKNS_9GroupInfoE
FNDA:0,_ZN5Catch21StreamingReporterBaseINS_21TestEventListenerBaseEE17testGroupStartingERKNS_9GroupInfoE
FNDA:0,_ZN5Catch21StreamingReporterBaseINS_11XmlReporterEE16testCaseStartingERKNS_12TestCaseInfoE
FNDA:0,_ZN5Catch21StreamingReporterBaseINS_15CompactReporterEE16testCaseStartingERKNS_12TestCaseInfoE
FNDA:8,_ZN5Catch21StreamingReporterBaseINS_15ConsoleReporterEE16testCaseStartingERKNS_12TestCaseInfoE
FNDA:0,_ZN5Catch21StreamingReporterBaseINS_21TestEventListenerBaseEE16testCaseStartingERKNS_12TestCaseInfoE
FNDA:0,_ZN5Catch21StreamingReporterBaseINS_11XmlReporterEE15sectionStartingERKNS_11SectionInfoE
FNDA:0,_ZN5Catch21StreamingReporterBaseINS_15CompactReporterEE15sectionStartingERKNS_11SectionInfoE
FNDA:170,_ZN5Catch21StreamingReporterBaseINS_15ConsoleReporterEE15sectionStartingERKNS_11SectionInfoE
FNDA:0,_ZN5Catch21StreamingReporterBaseINS_21TestEventListenerBaseEE15sectionStartingERKNS_11SectionInfoE
FNDA:0,_ZN5Catch21StreamingReporterBaseINS_11XmlReporterEE12sectionEndedERKNS_12SectionStatsE
FNDA:0,_ZN5Catch21StreamingReporterBaseINS_15CompactReporterEE12sectionEndedERKNS_12SectionStatsE
FNDA:170,_ZN5Catch21StreamingReporterBaseINS_15ConsoleReporterEE12sectionEndedERKNS_12SectionStatsE
FNDA:0,_ZN5Catch21StreamingReporterBaseINS_21TestEventListenerBaseEE12sectionEndedERKNS_12SectionStatsE
FNDA:0,_ZN5Catch21StreamingReporterBaseINS_11XmlReporterEE13testCaseEndedERKNS_13TestCaseStatsE
FNDA:0,_ZN5Catch21StreamingReporterBaseINS_15CompactReporterEE13testCaseEndedERKNS_13TestCaseStatsE
FNDA:8,_ZN5Catch21StreamingReporterBaseINS_15ConsoleReporterEE13testCaseEndedERKNS_13TestCaseStatsE
FNDA:0,_ZN5Catch21StreamingReporterBaseINS_21TestEventListenerBaseEE13testCaseEndedERKNS_13TestCaseStatsE
FNDA:0,_ZN5Catch21StreamingReporterBaseINS_11XmlReporterEE14testGroupEndedERKNS_14TestGroupStatsE
FNDA:0,_ZN5Catch21StreamingReporterBaseINS_15CompactReporterEE14testGroupEndedERKNS_14TestGroupStatsE
FNDA:1,_ZN5Catch21StreamingReporterBaseINS_15ConsoleReporterEE14testGroupEndedERKNS_14TestGroupStatsE
FNDA:0,_ZN5Catch21StreamingReporterBaseINS_21TestEventListenerBaseEE14testGroupEndedERKNS_14TestGroupStatsE
FNDA:0,_ZN5Catch21StreamingReporterBaseINS_11XmlReporterEE12testRunEndedERKNS_12TestRunStatsE
FNDA:0,_ZN5Catch21StreamingReporterBaseINS_15CompactReporterEE12testRunEndedERKNS_12TestRunStatsE
FNDA:1,_ZN5Catch21StreamingReporterBaseINS_15ConsoleReporterEE12testRunEndedERKNS_12TestRunStatsE
FNDA:0,_ZN5Catch21StreamingReporterBaseINS_21TestEventListenerBaseEE12testRunEndedERKNS_12TestRunStatsE
FNDA:0,_ZN5Catch21StreamingReporterBaseINS_11XmlReporterEE8skipTestERKNS_12TestCaseInfoE
FNDA:0,_ZN5Catch21StreamingReporterBaseINS_15CompactReporterEE8skipTestERKNS_12TestCaseInfoE
FNDA:0,_ZN5Catch21StreamingReporterBaseINS_15ConsoleReporterEE8skipTestERKNS_12TestCaseInfoE
FNDA:0,_ZN5Catch21StreamingReporterBaseINS_21TestEventListenerBaseEE8skipTestERKNS_12TestCaseInfoE
FNDA:0,_ZN5Catch22CumulativeReporterBaseINS_13JunitReporterEE4NodeINS_12TestRunStatsENS3_INS_14TestGroupStatsENS3_INS_13TestCaseStatsENS2_11SectionNodeEEEEEEC2ERKS4_
FNDA:0,_ZN5Catch22CumulativeReporterBaseINS_13JunitReporterEE4NodeINS_13TestCaseStatsENS2_11SectionNodeEEC2ERKS4_
FNDA:0,_ZN5Catch22CumulativeReporterBaseINS_13JunitReporterEE4NodeINS_14TestGroupStatsENS3_INS_13TestCaseStatsENS2_11SectionNodeEEEEC2ERKS4_
FNDA:0,_ZN5Catch22CumulativeReporterBaseINS_13JunitReporterEE4NodeINS_12TestRunStatsENS3_INS_14TestGroupStatsENS3_INS_13TestCaseStatsENS2_11SectionNodeEEEEEED0Ev
FNDA:0,_ZN5Catch22CumulativeReporterBaseINS_13JunitReporterEE4NodeINS_12TestRunStatsENS3_INS_14TestGroupStatsENS3_INS_13TestCaseStatsENS2_11SectionNodeEEEEEED2Ev
FNDA:0,_ZN5Catch22CumulativeReporterBaseINS_13JunitReporterEE4NodeINS_13TestCaseStatsENS2_11SectionNodeEED0Ev
FNDA:0,_ZN5Catch22CumulativeReporterBaseINS_13JunitReporterEE4NodeINS_13TestCaseStatsENS2_11SectionNodeEED2Ev
FNDA:0,_ZN5Catch22CumulativeReporterBaseINS_13JunitReporterEE4NodeINS_14TestGroupStatsENS3_INS_13TestCaseStatsENS2_11SectionNodeEEEED0Ev
FNDA:0,_ZN5Catch22CumulativeReporterBaseINS_13JunitReporterEE4NodeINS_14TestGroupStatsENS3_INS_13TestCaseStatsENS2_11SectionNodeEEEED2Ev
FNDA:0,_ZN5Catch22CumulativeReporterBaseINS_13JunitReporterEE11SectionNodeC2ERKNS_12SectionStatsE
FNDA:0,_ZN5Catch22CumulativeReporterBaseINS_13JunitReporterEE11SectionNodeD0Ev
FNDA:0,_ZN5Catch22CumulativeReporterBaseINS_13JunitReporterEE11SectionNodeD2Ev
FNDA:0,_ZN5Catch22CumulativeReporterBaseINS_13JunitReporterEE13BySectionInfoC2ERKNS_11SectionInfoE
FNDA:0,_ZN5Catch22CumulativeReporterBaseINS_13JunitReporterEE13BySectionInfoC2ERKS3_
FNDA:0,_ZNK5Catch22CumulativeReporterBaseINS_13JunitReporterEE13BySectionInfoclERKSt10shared_ptrINS2_11SectionNodeEE
FNDA:0,_ZN5Catch22CumulativeReporterBaseINS_13JunitReporterEEC2ERKNS_14ReporterConfigE
FNDA:0,_ZN5Catch22CumulativeReporterBaseINS_13JunitReporterEED0Ev
FNDA:0,_ZN5Catch22CumulativeReporterBaseINS_13JunitReporterEED2Ev
FNDA:0,_ZNK5Catch22CumulativeReporterBaseINS_13JunitReporterEE14getPreferencesEv
FNDA:0,_ZN5Catch22CumulativeReporterBaseINS_13JunitReporterEE23getSupportedVerbositiesEv
FNDA:0,_ZN5Catch22CumulativeReporterBaseINS_13JunitReporterEE15testRunStartingERKNS_11TestRunInfoE
FNDA:0,_ZN5Catch22CumulativeReporterBaseINS_13JunitReporterEE17testGroupStartingERKNS_9GroupInfoE
FNDA:0,_ZN5Catch22CumulativeReporterBaseINS_13JunitReporterEE16testCaseStartingERKNS_12TestCaseInfoE
FNDA:0,_ZN5Catch22CumulativeReporterBaseINS_13JunitReporterEE15sectionStartingERKNS_11SectionInfoE
FNDA:0,_ZN5Catch22CumulativeReporterBaseINS_13JunitReporterEE17assertionStartingERKNS_13AssertionInfoE
FNDA:0,_ZN5Catch22CumulativeReporterBaseINS_13JunitReporterEE14assertionEndedERKNS_14AssertionStatsE
FNDA:0,_ZN5Catch22CumulativeReporterBaseINS_13JunitReporterEE12sectionEndedERKNS_12SectionStatsE
FNDA:0,_ZN5Catch22CumulativeReporterBaseINS_13JunitReporterEE13testCaseEndedERKNS_13TestCaseStatsE
FNDA:0,_ZN5Catch22CumulativeReporterBaseINS_13JunitReporterEE14testGroupEndedERKNS_14TestGroupStatsE
FNDA:0,_ZN5Catch22CumulativeReporterBaseINS_13JunitReporterEE12testRunEndedERKNS_12TestRunStatsE
FNDA:0,_ZN5Catch22CumulativeReporterBaseINS_13JunitReporterEE8skipTestERKNS_12TestCaseInfoE
FNDA:0,_ZN5Catch14getLineOfCharsILc126EEEPKcv
FNDA:0,_ZN5Catch14getLineOfCharsILc45EEEPKcv
FNDA:0,_ZN5Catch14getLineOfCharsILc46EEEPKcv
FNDA:0,_ZNK5Catch17ReporterRegistrarINS_11XmlReporterEE15ReporterFactory6createERKNS_14ReporterConfigE
FNDA:0,_ZNK5Catch17ReporterRegistrarINS_13JunitReporterEE15ReporterFactory6createERKNS_14ReporterConfigE
FNDA:0,_ZNK5Catch17ReporterRegistrarINS_15CompactReporterEE15ReporterFactory6createERKNS_14ReporterConfigE
FNDA:1,_ZNK5Catch17ReporterRegistrarINS_15ConsoleReporterEE15ReporterFactory6createERKNS_14ReporterConfigE
FNDA:0,_ZNK5Catch17ReporterRegistrarINS_11XmlReporterEE15ReporterFactory14getDescriptionB5cxx11Ev
FNDA:0,_ZNK5Catch17ReporterRegistrarINS_13JunitReporterEE15ReporterFactory14getDescriptionB5cxx11Ev
FNDA:0,_ZNK5Catch17ReporterRegistrarINS_15CompactReporterEE15ReporterFactory14getDescriptionB5cxx11Ev
FNDA:0,_ZNK5Catch17ReporterRegistrarINS_15ConsoleReporterEE15ReporterFactory14getDescriptionB5cxx11Ev
FNDA:1,_ZN5Catch17ReporterRegistrarINS_11XmlReporterEEC2ERKNSt7__cxx1112basic_stringIcSt11char_traitsIcESaIcEEE
FNDA:1,_ZN5Catch17ReporterRegistrarINS_13JunitReporterEEC2ERKNSt7__cxx1112basic_stringIcSt11char_traitsIcESaIcEEE
FNDA:1,_ZN5Catch17ReporterRegistrarINS_15CompactReporterEEC2ERKNSt7__cxx1112basic_stringIcSt11char_traitsIcESaIcEEE
FNDA:1,_ZN5Catch17ReporterRegistrarINS_15ConsoleReporterEEC2ERKNSt7__cxx1112basic_stringIcSt11char_traitsIcESaIcEEE
FNDA:98,_ZN5Catch9StringRefC2Ev
FNDA:358,_ZN5Catch9StringRefC2EPKcm
FNDA:0,_ZN5Catch9XmlWriter13ScopedElement14writeAttributeIA12_cEERS1_RKNSt7__cxx1112basic_stringIcSt11char_traitsIcESaIcEEERKT_
FNDA:0,_ZN5Catch9XmlWriter13ScopedElement14writeAttributeIA31_cEERS1_RKNSt7__cxx1112basic_stringIcSt11char_traitsIcESaIcEEERKT_
FNDA:0,_ZN5Catch9XmlWriter13ScopedElement14writeAttributeIA8_cEERS1_RKNSt7__cxx1112basic_stringIcSt11char_traitsIcESaIcEEERKT_
FNDA:0,_ZN5Catch9XmlWriter13ScopedElement14writeAttributeINSt7__cxx1112basic_stringIcSt11char_traitsIcESaIcEEEEERS1_RKS8_RKT_
FNDA:0,_ZN5Catch9XmlWriter13ScopedElement14writeAttributeIbEERS1_RKNSt7__cxx1112basic_stringIcSt11char_traitsIcESaIcEEERKT_
FNDA:0,_ZN5Catch9XmlWriter13ScopedElement14writeAttributeIdEERS1_RKNSt7__cxx1112basic_stringIcSt11char_traitsIcESaIcEEERKT_
FNDA:0,_ZN5Catch9XmlWriter13ScopedElement14writeAttributeIjEERS1_RKNSt7__cxx1112basic_stringIcSt11char_traitsIcESaIcEEERKT_
FNDA:0,_ZN5Catch9XmlWriter13ScopedElement14writeAttributeImEERS1_RKNSt7__cxx1112basic_stringIcSt11char_traitsIcESaIcEEERKT_
FNDA:1,_ZN5Catch9StringRefC2ERKNSt7__cxx1112basic_stringIcSt11char_traitsIcESaIcEEE
FNDA:0,_ZN5Catch9XmlWriter14writeAttributeIA12_cEERS0_RKNSt7__cxx1112basic_stringIcSt11char_traitsIcESaIcEEERKT_
FNDA:0,_ZN5Catch9XmlWriter14writeAttributeIA1_cEERS0_RKNSt7__cxx1112basic_stringIcSt11char_traitsIcESaIcEEERKT_
FNDA:0,_ZN5Catch9XmlWriter14writeAttributeIA31_cEERS0_RKNSt7__cxx1112basic_stringIcSt11char_traitsIcESaIcEEERKT_
FNDA:0,_ZN5Catch9XmlWriter14writeAttributeIA4_cEERS0_RKNSt7__cxx1112basic_stringIcSt11char_traitsIcESaIcEEERKT_
FNDA:0,_ZN5Catch9XmlWriter14writeAttributeIA5_cEERS0_RKNSt7__cxx1112basic_stringIcSt11char_traitsIcESaIcEEERKT_
FNDA:0,_ZN5Catch9XmlWriter14writeAttributeIA8_cEERS0_RKNSt7__cxx1112basic_stringIcSt11char_traitsIcESaIcEEERKT_
FNDA:0,_ZN5Catch9XmlWriter14writeAttributeINS_9StringRefEEERS0_RKNSt7__cxx1112basic_stringIcSt11char_traitsIcESaIcEEERKT_
FNDA:0,_ZN5Catch9XmlWriter14writeAttributeIPKcEERS0_RKNSt7__cxx1112basic_stringIcSt11char_traitsIcESaIcEEERKT_
FNDA:0,_ZN5Catch9XmlWriter14writeAttributeIdEERS0_RKNSt7__cxx1112basic_stringIcSt11char_traitsIcESaIcEEERKT_
FNDA:0,_ZN5Catch9XmlWriter14writeAttributeIjEERS0_RKNSt7__cxx1112basic_stringIcSt11char_traitsIcESaIcEEERKT_
FNDA:0,_ZN5Catch9XmlWriter14writeAttributeImEERS0_RKNSt7__cxx1112basic_stringIcSt11char_traitsIcESaIcEEERKT_
FNDA:16,_ZNK5Catch9StringRefcvNSt7__cxx1112basic_stringIcSt11char_traitsIcESaIcEEEEv
FNDA:0,_ZNK5Catch9StringRefixEm
FNDA:1,_ZNK5Catch9StringRef5emptyEv
FNDA:0,_ZNK5Catch9StringRef4sizeEv
FNDA:0,_ZNK5Catch9StringRef16isNullTerminatedEv
FNDA:8,_ZNK5Catch9StringRef5beginEv
FNDA:8,_ZNK5Catch9StringRef3endEv
FNDA:90,_ZN5Catchli3_srEPKcm
FNDA:90,_Zli9_catch_srPKcm
FNDA:0,_ZN5Catch16TestCaseTrackingeqERKNS0_15NameAndLocationES3_
FNDA:101,_ZN5Catch16TestCaseTracking8ITrackerC2ERKNS0_15NameAndLocationE
FNDA:12406,_ZNK5Catch16TestCaseTracking8ITracker15nameAndLocationEv
FNDA:0,_ZNK5Catch16TestCaseTracking11TrackerBase10hasStartedEv
FNDA:0,_ZN12_GLOBAL__N_116marginComparisonEddd
FNDA:0,_ZN5Catch6Detail6ApproxC2Ed
FNDA:0,_ZN5Catch6Detail6Approx6customEv
FNDA:0,_ZNK5Catch6Detail6ApproxngEv
FNDA:0,_ZNK5Catch6Detail6Approx8toStringB5cxx11Ev
FNDA:0,_ZNK5Catch6Detail6Approx22equalityComparisonImplEd
FNDA:0,_ZN5Catch6Detail6Approx9setMarginEd
FNDA:0,_ZN5Catch6Detail6Approx10setEpsilonEd
FNDA:0,_ZN5Catch8literalsli2_aEe
FNDA:0,_ZN5Catch8literalsli2_aEy
FNDA:0,_ZN5Catch11StringMakerINS_6Detail6ApproxEvE7convertB5cxx11ERKS2_
FNDA:85,_ZN5Catch21FatalConditionHandler6engageEv
FNDA:85,_ZN5Catch21FatalConditionHandler9disengageEv
FNDA:85,_ZN5Catch26FatalConditionHandlerGuardC2EPNS_21FatalConditionHandlerE
FNDA:85,_ZN5Catch26FatalConditionHandlerGuardD2Ev
FNDA:0,_ZN5Catch12_GLOBAL__N_1lsERSoRKNS_20ITransientExpressionE
FNDA:14,_ZN5Catch14LazyExpressionC2Eb
FNDA:56,_ZN5Catch14LazyExpressionC2ERKS0_
FNDA:0,_ZNK5Catch14LazyExpressioncvbEv
FNDA:0,_ZN5CatchlsERSoRKNS_14LazyExpressionE
FNDA:90,_ZN5Catch16AssertionHandlerC2ERKNS_9StringRefERKNS_14SourceLineInfoES1_NS_17ResultDisposition5FlagsE
FNDA:76,_ZN5Catch16AssertionHandler10handleExprERKNS_20ITransientExpressionE
FNDA:0,_ZN5Catch16AssertionHandler13handleMessageENS_9ResultWas6OfTypeERKNS_9StringRefE
FNDA:14,_ZNK5Catch16AssertionHandler11allowThrowsEv
FNDA:90,_ZN5Catch16AssertionHandler8completeEv
FNDA:0,_ZZN5Catch16AssertionHandler8completeEvENKUlvE_clEv
FNDA:90,_ZN5Catch16AssertionHandler12setCompletedEv
FNDA:0,_ZN5Catch16AssertionHandler33handleUnexpectedInflightExceptionEv
FNDA:14,_ZN5Catch16AssertionHandler31handleExceptionThrownAsExpectedEv
FNDA:0,_ZN5Catch16AssertionHandler34handleExceptionNotThrownAsExpectedEv
FNDA:0,_ZN5Catch16AssertionHandler34handleUnexpectedExceptionNotThrownEv
FNDA:0,_ZN5Catch16AssertionHandler25handleThrowingCallSkippedEv
FNDA:0,_ZN5Catch24handleExceptionMatchExprERNS_16AssertionHandlerERKNSt7__cxx1112basic_stringIcSt11char_traitsIcESaIcEEERKNS_9StringRefE
FNDA:14,_ZN5Catch19AssertionResultDataC2ENS_9ResultWas6OfTypeERKNS_14LazyExpressionE
FNDA:0,_ZNK5Catch19AssertionResultData21reconstructExpressionB5cxx11Ev
FNDA:14,_ZN5Catch15AssertionResultC2ERKNS_13AssertionInfoERKNS_19AssertionResultDataE
FNDA:0,_ZNK5Catch15AssertionResult9succeededEv
FNDA:28,_ZNK5Catch15AssertionResult4isOkEv
FNDA:42,_ZNK5Catch15AssertionResult13getResultTypeEv
FNDA:0,_ZNK5Catch15AssertionResult13hasExpressionEv
FNDA:14,_ZNK5Catch15AssertionResult10hasMessageEv
FNDA:0,_ZNK5Catch15AssertionResult13getExpressionB5cxx11Ev
FNDA:0,_ZNK5Catch15AssertionResult20getExpressionInMacroB5cxx11Ev
FNDA:0,_ZNK5Catch15AssertionResult21hasExpandedExpressionEv
FNDA:0,_ZNK5Catch15AssertionResult21getExpandedExpressionB5cxx11Ev
FNDA:0,_ZNK5Catch15AssertionResult10getMessageB5cxx11Ev
FNDA:0,_ZNK5Catch15AssertionResult13getSourceInfoEv
FNDA:0,_ZNK5Catch15AssertionResult16getTestMacroNameEv
FNDA:0,_ZN5Catch24handleExceptionMatchExprERNS_16AssertionHandlerERKNS_8Matchers4Impl11MatcherBaseINSt7__cxx1112basic_stringIcSt11char_traitsIcESaIcEEEEERKNS_9StringRefE
FNDA:0,_ZN5Catch5clara8TextFlow12isWhitespaceEc
FNDA:0,_ZN5Catch5clara8TextFlow17isBreakableBeforeEc
FNDA:0,_ZN5Catch5clara8TextFlow16isBreakableAfterEc
FNDA:0,_ZN5Catch5clara8TextFlow6Column8iteratorC2ERKS2_m
FNDA:0,_ZNK5Catch5clara8TextFlow6Column8iterator4lineB5cxx11Ev
FNDA:0,_ZNK5Catch5clara8TextFlow6Column8iterator10isBoundaryEm
FNDA:0,_ZN5Catch5clara8TextFlow6Column8iterator10calcLengthEv
FNDA:0,_ZNK5Catch5clara8TextFlow6Column8iterator6indentEv
FNDA:0,_ZNK5Catch5clara8TextFlow6Column8iterator18addIndentAndSuffixERKNSt7__cxx1112basic_stringIcSt11char_traitsIcESaIcEEE
FNDA:0,_ZN5Catch5clara8TextFlow6Column8iteratorC2ERKS2_
FNDA:0,_ZNK5Catch5clara8TextFlow6Column8iteratordeB5cxx11Ev
FNDA:0,_ZN5Catch5clara8TextFlow6Column8iteratorppEv
FNDA:0,_ZNK5Catch5clara8TextFlow6Column8iteratoreqERKS3_
FNDA:0,_ZNK5Catch5clara8TextFlow6Column8iteratorneERKS3_
FNDA:0,_ZN5Catch5clara8TextFlow6ColumnC2ERKNSt7__cxx1112basic_stringIcSt11char_traitsIcESaIcEEE
FNDA:0,_ZN5Catch5clara8TextFlow6Column5widthEm
FNDA:0,_ZN5Catch5clara8TextFlow6Column6indentEm
FNDA:0,_ZN5Catch5clara8TextFlow6Column13initialIndentEm
FNDA:0,_ZNK5Catch5clara8TextFlow6Column5widthEv
FNDA:0,_ZNK5Catch5clara8TextFlow6Column5beginEv
FNDA:0,_ZNK5Catch5clara8TextFlow6Column3endEv
FNDA:0,_ZN5Catch5clara8TextFlowlsERSoRKNS1_6ColumnE
FNDA:0,_ZN5Catch5clara8TextFlow6SpacerC2Em
FNDA:0,_ZN5Catch5clara8TextFlow7Columns8iteratorC2ERKS2_NS3_6EndTagE
FNDA:0,_ZN5Catch5clara8TextFlow7Columns8iteratorC2ERKS2_
FNDA:0,_ZNK5Catch5clara8TextFlow7Columns8iteratorneERKS3_
FNDA:0,_ZNK5Catch5clara8TextFlow7Columns8iteratordeB5cxx11Ev
FNDA:0,_ZN5Catch5clara8TextFlow7Columns8iteratorppEv
FNDA:0,_ZNK5Catch5clara8TextFlow7Columns5beginEv
FNDA:0,_ZNK5Catch5clara8TextFlow7Columns3endEv
FNDA:0,_ZN5Catch5clara8TextFlow7ColumnspLERKNS1_6ColumnE
FNDA:0,_ZN5Catch5clara8TextFlow7ColumnsplERKNS1_6ColumnE
FNDA:0,_ZN5Catch5clara8TextFlowlsERSoRKNS1_7ColumnsE
FNDA:0,_ZN5Catch5clara8TextFlow6ColumnplERKS2_
FNDA:1,_ZN5Catch5clara6detail4ArgsC2EiPKPKc
FNDA:1,_ZNK5Catch5clara6detail4Args7exeNameB5cxx11Ev
FNDA:0,_ZN5Catch5clara6detail11isOptPrefixEc
FNDA:1,_ZN5Catch5clara6detail11TokenStream10loadBufferEv
FNDA:1,_ZN5Catch5clara6detail11TokenStreamC2ERKNS1_4ArgsE
FNDA:1,_ZN5Catch5clara6detail11TokenStreamC2EN9__gnu_cxx17__normal_iteratorIPKNSt7__cxx1112basic_stringIcSt11char_traitsIcESaIcEEESt6vectorISA_SaISA_EEEESG_
FNDA:1,_ZNK5Catch5clara6detail11TokenStreamcvbEv
FNDA:0,_ZNK5Catch5clara6detail11TokenStreamdeEv
FNDA:0,_ZNK5Catch5clara6detail11TokenStreamptEv
FNDA:0,_ZN5Catch5clara6detail11TokenStreamppEv
FNDA:2,_ZN5Catch5clara6detail10ResultBaseC2ENS2_4TypeE
FNDA:0,_ZN5Catch5clara6detail10ResultBaseD0Ev
FNDA:3,_ZN5Catch5clara6detail10ResultBaseD2Ev
FNDA:1,_ZNK5Catch5clara6detail15ResultValueBaseINS1_10ParseStateEE5valueEv
FNDA:0,_ZNK5Catch5clara6detail15ResultValueBaseINS1_15ParseResultTypeEE5valueEv
FNDA:0,_ZN5Catch5clara6detail15ResultValueBaseINS1_10ParseStateEEC2ENS1_10ResultBase4TypeE
FNDA:0,_ZN5Catch5clara6detail15ResultValueBaseINS1_15ParseResultTypeEEC2ENS1_10ResultBase4TypeE
FNDA:1,_ZN5Catch5clara6detail15ResultValueBaseINS1_10ParseStateEEC2ERKS4_
FNDA:0,_ZN5Catch5clara6detail15ResultValueBaseINS1_15ParseResultTypeEEC2ERKS4_
FNDA:1,_ZN5Catch5clara6detail15ResultValueBaseINS1_10ParseStateEEC2ENS1_10ResultBase4TypeERKS3_
FNDA:1,_ZN5Catch5clara6detail15ResultValueBaseINS1_15ParseResultTypeEEC2ENS1_10ResultBase4TypeERKS3_
FNDA:0,_ZN5Catch5clara6detail15ResultValueBaseINS1_10ParseStateEEaSERKS4_
FNDA:0,_ZN5Catch5clara6detail15ResultValueBaseINS1_10ParseStateEED0Ev
FNDA:2,_ZN5Catch5clara6detail15ResultValueBaseINS1_10ParseStateEED2Ev
FNDA:0,_ZN5Catch5clara6detail15ResultValueBaseINS1_15ParseResultTypeEED0Ev
FNDA:1,_ZN5Catch5clara6detail15ResultValueBaseINS1_15ParseResultTypeEED2Ev
FNDA:0,_ZN5Catch5clara6detail11BasicResultINS1_10ParseStateEEC2INS1_15ParseResultTypeEEERKNS2_IT_EE
FNDA:0,_ZN5Catch5clara6detail11BasicResultINS1_10ParseStateEEC2IvEERKNS2_IT_EE
FNDA:1,_ZN5Catch5clara6detail11BasicResultINS1_10ParseStateEE2okIS3_EES4_RKT_
FNDA:1,_ZN5Catch5clara6detail11BasicResultINS1_15ParseResultTypeEE2okIS3_EES4_RKT_
FNDA:0,_ZN5Catch5clara6detail11BasicResultIvE2okEv
FNDA:0,_ZN5Catch5clara6detail11BasicResultIvE10logicErrorERKNSt7__cxx1112basic_stringIcSt11char_traitsIcESaIcEEE
FNDA:0,_ZN5Catch5clara6detail11BasicResultINS1_10ParseStateEE12runtimeErrorERKNSt7__cxx1112basic_stringIcSt11char_traitsIcESaIcEEE
FNDA:0,_ZN5Catch5clara6detail11BasicResultINS1_15ParseResultTypeEE12runtimeErrorERKNSt7__cxx1112basic_stringIcSt11char_traitsIcESaIcEEE
FNDA:1,_ZNK5Catch5clara6detail11BasicResultINS1_10ParseStateEEcvbEv
FNDA:0,_ZNK5Catch5clara6detail11BasicResultINS1_15ParseResultTypeEEcvbEv
FNDA:0,_ZNK5Catch5clara6detail11BasicResultIvEcvbEv
FNDA:0,_ZNK5Catch5clara6detail11BasicResultINS1_10ParseStateEE4typeEv
FNDA:0,_ZNK5Catch5clara6detail11BasicResultINS1_15ParseResultTypeEE4typeEv
FNDA:0,_ZNK5Catch5clara6detail11BasicResultIvE4typeEv
FNDA:0,_ZNK5Catch5clara6detail11BasicResultINS1_10ParseStateEE12errorMessageB5cxx11Ev
FNDA:0,_ZNK5Catch5clara6detail11BasicResultINS1_15ParseResultTypeEE12errorMessageB5cxx11Ev
FNDA:0,_ZNK5Catch5clara6detail11BasicResultIvE12errorMessageB5cxx11Ev
FNDA:1,_ZNK5Catch5clara6detail11BasicResultINS1_10ParseStateEE9enforceOkEv
FNDA:0,_ZNK5Catch5clara6detail11BasicResultINS1_15ParseResultTypeEE9enforceOkEv
FNDA:0,_ZNK5Catch5clara6detail11BasicResultIvE9enforceOkEv
FNDA:0,_ZN5Catch5clara6detail11BasicResultINS1_10ParseStateEEC2ENS1_10ResultBase4TypeERKNSt7__cxx1112basic_stringIcSt11char_traitsIcESaIcEEE
FNDA:0,_ZN5Catch5clara6detail11BasicResultINS1_15ParseResultTypeEEC2ENS1_10ResultBase4TypeERKNSt7__cxx1112basic_stringIcSt11char_traitsIcESaIcEEE
FNDA:0,_ZN5Catch5clara6detail11BasicResultIvEC2ENS1_10ResultBase4TypeERKNSt7__cxx1112basic_stringIcSt11char_traitsIcESaIcEEE
FNDA:1,_ZN5Catch5clara6detail10ParseStateC2ENS1_15ParseResultTypeERKNS1_11TokenStreamE
FNDA:0,_ZNK5Catch5clara6detail10ParseState4typeEv
FNDA:1,_ZNK5Catch5clara6detail10ParseState15remainingTokensEv
FNDA:0,_ZN5Catch5clara6detail11convertIntoIdEENS1_11BasicResultINS1_15ParseResultTypeEEERKNSt7__cxx1112basic_stringIcSt11char_traitsIcESaIcEEERT_
FNDA:0,_ZN5Catch5clara6detail11convertIntoIiEENS1_11BasicResultINS1_15ParseResultTypeEEERKNSt7__cxx1112basic_stringIcSt11char_traitsIcESaIcEEERT_
FNDA:0,_ZN5Catch5clara6detail11convertIntoIjEENS1_11BasicResultINS1_15ParseResultTypeEEERKNSt7__cxx1112basic_stringIcSt11char_traitsIcESaIcEEERT_
FNDA:0,_ZN5Catch5clara6detail11convertIntoIlEENS1_11BasicResultINS1_15ParseResultTypeEEERKNSt7__cxx1112basic_stringIcSt11char_traitsIcESaIcEEERT_
FNDA:1,_ZN5Catch5clara6detail11convertIntoERKNSt7__cxx1112basic_stringIcSt11char_traitsIcESaIcEEERS7_
FNDA:0,_ZN5Catch5clara6detail11convertIntoERKNSt7__cxx1112basic_stringIcSt11char_traitsIcESaIcEEERb
FNDA:0,_ZZN5Catch5clara6detail11convertIntoERKNSt7__cxx1112basic_stringIcSt11char_traitsIcESaIcEEERbENKUlhE_clEh
FNDA:0,_ZN5Catch5clara6detail8BoundRefD0Ev
FNDA:33,_ZN5Catch5clara6detail8BoundRefD2Ev
FNDA:0,_ZNK5Catch5clara6detail8BoundRef11isContainerEv
FNDA:0,_ZNK5Catch5clara6detail8BoundRef6isFlagEv
FNDA:0,_ZNK5Catch5clara6detail16BoundFlagRefBase6isFlagEv
FNDA:3,_ZN5Catch5clara6detail13BoundValueRefINSt7__cxx1112basic_stringIcSt11char_traitsIcESaIcEEEEC2ERS8_
FNDA:2,_ZN5Catch5clara6detail13BoundValueRefIdEC2ERd
FNDA:2,_ZN5Catch5clara6detail13BoundValueRefIjEC2ERj
FNDA:1,_ZN5Catch5clara6detail13BoundValueRefIlEC2ERl
FNDA:1,_ZN5Catch5clara6detail13BoundValueRefINSt7__cxx1112basic_stringIcSt11char_traitsIcESaIcEEEE8setValueERKS8_
FNDA:0,_ZN5Catch5clara6detail13BoundValueRefIdE8setValueERKNSt7__cxx1112basic_stringIcSt11char_traitsIcESaIcEEE
FNDA:0,_ZN5Catch5clara6detail13BoundValueRefIjE8setValueERKNSt7__cxx1112basic_stringIcSt11char_traitsIcESaIcEEE
FNDA:0,_ZN5Catch5clara6detail13BoundValueRefIlE8setValueERKNSt7__cxx1112basic_stringIcSt11char_traitsIcESaIcEEE
FNDA:2,_ZN5Catch5clara6detail13BoundValueRefISt6vectorINSt7__cxx1112basic_stringIcSt11char_traitsIcESaIcEEESaIS9_EEEC2ERSB_
FNDA:0,_ZNK5Catch5clara6detail13BoundValueRefISt6vectorINSt7__cxx1112basic_stringIcSt11char_traitsIcESaIcEEESaIS9_EEE11isContainerEv
FNDA:0,_ZN5Catch5clara6detail13BoundValueRefISt6vectorINSt7__cxx1112basic_stringIcSt11char_traitsIcESaIcEEESaIS9_EEE8setValueERKS9_
FNDA:11,_ZN5Catch5clara6detail12BoundFlagRefC2ERb
FNDA:0,_ZN5Catch5clara6detail12BoundFlagRef7setFlagEb
FNDA:0,_ZN5Catch5clara6detail13LambdaInvokerINS1_11BasicResultINS1_15ParseResultTypeEEEE6invokeIZNS1_4HelpC4ERbEUlbE_bEES5_RKT_RKT0_
FNDA:0,_ZN5Catch5clara6detail13LambdaInvokerINS1_11BasicResultINS1_15ParseResultTypeEEEE6invokeIZNS_21makeCommandLineParserERNS_10ConfigDataEEUlRKNSt7__cxx1112basic_stringIcSt11char_traitsIcESaIcEEEE0_SF_EES5_RKT_RKT0_
FNDA:0,_ZN5Catch5clara6detail13LambdaInvokerINS1_11BasicResultINS1_15ParseResultTypeEEEE6invokeIZNS_21makeCommandLineParserERNS_10ConfigDataEEUlRKNSt7__cxx1112basic_stringIcSt11char_traitsIcESaIcEEEE1_SF_EES5_RKT_RKT0_
FNDA:0,_ZN5Catch5clara6detail13LambdaInvokerINS1_11BasicResultINS1_15ParseResultTypeEEEE6invokeIZNS_21makeCommandLineParserERNS_10ConfigDataEEUlRKNSt7__cxx1112basic_stringIcSt11char_traitsIcESaIcEEEE2_SF_EES5_RKT_RKT0_
FNDA:0,_ZN5Catch5clara6detail13LambdaInvokerINS1_11BasicResultINS1_15ParseResultTypeEEEE6invokeIZNS_21makeCommandLineParserERNS_10ConfigDataEEUlRKNSt7__cxx1112basic_stringIcSt11char_traitsIcESaIcEEEE3_SF_EES5_RKT_RKT0_
FNDA:0,_ZN5Catch5clara6detail13LambdaInvokerINS1_11BasicResultINS1_15ParseResultTypeEEEE6invokeIZNS_21makeCommandLineParserERNS_10ConfigDataEEUlRKNSt7__cxx1112basic_stringIcSt11char_traitsIcESaIcEEEE4_SF_EES5_RKT_RKT0_
FNDA:0,_ZN5Catch5clara6detail13LambdaInvokerINS1_11BasicResultINS1_15ParseResultTypeEEEE6invokeIZNS_21makeCommandLineParserERNS_10ConfigDataEEUlRKNSt7__cxx1112basic_stringIcSt11char_traitsIcESaIcEEEE5_SF_EES5_RKT_RKT0_
FNDA:0,_ZN5Catch5clara6detail13LambdaInvokerINS1_11BasicResultINS1_15ParseResultTypeEEEE6invokeIZNS_21makeCommandLineParserERNS_10ConfigDataEEUlRKNSt7__cxx1112basic_stringIcSt11char_traitsIcESaIcEEEE6_SF_EES5_RKT_RKT0_
FNDA:0,_ZN5Catch5clara6detail13LambdaInvokerINS1_11BasicResultINS1_15ParseResultTypeEEEE6invokeIZNS_21makeCommandLineParserERNS_10ConfigDataEEUlRKNSt7__cxx1112basic_stringIcSt11char_traitsIcESaIcEEEE_SF_EES5_RKT_RKT0_
FNDA:0,_ZN5Catch5clara6detail13LambdaInvokerIvE6invokeIZNS_21makeCommandLineParserERNS_10ConfigDataEEUlbE7_bEENS1_11BasicResultINS1_15ParseResultTypeEEERKT_RKT0_
FNDA:0,_ZN5Catch5clara6detail13LambdaInvokerIvE6invokeIZNS_21makeCommandLineParserERNS_10ConfigDataEEUlbE9_bEENS1_11BasicResultINS1_15ParseResultTypeEEERKT_RKT0_
FNDA:0,_ZN5Catch5clara6detail13LambdaInvokerIvE6invokeIZNS_21makeCommandLineParserERNS_10ConfigDataEEUliE8_iEENS1_11BasicResultINS1_15ParseResultTypeEEERKT_RKT0_
FNDA:0,_ZN5Catch5clara6detail12invokeLambdaINSt7__cxx1112basic_stringIcSt11char_traitsIcESaIcEEEZNS_21makeCommandLineParserERNS_10ConfigDataEEUlRKS8_E0_EENS1_11BasicResultINS1_15ParseResultTypeEEERKT0_SC_
FNDA:0,_ZN5Catch5clara6detail12invokeLambdaINSt7__cxx1112basic_stringIcSt11char_traitsIcESaIcEEEZNS_21makeCommandLineParserERNS_10ConfigDataEEUlRKS8_E1_EENS1_11BasicResultINS1_15ParseResultTypeEEERKT0_SC_
FNDA:0,_ZN5Catch5clara6detail12invokeLambdaINSt7__cxx1112basic_stringIcSt11char_traitsIcESaIcEEEZNS_21makeCommandLineParserERNS_10ConfigDataEEUlRKS8_E2_EENS1_11BasicResultINS1_15ParseResultTypeEEERKT0_SC_
FNDA:0,_ZN5Catch5clara6detail12invokeLambdaINSt7__cxx1112basic_stringIcSt11char_traitsIcESaIcEEEZNS_21makeCommandLineParserERNS_10ConfigDataEEUlRKS8_E3_EENS1_11BasicResultINS1_15ParseResultTypeEEERKT0_SC_
FNDA:0,_ZN5Catch5clara6detail12invokeLambdaINSt7__cxx1112basic_stringIcSt11char_traitsIcESaIcEEEZNS_21makeCommandLineParserERNS_10ConfigDataEEUlRKS8_E4_EENS1_11BasicResultINS1_15ParseResultTypeEEERKT0_SC_
FNDA:0,_ZN5Catch5clara6detail12invokeLambdaINSt7__cxx1112basic_stringIcSt11char_traitsIcESaIcEEEZNS_21makeCommandLineParserERNS_10ConfigDataEEUlRKS8_E5_EENS1_11BasicResultINS1_15ParseResultTypeEEERKT0_SC_
FNDA:0,_ZN5Catch5clara6detail12invokeLambdaINSt7__cxx1112basic_stringIcSt11char_traitsIcESaIcEEEZNS_21makeCommandLineParserERNS_10ConfigDataEEUlRKS8_E6_EENS1_11BasicResultINS1_15ParseResultTypeEEERKT0_SC_
FNDA:0,_ZN5Catch5clara6detail12invokeLambdaINSt7__cxx1112basic_stringIcSt11char_traitsIcESaIcEEEZNS_21makeCommandLineParserERNS_10ConfigDataEEUlRKS8_E_EENS1_11BasicResultINS1_15ParseResultTypeEEERKT0_SC_
FNDA:0,_ZN5Catch5clara6detail12invokeLambdaIbZNS_21makeCommandLineParserERNS_10ConfigDataEEUlbE9_EENS1_11BasicResultINS1_15ParseResultTypeEEERKT0_RKNSt7__cxx1112basic_stringIcSt11char_traitsIcESaIcEEE
FNDA:0,_ZN5Catch5clara6detail12invokeLambdaIiZNS_21makeCommandLineParserERNS_10ConfigDataEEUliE8_EENS1_11BasicResultINS1_15ParseResultTypeEEERKT0_RKNSt7__cxx1112basic_stringIcSt11char_traitsIcESaIcEEE
FNDA:1,_ZN5Catch5clara6detail11BoundLambdaIZNS_21makeCommandLineParserERNS_10ConfigDataEEUlRKNSt7__cxx1112basic_stringIcSt11char_traitsIcESaIcEEEE0_EC2ERKSD_
FNDA:1,_ZN5Catch5clara6detail11BoundLambdaIZNS_21makeCommandLineParserERNS_10ConfigDataEEUlRKNSt7__cxx1112basic_stringIcSt11char_traitsIcESaIcEEEE1_EC2ERKSD_
FNDA:1,_ZN5Catch5clara6detail11BoundLambdaIZNS_21makeCommandLineParserERNS_10ConfigDataEEUlRKNSt7__cxx1112basic_stringIcSt11char_traitsIcESaIcEEEE2_EC2ERKSD_
FNDA:1,_ZN5Catch5clara6detail11BoundLambdaIZNS_21makeCommandLineParserERNS_10ConfigDataEEUlRKNSt7__cxx1112basic_stringIcSt11char_traitsIcESaIcEEEE3_EC2ERKSD_
FNDA:1,_ZN5Catch5clara6detail11BoundLambdaIZNS_21makeCommandLineParserERNS_10ConfigDataEEUlRKNSt7__cxx1112basic_stringIcSt11char_traitsIcESaIcEEEE4_EC2ERKSD_
FNDA:1,_ZN5Catch5clara6detail11BoundLambdaIZNS_21makeCommandLineParserERNS_10ConfigDataEEUlRKNSt7__cxx1112basic_stringIcSt11char_traitsIcESaIcEEEE5_EC2ERKSD_
FNDA:1,_ZN5Catch5clara6detail11BoundLambdaIZNS_21makeCommandLineParserERNS_10ConfigDataEEUlRKNSt7__cxx1112basic_stringIcSt11char_traitsIcESaIcEEEE6_EC2ERKSD_
FNDA:1,_ZN5Catch5clara6detail11BoundLambdaIZNS_21makeCommandLineParserERNS_10ConfigDataEEUlRKNSt7__cxx1112basic_stringIcSt11char_traitsIcESaIcEEEE_EC2ERKSD_
FNDA:1,_ZN5Catch5clara6detail11BoundLambdaIZNS_21makeCommandLineParserERNS_10ConfigDataEEUlbE9_EC2ERKS5_
FNDA:1,_ZN5Catch5clara6detail11BoundLambdaIZNS_21makeCommandLineParserERNS_10ConfigDataEEUliE8_EC2ERKS5_
FNDA:0,_ZN5Catch5clara6detail11BoundLambdaIZNS_21makeCommandLineParserERNS_10ConfigDataEEUlRKNSt7__cxx1112basic_stringIcSt11char_traitsIcESaIcEEEE0_E8setValueESC_
FNDA:0,_ZN5Catch5clara6detail11BoundLambdaIZNS_21makeCommandLineParserERNS_10ConfigDataEEUlRKNSt7__cxx1112basic_stringIcSt11char_traitsIcESaIcEEEE1_E8setValueESC_
FNDA:0,_ZN5Catch5clara6detail11BoundLambdaIZNS_21makeCommandLineParserERNS_10ConfigDataEEUlRKNSt7__cxx1112basic_stringIcSt11char_traitsIcESaIcEEEE2_E8setValueESC_
FNDA:0,_ZN5Catch5clara6detail11BoundLambdaIZNS_21makeCommandLineParserERNS_10ConfigDataEEUlRKNSt7__cxx1112basic_stringIcSt11char_traitsIcESaIcEEEE3_E8setValueESC_
FNDA:0,_ZN5Catch5clara6detail11BoundLambdaIZNS_21makeCommandLineParserERNS_10ConfigDataEEUlRKNSt7__cxx1112basic_stringIcSt11char_traitsIcESaIcEEEE4_E8setValueESC_
FNDA:0,_ZN5Catch5clara6detail11BoundLambdaIZNS_21makeCommandLineParserERNS_10ConfigDataEEUlRKNSt7__cxx1112basic_stringIcSt11char_traitsIcESaIcEEEE5_E8setValueESC_
FNDA:0,_ZN5Catch5clara6detail11BoundLambdaIZNS_21makeCommandLineParserERNS_10ConfigDataEEUlRKNSt7__cxx1112basic_stringIcSt11char_traitsIcESaIcEEEE6_E8setValueESC_
FNDA:0,_ZN5Catch5clara6detail11BoundLambdaIZNS_21makeCommandLineParserERNS_10ConfigDataEEUlRKNSt7__cxx1112basic_stringIcSt11char_traitsIcESaIcEEEE_E8setValueESC_
FNDA:0,_ZN5Catch5clara6detail11BoundLambdaIZNS_21makeCommandLineParserERNS_10ConfigDataEEUlbE9_E8setValueERKNSt7__cxx1112basic_stringIcSt11char_traitsIcESaIcEEE
FNDA:0,_ZN5Catch5clara6detail11BoundLambdaIZNS_21makeCommandLineParserERNS_10ConfigDataEEUliE8_E8setValueERKNSt7__cxx1112basic_stringIcSt11char_traitsIcESaIcEEE
FNDA:1,_ZN5Catch5clara6detail15BoundFlagLambdaIZNS1_4HelpC4ERbEUlbE_EC2ERKS5_
FNDA:1,_ZN5Catch5clara6detail15BoundFlagLambdaIZNS_21makeCommandLineParserERNS_10ConfigDataEEUlbE7_EC2ERKS5_
FNDA:0,_ZN5Catch5clara6detail15BoundFlagLambdaIZNS1_4HelpC4ERbEUlbE_E7setFlagEb
FNDA:0,_ZN5Catch5clara6detail15BoundFlagLambdaIZNS_21makeCommandLineParserERNS_10ConfigDataEEUlbE7_E7setFlagEb
FNDA:0,_ZN5Catch5clara6detail10ParserBaseD0Ev
FNDA:1690,_ZN5Catch5clara6detail10ParserBaseD2Ev
FNDA:0,_ZNK5Catch5clara6detail10ParserBase8validateEv
FNDA:0,_ZNK5Catch5clara6detail10ParserBase11cardinalityEv
FNDA:1,_ZNK5Catch5clara6detail10ParserBase5parseERKNS1_4ArgsE
FNDA:13,_ZN5Catch5clara6detail13ParserRefImplINS1_3OptEEC2ERKSt10shared_ptrINS1_8BoundRefEE
FNDA:1,_ZN5Catch5clara6detail13ParserRefImplINS1_3ArgEEC2ISt6vectorINSt7__cxx1112basic_stringIcSt11char_traitsIcESaIcEEESaISC_EEEERT_RKSC_
FNDA:2,_ZN5Catch5clara6detail13ParserRefImplINS1_3OptEEC2INSt7__cxx1112basic_stringIcSt11char_traitsIcESaIcEEEEERT_RKSB_
FNDA:1,_ZN5Catch5clara6detail13ParserRefImplINS1_3OptEEC2ISt6vectorINSt7__cxx1112basic_stringIcSt11char_traitsIcESaIcEEESaISC_EEEERT_RKSC_
FNDA:2,_ZN5Catch5clara6detail13ParserRefImplINS1_3OptEEC2IdEERT_RKNSt7__cxx1112basic_stringIcSt11char_traitsIcESaIcEEE
FNDA:2,_ZN5Catch5clara6detail13ParserRefImplINS1_3OptEEC2IjEERT_RKNSt7__cxx1112basic_stringIcSt11char_traitsIcESaIcEEE
FNDA:1,_ZN5Catch5clara6detail13ParserRefImplINS1_3OptEEC2IlEERT_RKNSt7__cxx1112basic_stringIcSt11char_traitsIcESaIcEEE
FNDA:1,_ZN5Catch5clara6detail13ParserRefImplINS1_3OptEEC2IZNS_21makeCommandLineParserERNS_10ConfigDataEEUlRKNSt7__cxx1112basic_stringIcSt11char_traitsIcESaIcEEEE0_EERKT_SF_
FNDA:1,_ZN5Catch5clara6detail13ParserRefImplINS1_3OptEEC2IZNS_21makeCommandLineParserERNS_10ConfigDataEEUlRKNSt7__cxx1112basic_stringIcSt11char_traitsIcESaIcEEEE1_EERKT_SF_
FNDA:1,_ZN5Catch5clara6detail13ParserRefImplINS1_3OptEEC2IZNS_21makeCommandLineParserERNS_10ConfigDataEEUlRKNSt7__cxx1112basic_stringIcSt11char_traitsIcESaIcEEEE2_EERKT_SF_
FNDA:1,_ZN5Catch5clara6detail13ParserRefImplINS1_3OptEEC2IZNS_21makeCommandLineParserERNS_10ConfigDataEEUlRKNSt7__cxx1112basic_stringIcSt11char_traitsIcESaIcEEEE3_EERKT_SF_
FNDA:1,_ZN5Catch5clara6detail13ParserRefImplINS1_3OptEEC2IZNS_21makeCommandLineParserERNS_10ConfigDataEEUlRKNSt7__cxx1112basic_stringIcSt11char_traitsIcESaIcEEEE4_EERKT_SF_
FNDA:1,_ZN5Catch5clara6detail13ParserRefImplINS1_3OptEEC2IZNS_21makeCommandLineParserERNS_10ConfigDataEEUlRKNSt7__cxx1112basic_stringIcSt11char_traitsIcESaIcEEEE5_EERKT_SF_
FNDA:1,_ZN5Catch5clara6detail13ParserRefImplINS1_3OptEEC2IZNS_21makeCommandLineParserERNS_10ConfigDataEEUlRKNSt7__cxx1112basic_stringIcSt11char_traitsIcESaIcEEEE6_EERKT_SF_
FNDA:1,_ZN5Catch5clara6detail13ParserRefImplINS1_3OptEEC2IZNS_21makeCommandLineParserERNS_10ConfigDataEEUlRKNSt7__cxx1112basic_stringIcSt11char_traitsIcESaIcEEEE_EERKT_SF_
FNDA:1,_ZN5Catch5clara6detail13ParserRefImplINS1_3OptEEC2IZNS_21makeCommandLineParserERNS_10ConfigDataEEUlbE9_EERKT_RKNSt7__cxx1112basic_stringIcSt11char_traitsIcESaIcEEE
FNDA:1,_ZN5Catch5clara6detail13ParserRefImplINS1_3OptEEC2IZNS_21makeCommandLineParserERNS_10ConfigDataEEUliE8_EERKT_RKNSt7__cxx1112basic_stringIcSt11char_traitsIcESaIcEEE
FNDA:1,_ZN5Catch5clara6detail13ParserRefImplINS1_3ArgEEclERKNSt7__cxx1112basic_stringIcSt11char_traitsIcESaIcEEE
FNDA:31,_ZN5Catch5clara6detail13ParserRefImplINS1_3OptEEclERKNSt7__cxx1112basic_stringIcSt11char_traitsIcESaIcEEE
FNDA:1,_ZN5Catch5clara6detail13ParserRefImplINS1_3OptEE8optionalEv
FNDA:0,_ZNK5Catch5clara6detail13ParserRefImplINS1_3ArgEE10isOptionalEv
FNDA:0,_ZNK5Catch5clara6detail13ParserRefImplINS1_3ArgEE11cardinalityEv
FNDA:0,_ZNK5Catch5clara6detail13ParserRefImplINS1_3OptEE11cardinalityEv
FNDA:0,_ZNK5Catch5clara6detail13ParserRefImplINS1_3ArgEE4hintB5cxx11Ev
FNDA:3,_ZN5Catch5clara6detail7ExeNameC2Ev
FNDA:1,_ZN5Catch5clara6detail7ExeNameC2ERNSt7__cxx1112basic_stringIcSt11char_traitsIcESaIcEEE
FNDA:0,_ZNK5Catch5clara6detail7ExeName5parseERKNSt7__cxx1112basic_stringIcSt11char_traitsIcESaIcEEERKNS1_11TokenStreamE
FNDA:0,_ZNK5Catch5clara6detail7ExeName4nameB5cxx11Ev
FNDA:1,_ZN5Catch5clara6detail7ExeName3setERKNSt7__cxx1112basic_stringIcSt11char_traitsIcESaIcEEE
FNDA:0,_ZNK5Catch5clara6detail3Arg5parseERKNSt7__cxx1112basic_stringIcSt11char_traitsIcESaIcEEERKNS1_11TokenStreamE
FNDA:0,_ZN5Catch5clara6detail12normaliseOptERKNSt7__cxx1112basic_stringIcSt11char_traitsIcESaIcEEE
FNDA:1,_ZN5Catch5clara6detail3OptC2IZNS1_4HelpC4ERbEUlbE_EERKT_
FNDA:1,_ZN5Catch5clara6detail3OptC2IZNS_21makeCommandLineParserERNS_10ConfigDataEEUlbE7_EERKT_
FNDA:11,_ZN5Catch5clara6detail3OptC2ERb
FNDA:1,_ZN5Catch5clara6detail3OptC2IZNS_21makeCommandLineParserERNS_10ConfigDataEEUlRKNSt7__cxx1112basic_stringIcSt11char_traitsIcESaIcEEEE0_EERKT_SD_
FNDA:1,_ZN5Catch5clara6detail3OptC2IZNS_21makeCommandLineParserERNS_10ConfigDataEEUlRKNSt7__cxx1112basic_stringIcSt11char_traitsIcESaIcEEEE1_EERKT_SD_
FNDA:1,_ZN5Catch5clara6detail3OptC2IZNS_21makeCommandLineParserERNS_10ConfigDataEEUlRKNSt7__cxx1112basic_stringIcSt11char_traitsIcESaIcEEEE2_EERKT_SD_
FNDA:1,_ZN5Catch5clara6detail3OptC2IZNS_21makeCommandLineParserERNS_10ConfigDataEEUlRKNSt7__cxx1112basic_stringIcSt11char_traitsIcESaIcEEEE3_EERKT_SD_
FNDA:1,_ZN5Catch5clara6detail3OptC2IZNS_21makeCommandLineParserERNS_10ConfigDataEEUlRKNSt7__cxx1112basic_stringIcSt11char_traitsIcESaIcEEEE4_EERKT_SD_
FNDA:1,_ZN5Catch5clara6detail3OptC2IZNS_21makeCommandLineParserERNS_10ConfigDataEEUlRKNSt7__cxx1112basic_stringIcSt11char_traitsIcESaIcEEEE5_EERKT_SD_
FNDA:1,_ZN5Catch5clara6detail3OptC2IZNS_21makeCommandLineParserERNS_10ConfigDataEEUlRKNSt7__cxx1112basic_stringIcSt11char_traitsIcESaIcEEEE6_EERKT_SD_
FNDA:1,_ZN5Catch5clara6detail3OptC2IZNS_21makeCommandLineParserERNS_10ConfigDataEEUlRKNSt7__cxx1112basic_stringIcSt11char_traitsIcESaIcEEEE_EERKT_SD_
FNDA:1,_ZN5Catch5clara6detail3OptC2IZNS_21makeCommandLineParserERNS_10ConfigDataEEUlbE9_EERKT_RKNSt7__cxx1112basic_stringIcSt11char_traitsIcESaIcEEE
FNDA:1,_ZN5Catch5clara6detail3OptC2IZNS_21makeCommandLineParserERNS_10ConfigDataEEUliE8_EERKT_RKNSt7__cxx1112basic_stringIcSt11char_traitsIcESaIcEEE
FNDA:2,_ZN5Catch5clara6detail3OptC2INSt7__cxx1112basic_stringIcSt11char_traitsIcESaIcEEEEERT_RKS9_
FNDA:1,_ZN5Catch5clara6detail3OptC2ISt6vectorINSt7__cxx1112basic_stringIcSt11char_traitsIcESaIcEEESaISA_EEEERT_RKSA_
FNDA:2,_ZN5Catch5clara6detail3OptC2IdEERT_RKNSt7__cxx1112basic_stringIcSt11char_traitsIcESaIcEEE
FNDA:2,_ZN5Catch5clara6detail3OptC2IjEERT_RKNSt7__cxx1112basic_stringIcSt11char_traitsIcESaIcEEE
FNDA:1,_ZN5Catch5clara6detail3OptC2IlEERT_RKNSt7__cxx1112basic_stringIcSt11char_traitsIcESaIcEEE
FNDA:51,_ZN5Catch5clara6detail3OptixERKNSt7__cxx1112basic_stringIcSt11char_traitsIcESaIcEEE
FNDA:0,_ZNK5Catch5clara6detail3Opt14getHelpColumnsEv
FNDA:0,_ZNK5Catch5clara6detail3Opt7isMatchERKNSt7__cxx1112basic_stringIcSt11char_traitsIcESaIcEEE
FNDA:0,_ZNK5Catch5clara6detail3Opt5parseERKNSt7__cxx1112basic_stringIcSt11char_traitsIcESaIcEEERKNS1_11TokenStreamE
FNDA:0,_ZNK5Catch5clara6detail3Opt8validateEv
FNDA:1,_ZN5Catch5clara6detail4HelpC2ERb
FNDA:0,_ZZN5Catch5clara6detail4HelpC4ERbENKUlbE_clEb
FNDA:1,_ZN5Catch5clara6detail6ParseroRERKNS1_7ExeNameE
FNDA:1,_ZN5Catch5clara6detail6ParseroRERKNS1_3ArgE
FNDA:31,_ZN5Catch5clara6detail6ParseroRERKNS1_3OptE
FNDA:1,_ZNK5Catch5clara6detail6ParserorINS1_3ArgEEES2_RKT_
FNDA:30,_ZNK5Catch5clara6detail6ParserorINS1_3OptEEES2_RKT_
FNDA:1,_ZNK5Catch5clara6detail6ParserorINS1_4HelpEEES2_RKT_
FNDA:1,_ZNK5Catch5clara6detail6ParserorINS1_7ExeNameEEES2_RKT_
FNDA:0,_ZNK5Catch5clara6detail6Parser14getHelpColumnsEv
FNDA:0,_ZNK5Catch5clara6detail6Parser13writeToStreamERSo
FNDA:0,_ZN5Catch5clara6detaillsERSoRKNS1_6ParserE
FNDA:0,_ZNK5Catch5clara6detail6Parser8validateEv
FNDA:1,_ZNK5Catch5clara6detail6Parser5parseERKNSt7__cxx1112basic_stringIcSt11char_traitsIcESaIcEEERKNS1_11TokenStreamE
FNDA:1,_ZNK5Catch5clara6detail20ComposableParserImplINS1_7ExeNameEEorINS1_4HelpEEENS1_6ParserERKT_
FNDA:1,_ZN5Catch21makeCommandLineParserERNS_10ConfigDataE
FNDA:0,_ZZN5Catch21makeCommandLineParserERNS_10ConfigDataEENKUlRKNSt7__cxx1112basic_stringIcSt11char_traitsIcESaIcEEEE_clES9_
FNDA:0,_ZZZN5Catch21makeCommandLineParserERNS_10ConfigDataEENKUlRKNSt7__cxx1112basic_stringIcSt11char_traitsIcESaIcEEEE_clES9_ENKUlvE_clEv
FNDA:0,_ZZN5Catch21makeCommandLineParserERNS_10ConfigDataEENKUlRKNSt7__cxx1112basic_stringIcSt11char_traitsIcESaIcEEEE0_clES9_
FNDA:0,_ZZN5Catch21makeCommandLineParserERNS_10ConfigDataEENKUlRKNSt7__cxx1112basic_stringIcSt11char_traitsIcESaIcEEEE1_clES9_
FNDA:0,_ZZN5Catch21makeCommandLineParserERNS_10ConfigDataEENKUlRKNSt7__cxx1112basic_stringIcSt11char_traitsIcESaIcEEEE2_clES9_
FNDA:0,_ZZN5Catch21makeCommandLineParserERNS_10ConfigDataEENKUlRKNSt7__cxx1112basic_stringIcSt11char_traitsIcESaIcEEEE3_clES9_
FNDA:0,_ZZN5Catch21makeCommandLineParserERNS_10ConfigDataEENKUlRKNSt7__cxx1112basic_stringIcSt11char_traitsIcESaIcEEEE4_clES9_
FNDA:0,_ZZN5Catch21makeCommandLineParserERNS_10ConfigDataEENKUlRKNSt7__cxx1112basic_stringIcSt11char_traitsIcESaIcEEEE5_clES9_
FNDA:0,_ZZN5Catch21makeCommandLineParserERNS_10ConfigDataEENKUlRKNSt7__cxx1112basic_stringIcSt11char_traitsIcESaIcEEEE6_clES9_
FNDA:0,_ZZN5Catch21makeCommandLineParserERNS_10ConfigDataEENKUlbE7_clEb
FNDA:0,_ZZN5Catch21makeCommandLineParserERNS_10ConfigDataEENKUliE8_clEi
FNDA:0,_ZZN5Catch21makeCommandLineParserERNS_10ConfigDataEENKUlbE9_clEb
FNDA:11153,_ZNK5Catch14SourceLineInfoeqERKS0_
FNDA:0,_ZNK5Catch14SourceLineInfoltERKS0_
FNDA:0,_ZN5CatchlsERSoRKNS_14SourceLineInfoE
FNDA:0,_ZNK5Catch13StreamEndStoppsB5cxx11Ev
FNDA:1273,_ZN5Catch11NonCopyableC2Ev
FNDA:0,_ZN5Catch11NonCopyableD0Ev
FNDA:1273,_ZN5Catch11NonCopyableD2Ev
FNDA:1,_ZN5Catch6ConfigC2ERKNS_10ConfigDataE
FNDA:0,_ZNK5Catch6Config11getFilenameB5cxx11Ev
FNDA:1,_ZNK5Catch6Config9listTestsEv
FNDA:1,_ZNK5Catch6Config17listTestNamesOnlyEv
FNDA:1,_ZNK5Catch6Config8listTagsEv
FNDA:1,_ZNK5Catch6Config13listReportersEv
FNDA:0,_ZNK5Catch6Config14getProcessNameB5cxx11Ev
FNDA:1,_ZNK5Catch6Config15getReporterNameB5cxx11Ev
FNDA:0,_ZNK5Catch6Config14getTestsOrTagsB5cxx11Ev
FNDA:8,_ZNK5Catch6Config16getSectionsToRunB5cxx11Ev
FNDA:4,_ZNK5Catch6Config8testSpecEv
FNDA:0,_ZNK5Catch6Config14hasTestFiltersEv
FNDA:0,_ZNK5Catch6Config8showHelpEv
FNDA:14,_ZNK5Catch6Config11allowThrowsEv
FNDA:1,_ZNK5Catch6Config6streamEv
FNDA:3,_ZNK5Catch6Config4nameB5cxx11Ev
FNF:1427
FNH:499
DA:505,1368
DA:506,1368
DA:507,1368
DA:508,1368
DA:618,98
DA:622,358
DA:623,358
DA:624,358
DA:625,358
DA:627,1
DA:628,1
DA:629,1
DA:630,1
DA:632,16
DA:633,16
DA:642,0
DA:643,0
DA:644,0
DA:648,1
DA:649,1
DA:651,0
DA:652,0
DA:668,0
DA:669,0
DA:673,8
DA:674,8
DA:680,90
DA:681,90
DA:685,90
DA:686,90
DA:1388,76
DA:1450,0
DA:1451,0
DA:1452,0
DA:1454,0
DA:1559,0
DA:1560,0
DA:1619,0
DA:1620,0
DA:1623,0
DA:1624,0
DA:1644,0
DA:1645,0
DA:1798,0
DA:1799,0
DA:1800,0
DA:1802,0
DA:1829,0
DA:1830,0
DA:1831,0
DA:1832,0
DA:1833,0
DA:1834,0
DA:1835,0
DA:1837,0
DA:1838,0
DA:2018,0
DA:2019,0
DA:2041,0
DA:2042,0
DA:2203,0
DA:2204,76
DA:2207,76
DA:2208,76
DA:2209,76
DA:2210,76
DA:2229,0
DA:2231,0
DA:2232,0
DA:2235,72
DA:2239,72
DA:2240,72
DA:2303,0
DA:2304,0
DA:2305,0
DA:2308,4
DA:2310,4
DA:2311,4
DA:2316,51
DA:2327,10
DA:2341,76
DA:2344,51
DA:2345,51
DA:2347,10
DA:2348,10
DA:2352,10
DA:2353,10
DA:2372,1
DA:2373,1
DA:2402,4
DA:2403,4
DA:2416,62
DA:2417,62
DA:2420,14
DA:2421,14
DA:2560,180
DA:2561,90
DA:2562,0
DA:2564,90
DA:2567,4
DA:2568,4
DA:2569,4
DA:2633,0
DA:2634,0
DA:2635,0
DA:3105,0
DA:3106,0
DA:3245,0
DA:3403,0
DA:3404,0
DA:3405,0
DA:3775,0
DA:3776,0
DA:3779,0
DA:3780,0
DA:3782,0
DA:3783,0
DA:3784,0
DA:3785,0
DA:3786,0
DA:3788,0
DA:3789,0
DA:3877,0
DA:3878,0
DA:4381,1453
DA:4383,1453
DA:4384,1
DA:4386,1453
DA:4389,1451
DA:4391,1451
DA:4411,5
DA:4419,5
DA:4420,5
DA:4421,5
DA:4431,24
DA:4432,24
DA:4433,24
DA:4434,24
DA:4437,41
DA:4438,41
DA:4439,24
DA:4440,41
DA:4441,41
DA:4443,0
DA:4444,0
DA:4445,0
DA:4448,0
DA:4449,0
DA:4452,1
DA:4456,1
DA:4457,1
DA:4570,0
DA:5091,0
DA:5243,0
DA:5244,0
DA:5245,0
DA:5246,0
DA:5247,0
DA:5322,1
DA:5501,10
DA:5502,10
DA:5503,10
DA:5504,10
DA:5506,12
DA:5507,12
DA:5508,12
DA:5509,12
DA:5532,0
DA:5548,0
DA:5550,0
DA:5567,0
DA:5586,0
DA:5602,0
DA:5652,1
DA:5662,0
DA:5738,1
DA:5740,1
DA:5742,1
DA:5743,1
DA:5744,0
DA:5745,1
DA:5747,86
DA:5748,86
DA:5751,1
DA:5752,1
DA:5755,1
DA:5757,0
DA:5759,0
DA:5761,1
DA:5762,1
DA:5763,1
DA:5765,1
DA:5766,1
DA:5767,1
DA:5769,8
DA:5770,8
DA:5771,8
DA:5772,170
DA:5773,170
DA:5774,170
DA:5776,170
DA:5777,170
DA:5778,170
DA:5779,8
DA:5780,8
DA:5781,8
DA:5782,1
DA:5783,1
DA:5784,1
DA:5785,1
DA:5786,1
DA:5787,1
DA:5788,1
DA:5789,1
DA:5791,0
DA:5794,0
DA:5811,0
DA:5812,0
DA:5819,0
DA:5820,0
DA:5839,0
DA:5840,0
DA:5841,0
DA:5842,0
DA:5843,0
DA:5855,0
DA:5857,0
DA:5859,0
DA:5860,0
DA:5861,0
DA:5862,0
DA:5863,0
DA:5865,0
DA:5866,0
DA:5869,0
DA:5870,0
DA:5873,0
DA:5874,0
DA:5876,0
DA:5878,0
DA:5879,0
DA:5880,0
DA:5881,0
DA:5882,0
DA:5883,0
DA:5884,0
DA:5887,0
DA:5889,0
DA:5891,0
DA:5892,0
DA:5893,0
DA:5894,0
DA:5897,0
DA:5899,0
DA:5900,0
DA:5901,0
DA:5903,0
DA:5905,0
DA:5906,0
DA:5912,0
DA:5913,0
DA:5914,0
DA:5915,0
DA:5917,0
DA:5918,0
DA:5919,0
DA:5920,0
DA:5921,0
DA:5922,0
DA:5923,0
DA:5924,0
DA:5925,0
DA:5926,0
DA:5927,0
DA:5928,0
DA:5930,0
DA:5931,0
DA:5932,0
DA:5933,0
DA:5934,0
DA:5935,0
DA:5936,0
DA:5937,0
DA:5938,0
DA:5939,0
DA:5940,0
DA:5941,0
DA:5942,0
DA:5943,0
DA:5944,0
DA:5947,0
DA:5965,0
DA:5967,0
DA:5968,0
DA:5969,0
DA:5971,0
DA:6055,1
DA:6056,1
DA:6059,0
DA:6060,0
DA:6066,4
DA:6067,4
DA:6068,4
DA:6264,0
DA:6265,0
DA:6266,0
DA:6291,0
DA:6292,0
DA:6293,0
DA:6294,0
DA:7481,0
DA:7482,0
DA:7483,0
DA:7495,101
DA:7496,101
DA:7497,101
DA:7500,12406
DA:7501,12406
DA:7578,0
DA:7579,0
DA:7867,0
DA:7868,0
DA:7876,0
DA:7877,0
DA:7880,0
DA:7881,0
DA:7883,0
DA:7884,0
DA:7887,0
DA:7888,0
DA:7889,0
DA:7890,0
DA:7893,0
DA:7894,0
DA:7895,0
DA:7896,0
DA:7899,0
DA:7902,0
DA:7903,0
DA:7906,0
DA:7907,0
DA:7910,0
DA:7911,0
DA:7913,0
DA:7914,0
DA:7917,0
DA:7918,0
DA:7923,0
DA:7924,0
DA:7926,0
DA:7927,0
DA:7931,0
DA:7932,0
DA:8022,85
DA:8023,85
DA:8024,85
DA:8025,85
DA:8026,85
DA:8028,85
DA:8029,85
DA:8030,85
DA:8031,85
DA:8032,85
DA:8039,85
DA:8040,85
DA:8041,85
DA:8042,85
DA:8043,170
DA:8044,85
DA:8045,85
DA:8188,0
DA:8189,0
DA:8190,0
DA:8194,14
DA:8195,14
DA:8196,14
DA:8198,56
DA:8200,0
DA:8201,0
DA:8204,0
DA:8205,0
DA:8206,0
DA:8208,0
DA:8209,0
DA:8210,0
DA:8212,0
DA:8215,0
DA:8217,0
DA:8220,90
DA:8224,90
DA:8226,90
DA:8227,90
DA:8229,76
DA:8230,76
DA:8231,76
DA:8232,0
DA:8233,0
DA:8234,0
DA:8236,14
DA:8237,14
DA:8240,90
DA:8241,90
DA:8242,90
DA:8248,0
DA:8250,90
DA:8252,0
DA:8257,90
DA:8258,90
DA:8259,90
DA:8260,90
DA:8262,0
DA:8263,0
DA:8264,0
DA:8266,14
DA:8267,14
DA:8268,14
DA:8269,0
DA:8270,0
DA:8271,0
DA:8273,0
DA:8274,0
DA:8275,0
DA:8277,0
DA:8278,0
DA:8279,0
DA:8283,0
DA:8284,0
DA:8285,0
DA:8292,14
DA:8294,14
DA:8296,0
DA:8298,0
DA:8299,0
DA:8300,0
DA:8301,0
DA:8302,0
DA:8305,0
DA:8308,14
DA:8310,14
DA:8311,14
DA:8314,0
DA:8315,0
DA:8319,28
DA:8320,28
DA:8323,42
DA:8324,42
DA:8327,0
DA:8328,0
DA:8331,14
DA:8332,14
DA:8335,0
DA:8337,0
DA:8338,0
DA:8339,0
DA:8341,0
DA:8342,0
DA:8343,0
DA:8345,0
DA:8348,0
DA:8349,0
DA:8350,0
DA:8351,0
DA:8353,0
DA:8354,0
DA:8355,0
DA:8356,0
DA:8357,0
DA:8359,0
DA:8362,0
DA:8363,0
DA:8366,0
DA:8367,0
DA:8368,0
DA:8370,0
DA:8373,0
DA:8374,0
DA:8376,0
DA:8377,0
DA:8380,0
DA:8381,0
DA:8395,0
DA:8396,0
DA:8397,0
DA:8398,0
DA:8399,0
DA:8476,0
DA:8477,0
DA:8478,0
DA:8480,0
DA:8481,0
DA:8482,0
DA:8484,0
DA:8485,0
DA:8486,0
DA:8509,0
DA:8510,0
DA:8511,0
DA:8513,0
DA:8515,0
DA:8516,0
DA:8517,0
DA:8519,0
DA:8520,0
DA:8521,0
DA:8522,0
DA:8525,0
DA:8526,0
DA:8528,0
DA:8529,0
DA:8530,0
DA:8531,0
DA:8532,0
DA:8534,0
DA:8535,0
DA:8537,0
DA:8538,0
DA:8540,0
DA:8541,0
DA:8542,0
DA:8543,0
DA:8544,0
DA:8546,0
DA:8547,0
DA:8549,0
DA:8550,0
DA:8553,0
DA:8555,0
DA:8556,0
DA:8557,0
DA:8560,0
DA:8561,0
DA:8571,0
DA:8572,0
DA:8573,0
DA:8574,0
DA:8575,0
DA:8576,0
DA:8577,0
DA:8579,0
DA:8580,0
DA:8581,0
DA:8582,0
DA:8585,0
DA:8586,0
DA:8587,0
DA:8588,0
DA:8590,0
DA:8591,0
DA:8593,0
DA:8594,0
DA:8595,0
DA:8597,0
DA:8598,0
DA:8599,0
DA:8607,0
DA:8609,0
DA:8610,0
DA:8611,0
DA:8613,0
DA:8614,0
DA:8619,0
DA:8621,0
DA:8622,0
DA:8623,0
DA:8624,0
DA:8626,0
DA:8627,0
DA:8628,0
DA:8630,0
DA:8631,0
DA:8632,0
DA:8635,0
DA:8636,0
DA:8637,0
DA:8639,0
DA:8640,0
DA:8641,0
DA:8642,0
DA:8643,0
DA:8645,0
DA:8646,0
DA:8648,0
DA:8663,0
DA:8664,0
DA:8665,0
DA:8681,0
DA:8682,0
DA:8683,0
DA:8684,0
DA:8686,0
DA:8687,0
DA:8688,0
DA:8697,0
DA:8698,0
DA:8699,0
DA:8700,0
DA:8702,0
DA:8703,0
DA:8704,0
DA:8709,0
DA:8710,0
DA:8712,0
DA:8713,0
DA:8715,0
DA:8716,0
DA:8717,0
DA:8718,0
DA:8719,0
DA:8720,0
DA:8721,0
DA:8723,0
DA:8725,0
DA:8728,0
DA:8730,0
DA:8731,0
DA:8732,0
DA:8733,0
DA:8735,0
DA:8745,0
DA:8746,0
DA:8748,0
DA:8749,0
DA:8750,0
DA:8752,0
DA:8753,0
DA:8754,0
DA:8755,0
DA:8758,0
DA:8760,0
DA:8761,0
DA:8762,0
DA:8763,0
DA:8765,0
DA:8766,0
DA:8768,0
DA:8778,0
DA:8779,0
DA:8780,0
DA:8781,0
DA:8782,0
DA:8830,1
DA:8831,1
DA:8832,1
DA:8839,1
DA:8840,1
DA:8854,0
DA:8855,0
DA:8869,1
DA:8870,1
DA:8873,1
DA:8874,0
DA:8876,1
DA:8877,0
DA:8878,0
DA:8879,0
DA:8880,0
DA:8881,0
DA:8882,0
DA:8884,0
DA:8885,0
DA:8886,0
DA:8887,0
DA:8888,0
DA:8891,0
DA:8895,0
DA:8898,1
DA:8901,1
DA:8903,1
DA:8904,1
DA:8905,1
DA:8907,1
DA:8908,1
DA:8913,0
DA:8914,0
DA:8915,0
DA:8918,0
DA:8919,0
DA:8920,0
DA:8923,0
DA:8924,0
DA:8925,0
DA:8927,0
DA:8928,0
DA:8929,0
DA:8931,0
DA:8942,2
DA:8943,3
DA:8953,1
DA:8954,1
DA:8955,1
DA:8959,0
DA:8961,1
DA:8962,1
DA:8963,1
DA:8964,1
DA:8966,2
DA:8967,2
DA:8968,2
DA:8970,0
DA:8971,0
DA:8972,0
DA:8973,0
DA:8974,0
DA:8975,0
DA:8976,0
DA:8979,3
DA:8980,3
DA:8981,2
DA:8982,5
DA:8999,0
DA:9001,0
DA:9003,0
DA:9004,0
DA:9007,2
DA:9008,0
DA:9009,0
DA:9010,0
DA:9012,1
DA:9013,0
DA:9014,0
DA:9017,1
DA:9021,1
DA:9022,1
DA:9023,1
DA:9024,0
DA:9025,1
DA:9029,0
DA:9031,0
DA:9033,0
DA:9034,0
DA:9047,1
DA:9048,1
DA:9049,1
DA:9050,1
DA:9052,0
DA:9053,1
DA:9070,0
DA:9071,0
DA:9072,0
DA:9073,0
DA:9074,0
DA:9075,0
DA:9077,0
DA:9079,1
DA:9080,1
DA:9081,2
DA:9083,0
DA:9084,0
DA:9085,0
DA:9086,0
DA:9087,0
DA:9088,0
DA:9089,0
DA:9091,0
DA:9092,0
DA:9114,33
DA:9115,0
DA:9116,0
DA:9123,0
DA:9130,8
DA:9132,1
DA:9133,1
DA:9141,2
DA:9143,0
DA:9145,0
DA:9146,0
DA:9147,0
DA:9148,0
DA:9149,0
DA:9150,0
DA:9157,11
DA:9159,0
DA:9160,0
DA:9161,0
DA:9170,0
DA:9171,0
DA:9178,0
DA:9179,0
DA:9180,0
DA:9185,0
DA:9186,0
DA:9187,0
DA:9188,0
DA:9190,0
DA:9198,10
DA:9200,0
DA:9201,0
DA:9212,2
DA:9214,0
DA:9215,0
DA:9225,1690
DA:9226,0
DA:9228,0
DA:9230,1
DA:9231,2
DA:9254,13
DA:9258,9
DA:9260,9
DA:9261,9
DA:9264,10
DA:9266,10
DA:9267,10
DA:9269,32
DA:9270,32
DA:9271,32
DA:9274,1
DA:9275,1
DA:9276,1
DA:9284,0
DA:9285,0
DA:9288,0
DA:9289,0
DA:9290,0
DA:9292,0
DA:9295,0
DA:9308,3
DA:9310,1
DA:9311,1
DA:9312,1
DA:9320,0
DA:9321,0
DA:9324,0
DA:9325,1
DA:9327,1
DA:9330,2
DA:9332,1
DA:9333,1
DA:9334,1
DA:9336,0
DA:9344,0
DA:9345,0
DA:9346,0
DA:9347,0
DA:9349,0
DA:9350,0
DA:9351,0
DA:9352,0
DA:9354,0
DA:9355,0
DA:9357,0
DA:9358,0
DA:9359,0
DA:9361,0
DA:9365,0
DA:9371,0
DA:9380,2
DA:9382,11
DA:9385,10
DA:9388,8
DA:9390,51
DA:9391,51
DA:9392,51
DA:9395,0
DA:9396,0
DA:9397,0
DA:9398,0
DA:9399,0
DA:9400,0
DA:9402,0
DA:9403,0
DA:9405,0
DA:9406,0
DA:9407,0
DA:9410,0
DA:9411,0
DA:9412,0
DA:9413,0
DA:9414,0
DA:9416,0
DA:9421,0
DA:9422,0
DA:9423,0
DA:9424,0
DA:9426,0
DA:9427,0
DA:9428,0
DA:9429,0
DA:9430,0
DA:9431,0
DA:9432,0
DA:9433,0
DA:9434,0
DA:9435,0
DA:9436,0
DA:9438,0
DA:9439,0
DA:9440,0
DA:9441,0
DA:9442,0
DA:9443,0
DA:9444,0
DA:9445,0
DA:9446,0
DA:9447,0
DA:9448,0
DA:9449,0
DA:9451,0
DA:9454,0
DA:9457,0
DA:9458,0
DA:9459,0
DA:9460,0
DA:9461,0
DA:9462,0
DA:9467,0
DA:9468,0
DA:9471,0
DA:9476,1
DA:9477,1
DA:9478,0
DA:9479,0
DA:9480,1
DA:9483,2
DA:9484,2
DA:9485,1
DA:9486,1
DA:9495,1
DA:9496,1
DA:9497,1
DA:9500,1
DA:9501,1
DA:9502,1
DA:9505,31
DA:9506,31
DA:9507,31
DA:9517,33
DA:9518,66
DA:9527,0
DA:9528,0
DA:9529,0
DA:9530,0
DA:9531,0
DA:9533,0
DA:9536,0
DA:9537,0
DA:9538,0
DA:9539,0
DA:9540,0
DA:9541,0
DA:9542,0
DA:9544,0
DA:9545,0
DA:9546,0
DA:9547,0
DA:9549,0
DA:9550,0
DA:9551,0
DA:9553,0
DA:9554,0
DA:9555,0
DA:9556,0
DA:9557,0
DA:9560,0
DA:9561,0
DA:9562,0
DA:9563,0
DA:9564,0
DA:9566,0
DA:9568,0
DA:9570,0
DA:9571,0
DA:9572,0
DA:9573,0
DA:9575,0
DA:9577,0
DA:9578,0
DA:9579,0
DA:9582,0
DA:9583,0
DA:9584,0
DA:9585,0
DA:9586,0
DA:9588,0
DA:9589,0
DA:9590,0
DA:9591,0
DA:9593,0
DA:9598,1
DA:9604,1
DA:9605,1
DA:9607,1
DA:9610,1
DA:9611,32
DA:9612,2
DA:9615,1
DA:9617,3
DA:9618,1
DA:9619,0
DA:9621,0
DA:9622,0
DA:9623,0
DA:9624,0
DA:9625,0
DA:9626,0
DA:9627,0
DA:9628,0
DA:9629,0
DA:9630,0
DA:9635,0
DA:9636,0
DA:9637,0
DA:9638,0
DA:9641,1
DA:9647,1
DA:9648,1
DA:9702,1
DA:9706,0
DA:9707,0
DA:9708,0
DA:9709,0
DA:9711,0
DA:9712,0
DA:9714,0
DA:9715,0
DA:9717,0
DA:9718,0
DA:9719,0
DA:9720,0
DA:9721,1
DA:9722,0
DA:9723,0
DA:9724,0
DA:9725,0
DA:9727,0
DA:9728,0
DA:9729,0
DA:9730,0
DA:9731,0
DA:9732,0
DA:9733,0
DA:9734,0
DA:9738,0
DA:9739,0
DA:9741,0
DA:9742,1
DA:9743,0
DA:9744,0
DA:9745,0
DA:9746,0
DA:9747,0
DA:9748,0
DA:9749,0
DA:9751,0
DA:9752,0
DA:9753,1
DA:9754,0
DA:9755,0
DA:9756,0
DA:9757,0
DA:9758,0
DA:9759,1
DA:9760,0
DA:9761,0
DA:9763,0
DA:9764,0
DA:9765,0
DA:9766,0
DA:9767,0
DA:9768,0
DA:9770,0
DA:9771,0
DA:9772,1
DA:9773,0
DA:9774,0
DA:9775,0
DA:9776,0
DA:9777,0
DA:9778,0
DA:9779,0
DA:9780,0
DA:9781,0
DA:9782,0
DA:9784,0
DA:9785,0
DA:9786,1
DA:9787,0
DA:9788,0
DA:9789,0
DA:9790,0
DA:9791,0
DA:9792,0
DA:9793,0
DA:9794,0
DA:9796,0
DA:9797,0
DA:9798,1
DA:9799,0
DA:9800,0
DA:9802,0
DA:9803,0
DA:9805,0
DA:9806,0
DA:9808,0
DA:9809,0
DA:9810,1
DA:9813,2
DA:9814,3
DA:9815,3
DA:9816,2
DA:9817,2
DA:9818,3
DA:9819,2
DA:9820,2
DA:9821,3
DA:9822,2
DA:9823,2
DA:9824,3
DA:9825,2
DA:9826,2
DA:9827,3
DA:9828,2
DA:9829,2
DA:9830,3
DA:9831,2
DA:9832,2
DA:9833,4
DA:9834,2
DA:9835,2
DA:9836,4
DA:9837,2
DA:9838,2
DA:9839,4
DA:9840,2
DA:9841,2
DA:9842,3
DA:9843,2
DA:9844,2
DA:9845,4
DA:9846,2
DA:9847,2
DA:9848,4
DA:9849,2
DA:9850,2
DA:9851,4
DA:9852,2
DA:9853,2
DA:9854,4
DA:9855,2
DA:9856,2
DA:9857,4
DA:9858,2
DA:9859,2
DA:9860,3
DA:9861,2
DA:9862,2
DA:9863,4
DA:9864,2
DA:9865,2
DA:9866,4
DA:9867,2
DA:9868,2
DA:9869,3
DA:9870,2
DA:9871,2
DA:9872,3
DA:9873,2
DA:9874,2
DA:9875,4
DA:9876,2
DA:9877,2
DA:9878,4
DA:9879,2
DA:9880,2
DA:9881,4
DA:9882,2
DA:9883,2
DA:9884,3
DA:9885,2
DA:9886,2
DA:9887,4
DA:9888,2
DA:9889,2
DA:9890,4
DA:9891,2
DA:9892,2
DA:9893,4
DA:9894,2
DA:9895,2
DA:9896,4
DA:9897,2
DA:9898,2
DA:9899,3
DA:9900,2
DA:9901,2
DA:9902,4
DA:9903,2
DA:9904,2
DA:9905,2
DA:9906,3
DA:9908,2
DA:9920,11153
DA:9921,11153
DA:9923,0
DA:9926,0
DA:9929,0
DA:9933,0
DA:9935,0
DA:9938,0
DA:9939,0
DA:9942,1273
DA:9943,1273
DA:9951,1
DA:9953,1
DA:9959,1
DA:9960,0
DA:9962,1
DA:9963,0
DA:9966,1
DA:9967,1
DA:9968,0
DA:9969,0
DA:9970,0
DA:9973,1
DA:9974,1
DA:9976,0
DA:9977,0
DA:9980,1
DA:9981,1
DA:9982,1
DA:9983,1
DA:9985,0
DA:9986,1
DA:9988,0
DA:9989,8
DA:9991,4
DA:9992,0
DA:9994,0
DA:9997,14
DA:9998,1
DA:9999,3
DA:10000,15
DA:10001,0
DA:10002,1
DA:10003,340
DA:10004,170
DA:10005,3
DA:10006,86
DA:10007,1
DA:10008,0
DA:10009,95
DA:10010,0
DA:10011,1
DA:10013,1
DA:10014,0
DA:10015,0
DA:10016,0
DA:10017,0
DA:10019,1
DA:10020,1
DA:10083,1
DA:10088,8
DA:10090,1
DA:10091,1
DA:10092,1
DA:10185,0
DA:10186,0
DA:10187,0
DA:10188,0
DA:10189,0
DA:10190,0
DA:10191,0
DA:10192,0
DA:10193,0
DA:10194,0
DA:10196,0
DA:10197,0
DA:10198,0
DA:10199,0
DA:10200,0
DA:10202,0
DA:10203,0
DA:10206,0
DA:10207,0
DA:10208,0
DA:10212,0
DA:10213,0
DA:10214,0
DA:10215,0
DA:10218,1
DA:10224,1
DA:10230,1
DA:10231,2
DA:10232,1
DA:10234,1
DA:10235,1
DA:10236,1
DA:10237,2
DA:10238,1
DA:10241,1
DA:10242,2
DA:10260,4
DA:10261,0
DA:10262,0
DA:10263,0
DA:10264,0
DA:10265,0
DA:10266,0
DA:10267,0
DA:10268,0
DA:10271,4
DA:10273,8
DA:10274,8
DA:10279,8
DA:10280,8
DA:10282,8
DA:10284,4
DA:10285,4
DA:10302,1436
DA:10303,1436
DA:10305,0
DA:10306,0
DA:10309,15
DA:10310,15
DA:10316,1
DA:10317,1
DA:10318,1
DA:10319,1
DA:10320,1
DA:10321,1
DA:10322,2
DA:10323,2
DA:10324,2
DA:10336,1
DA:10338,1
DA:10339,1
DA:10341,2
DA:10342,2
DA:10343,2
DA:10344,2
DA:10345,1
DA:10346,1
DA:10347,2
DA:10349,0
DA:10350,0
DA:10351,0
DA:10387,0
DA:10389,0
DA:10390,0
DA:10468,0
DA:10471,0
DA:10472,0
DA:10473,0
DA:10475,0
DA:10479,0
DA:10483,0
DA:10510,76
DA:10512,0
DA:10513,0
DA:10514,0
DA:10515,0
DA:10516,0
DA:10518,0
DA:10519,0
DA:10537,0
DA:10538,0
DA:10542,0
DA:10543,0
DA:10547,0
DA:10548,0
DA:10585,1
DA:10592,0
DA:10594,0
DA:10595,0
DA:10596,0
DA:10598,0
DA:10602,0
DA:10603,0
DA:10604,0
DA:10605,0
DA:10606,0
DA:10607,0
DA:10609,0
DA:10612,0
DA:10614,0
DA:10615,0
DA:10616,0
DA:10617,0
DA:10619,0
DA:10622,0
DA:10623,0
DA:10624,0
DA:10625,0
DA:10627,0
DA:10628,0
DA:10629,0
DA:10630,0
DA:10631,0
DA:10633,0
DA:10636,0
DA:10637,0
DA:10638,0
DA:10650,1
DA:10651,1
DA:10683,1
DA:10684,1
DA:10686,0
DA:10687,0
DA:10688,0
DA:10691,0
DA:10710,0
DA:10711,0
DA:10713,0
DA:10716,0
DA:10717,0
DA:10719,0
DA:10720,0
DA:10722,0
DA:10723,0
DA:10725,0
DA:10726,0
DA:10728,0
DA:10729,0
DA:10733,0
DA:10734,0
DA:10735,0
DA:10737,0
DA:10780,0
DA:10781,0
DA:10782,0
DA:10893,85
DA:10898,595
DA:10899,510
DA:10902,85
DA:10903,85
DA:10905,0
DA:10906,0
DA:10907,0
DA:10908,0
DA:10909,0
DA:10910,0
DA:10916,0
DA:10917,0
DA:10918,0
DA:10919,0
DA:10921,1
DA:10922,1
DA:10923,1
DA:10924,1
DA:10926,32769
DA:10927,1
DA:10929,2
DA:10930,1
DA:10933,1
DA:10934,1
DA:10936,85
DA:10938,85
DA:10939,85
DA:10940,85
DA:10941,85
DA:10942,85
DA:10944,85
DA:10945,85
DA:10946,595
DA:10947,510
DA:10949,85
DA:10955,85
DA:10956,85
DA:10957,85
DA:10970,0
DA:10972,0
DA:10973,0
DA:10978,0
DA:10980,0
DA:10981,0
DA:10990,1
DA:10996,1
DA:11002,0
DA:11003,1
DA:11009,1
DA:11010,1
DA:11071,1
DA:11072,1
DA:11074,0
DA:11075,0
DA:11077,2
DA:11078,2
DA:11080,1
DA:11082,2
DA:11084,2
DA:11087,2
DA:11088,2
DA:11090,14
DA:11092,14
DA:11095,14
DA:11097,14
DA:11099,14
DA:11102,0
DA:11103,0
DA:11104,0
DA:11106,0
DA:11108,14
DA:11110,14
DA:11112,170
DA:11115,170
DA:11119,170
DA:11120,170
DA:11122,170
DA:11124,8
DA:11128,8
DA:11133,8
DA:11134,8
DA:11136,8
DA:11138,1
DA:11140,1
DA:11143,1
DA:11144,1
DA:11146,0
DA:11148,0
DA:11149,0
DA:11151,1
DA:11153,1
DA:11155,1
DA:11158,1
DA:11159,1
DA:11161,1
DA:11163,0
DA:11164,0
DA:11166,4
DA:11167,1
DA:11174,1
DA:11180,8
DA:11181,1
DA:11205,1
DA:11209,1
DA:11210,1
DA:11211,1
DA:11255,0
DA:11256,0
DA:11257,0
DA:11258,0
DA:11260,0
DA:11263,0
DA:11264,0
DA:11265,0
DA:11266,0
DA:11267,0
DA:11268,0
DA:11270,0
DA:11271,0
DA:11272,0
DA:11273,0
DA:11274,0
DA:11275,0
DA:11276,0
DA:11278,0
DA:11279,0
DA:11282,0
DA:11283,0
DA:11285,0
DA:11286,0
DA:11289,0
DA:11290,0
DA:11291,0
DA:11292,0
DA:11293,0
DA:11294,0
DA:11295,0
DA:11296,0
DA:11298,0
DA:11299,0
DA:11300,0
DA:11301,0
DA:11303,0
DA:11306,0
DA:11307,0
DA:11308,0
DA:11309,0
DA:11311,0
DA:11312,0
DA:11313,0
DA:11315,0
DA:11318,0
DA:11319,0
DA:11320,0
DA:11321,0
DA:11322,0
DA:11324,0
DA:11327,0
DA:11328,0
DA:11329,0
DA:11330,0
DA:11332,0
DA:11335,0
DA:11337,0
DA:11338,0
DA:11339,0
DA:11340,0
DA:11341,0
DA:11342,0
DA:11343,0
DA:11344,0
DA:11348,0
DA:11349,0
DA:11350,0
DA:11351,0
DA:11352,0
DA:11353,0
DA:11354,0
DA:11355,0
DA:11356,0
DA:11358,0
DA:11359,0
DA:11362,0
DA:11363,0
DA:11364,0
DA:11365,0
DA:11366,0
DA:11367,0
DA:11369,0
DA:11371,0
DA:11372,0
DA:11373,0
DA:11374,0
DA:11375,0
DA:11376,0
DA:11377,0
DA:11378,0
DA:11380,0
DA:11381,0
DA:11384,1
DA:11385,1
DA:11386,1
DA:11387,1
DA:11388,0
DA:11389,1
DA:11390,0
DA:11391,1
DA:11392,0
DA:11393,1
DA:11394,0
DA:11395,1
DA:11406,0
DA:11407,0
DA:11408,0
DA:11409,0
DA:11412,0
DA:11428,0
DA:11429,0
DA:11432,0
DA:11433,0
DA:11437,0
DA:11438,0
DA:11486,0
DA:11489,0
DA:11490,0
DA:11493,0
DA:11496,0
DA:11497,0
DA:11501,0
DA:11504,0
DA:11505,0
DA:11508,0
DA:11509,0
DA:11511,0
DA:11513,0
DA:11517,0
DA:11518,0
DA:11523,0
DA:11524,0
DA:11527,0
DA:11528,0
DA:11534,0
DA:11535,0
DA:11537,0
DA:11542,0
DA:11547,0
DA:11548,0
DA:11552,0
DA:11553,0
DA:11554,0
DA:11555,0
DA:11556,0
DA:11568,0
DA:11569,0
DA:11570,0
DA:11572,0
DA:11576,0
DA:11577,0
DA:11580,0
DA:11581,0
DA:11584,0
DA:11585,0
DA:11586,0
DA:11589,0
DA:11597,0
DA:11598,0
DA:11599,0
DA:11600,0
DA:11601,0
DA:11602,0
DA:11603,0
DA:11604,0
DA:11612,0
DA:11613,0
DA:11615,0
DA:11617,0
DA:11618,0
DA:11619,0
DA:11621,0
DA:11624,0
DA:11625,0
DA:11626,0
DA:11627,0
DA:11628,0
DA:11631,0
DA:11632,0
DA:11633,0
DA:11635,0
DA:11637,0
DA:11640,0
DA:11642,0
DA:11643,0
DA:11644,0
DA:11645,0
DA:11647,0
DA:11648,0
DA:11649,0
DA:11650,0
DA:11653,0
DA:11654,0
DA:11655,0
DA:11656,0
DA:11661,0
DA:11662,0
DA:11665,0
DA:11666,0
DA:11669,0
DA:11670,0
DA:11673,0
DA:11674,0
DA:11677,0
DA:11678,0
DA:11681,0
DA:11682,0
DA:11685,0
DA:11686,0
DA:11694,0
DA:11695,0
DA:11696,0
DA:11698,0
DA:11711,0
DA:11713,0
DA:11714,0
DA:11715,0
DA:11716,0
DA:11718,0
DA:11720,0
DA:11721,0
DA:11723,0
DA:11726,0
DA:11728,0
DA:11729,0
DA:11731,0
DA:11732,0
DA:11733,0
DA:11734,0
DA:11735,0
DA:11736,0
DA:11737,0
DA:11738,0
DA:11739,0
DA:11740,0
DA:11743,0
DA:11745,0
DA:11746,0
DA:11749,0
DA:11751,0
DA:11752,0
DA:11755,0
DA:11757,0
DA:11758,0
DA:11761,0
DA:11763,0
DA:11764,0
DA:11767,0
DA:11769,0
DA:11770,0
DA:11771,0
DA:11772,0
DA:11774,0
DA:11775,0
DA:11778,0
DA:11779,0
DA:11784,0
DA:11785,0
DA:11787,0
DA:11788,0
DA:11790,0
DA:11791,0
DA:11793,0
DA:11794,0
DA:11797,0
DA:11798,0
DA:11818,0
DA:11820,0
DA:11824,0
DA:11825,0
DA:11827,0
DA:11828,0
DA:11831,0
DA:11832,0
DA:11840,0
DA:11842,0
DA:11843,0
DA:11847,0
DA:11848,0
DA:11850,0
DA:11851,0
DA:11852,0
DA:11854,0
DA:11855,0
DA:11857,0
DA:11858,0
DA:11860,0
DA:11861,0
DA:11862,0
DA:11864,0
DA:11866,0
DA:11867,0
DA:11868,0
DA:11869,0
DA:11871,0
DA:11872,0
DA:11874,0
DA:11875,0
DA:11876,0
DA:11877,0
DA:11878,0
DA:11879,0
DA:11880,0
DA:11881,0
DA:11883,0
DA:11884,0
DA:11886,0
DA:11887,0
DA:11888,0
DA:11889,0
DA:11890,0
DA:11891,0
DA:11897,0
DA:11898,0
DA:11899,0
DA:11903,0
DA:11904,0
DA:11905,0
DA:11907,0
DA:11908,0
DA:11909,0
DA:11910,0
DA:11911,0
DA:11912,0
DA:11913,0
DA:11914,0
DA:11918,0
DA:11919,0
DA:11920,0
DA:11921,0
DA:11922,0
DA:11923,0
DA:11924,0
DA:11925,0
DA:11926,0
DA:11927,0
DA:11929,0
DA:11931,0
DA:11932,0
DA:11933,0
DA:11934,0
DA:11935,0
DA:11936,0
DA:12068,0
DA:12071,0
DA:12073,0
DA:12074,0
DA:12076,0
DA:12077,0
DA:12078,0
DA:12080,0
DA:12081,0
DA:12083,0
DA:12085,0
DA:12086,0
DA:12087,0
DA:12089,0
DA:12091,0
DA:12092,0
DA:12094,0
DA:12095,0
DA:12096,0
DA:12097,0
DA:12192,0
DA:12193,0
DA:12195,0
DA:12196,0
DA:12221,0
DA:12222,0
DA:12223,0
DA:12224,0
DA:12233,0
DA:12234,0
DA:12235,0
DA:12237,0
DA:12238,0
DA:12239,0
DA:12240,0
DA:12241,0
DA:12242,0
DA:12244,0
DA:12247,0
DA:12248,0
DA:12250,0
DA:12252,0
DA:12254,0
DA:12255,0
DA:12258,0
DA:12260,0
DA:12263,0
DA:12264,0
DA:12267,0
DA:12268,0
DA:12298,1
DA:12427,17
DA:12429,17
DA:12430,1
DA:12431,1
DA:12433,17
DA:12437,5
DA:12438,5
DA:12440,12
DA:12441,12
DA:12456,1
DA:12457,2
DA:12458,2
DA:12460,1
DA:12461,1
DA:12463,0
DA:12464,0
DA:12466,1
DA:12467,1
DA:12469,1
DA:12470,1
DA:12474,4
DA:12475,4
DA:12476,4
DA:12477,0
DA:12478,0
DA:12479,0
DA:12480,8
DA:12481,8
DA:12482,8
DA:12483,0
DA:12484,0
DA:12485,0
DA:12486,0
DA:12487,0
DA:12488,0
DA:12489,0
DA:12491,0
DA:12495,0
DA:12496,0
DA:12497,0
DA:12512,5
DA:12513,5
DA:12515,12
DA:12516,12
DA:12518,2
DA:12519,2
DA:12520,2
DA:12521,2
DA:12522,0
DA:12523,0
DA:12532,1
DA:12534,1
DA:12535,1
DA:12536,1
DA:12537,0
DA:12538,2
DA:12541,4
DA:12542,4
DA:12543,4
DA:12544,0
DA:12545,0
DA:12546,0
DA:12548,0
DA:12549,0
DA:12551,1
DA:12552,1
DA:12561,28
DA:12562,28
DA:12564,0
DA:12565,0
DA:12568,0
DA:12569,0
DA:12572,0
DA:12573,0
DA:12589,0
DA:12590,0
DA:12591,0
DA:12594,0
DA:12595,0
DA:12597,0
DA:12609,0
DA:12610,0
DA:12611,0
DA:12612,0
DA:12613,0
DA:12614,0
DA:12615,0
DA:12616,0
DA:12617,0
DA:12619,0
DA:12620,0
DA:12623,0
DA:12624,0
DA:12627,0
DA:12631,0
DA:12632,0
DA:12633,0
DA:12635,0
DA:12636,0
DA:12644,0
DA:12646,0
DA:12647,0
DA:12650,0
DA:12653,0
DA:12654,0
DA:12655,0
DA:12656,0
DA:12662,0
DA:12665,0
DA:12666,0
DA:12668,0
DA:12671,0
DA:12673,0
DA:12675,0
DA:12676,0
DA:12679,0
DA:12680,0
DA:12681,0
DA:12683,0
DA:12684,0
DA:12685,0
DA:12686,0
DA:12689,0
DA:12690,0
DA:12696,0
DA:12697,0
DA:12698,0
DA:12699,0
DA:12700,0
DA:12702,0
DA:12705,0
DA:12706,0
DA:12708,0
DA:12709,0
DA:12710,0
DA:12712,0
DA:12715,1
DA:12716,2
DA:12717,1
DA:12719,1
DA:12721,3
DA:12723,1
DA:12724,1
DA:12725,1
DA:12726,1
DA:12727,1
DA:12729,1
DA:12730,1
DA:12731,1
DA:12733,1
DA:12734,1
DA:12735,1
DA:12737,1
DA:12738,1
DA:12739,1
DA:12741,8
DA:12742,8
DA:12744,16
DA:12745,16
DA:12747,8
DA:12749,8
DA:12751,8
DA:12753,8
DA:12754,8
DA:12755,8
DA:12756,77
DA:12757,85
DA:12758,85
DA:12759,85
DA:12760,85
DA:12762,8
DA:12763,8
DA:12764,0
DA:12765,0
DA:12766,0
DA:12768,8
DA:12769,16
DA:12773,8
DA:12775,8
DA:12776,8
DA:12778,16
DA:12781,0
DA:12782,0
DA:12785,0
DA:12786,0
DA:12789,14
DA:12790,14
DA:12791,14
DA:12792,14
DA:12793,0
DA:12794,0
DA:12795,0
DA:12796,0
DA:12798,0
DA:12801,0
DA:12806,14
DA:12808,14
DA:12809,14
DA:12812,14
DA:12813,14
DA:12814,14
DA:12815,90
DA:12816,90
DA:12817,90
DA:12818,90
DA:12820,1261
DA:12821,1261
DA:12822,1261
DA:12823,1176
DA:12824,85
DA:12826,85
DA:12828,85
DA:12830,85
DA:12832,85
DA:12834,0
DA:12836,0
DA:12837,0
DA:12838,0
DA:12839,0
DA:12842,170
DA:12843,170
DA:12844,170
DA:12845,0
DA:12846,0
DA:12847,0
DA:12848,0
DA:12849,0
DA:12850,0
DA:12851,0
DA:12854,85
DA:12855,85
DA:12856,85
DA:12858,85
DA:12859,85
DA:12860,85
DA:12863,85
DA:12864,85
DA:12865,85
DA:12866,85
DA:12868,0
DA:12869,0
DA:12870,0
DA:12872,0
DA:12873,0
DA:12875,0
DA:12876,0
DA:12893,0
DA:12894,0
DA:12895,0
DA:12897,0
DA:12898,0
DA:12899,0
DA:12901,0
DA:12902,0
DA:12903,0
DA:12905,0
DA:12906,0
DA:12907,0
DA:12908,0
DA:12911,0
DA:12912,0
DA:12915,0
DA:12916,0
DA:12917,0
DA:12919,0
DA:12921,0
DA:12925,0
DA:12926,0
DA:12927,0
DA:12929,0
DA:12931,0
DA:12934,0
DA:12935,0
DA:12937,0
DA:12938,0
DA:12939,0
DA:12940,0
DA:12942,0
DA:12944,0
DA:12945,0
DA:12946,0
DA:12947,0
DA:12949,0
DA:12950,0
DA:12951,0
DA:12952,0
DA:12953,0
DA:12954,0
DA:12955,0
DA:12957,0
DA:12958,0
DA:12961,76
DA:12962,76
DA:12963,76
DA:12964,76
DA:12965,76
DA:12966,76
DA:12968,95
DA:12969,95
DA:12972,85
DA:12973,85
DA:12974,170
DA:12975,85
DA:12976,85
DA:12977,85
DA:12978,85
DA:12979,85
DA:12981,85
DA:12983,85
DA:12985,85
DA:12987,0
DA:12989,0
DA:12990,0
DA:12997,85
DA:12998,85
DA:13000,85
DA:13001,0
DA:13003,0
DA:13006,0
DA:13007,0
DA:13008,0
DA:13011,85
DA:13012,85
DA:13014,85
DA:13015,85
DA:13016,85
DA:13017,85
DA:13019,170
DA:13020,85
DA:13021,85
DA:13023,85
DA:13024,170
DA:13025,85
DA:13026,85
DA:13028,85
DA:13031,85
DA:13032,85
DA:13033,85
DA:13034,0
DA:13035,0
DA:13036,85
DA:13037,85
DA:13039,76
DA:13044,76
DA:13046,76
DA:13047,76
DA:13049,76
DA:13050,76
DA:13051,76
DA:13054,0
DA:13058,0
DA:13059,0
DA:13061,76
DA:13062,0
DA:13068,0
DA:13069,0
DA:13071,0
DA:13072,0
DA:13074,0
DA:13075,0
DA:13077,0
DA:13083,0
DA:13085,0
DA:13087,0
DA:13088,0
DA:13089,0
DA:13090,0
DA:13091,0
DA:13092,0
DA:13093,0
DA:13094,0
DA:13098,0
DA:13099,0
DA:13101,0
DA:13106,0
DA:13108,0
DA:13109,0
DA:13110,0
DA:13111,0
DA:13112,0
DA:13113,0
DA:13115,0
DA:13116,0
DA:13117,0
DA:13118,0
DA:13120,0
DA:13123,0
DA:13125,0
DA:13126,0
DA:13127,0
DA:13128,0
DA:13129,0
DA:13130,14
DA:13135,14
DA:13137,28
DA:13138,28
DA:13139,14
DA:13141,14
DA:13142,0
DA:13143,14
DA:13145,1436
DA:13146,1436
DA:13147,1436
DA:13149,0
DA:13152,86
DA:13153,86
DA:13154,0
DA:13155,0
DA:13157,86
DA:13159,0
DA:13160,0
DA:13169,1261
DA:13171,1261
DA:13173,1261
DA:13174,1261
DA:13176,1261
DA:13177,1261
DA:13178,170
DA:13179,85
DA:13180,0
DA:13182,85
DA:13184,1261
DA:13187,1261
DA:13188,1261
DA:13197,1346
DA:13199,1346
DA:13201,1346
DA:13202,1346
DA:13231,1
DA:13232,1
DA:13233,0
DA:13234,1
DA:13235,1
DA:13236,1
DA:13237,1
DA:13299,1
DA:13300,1
DA:13301,1
DA:13303,1
DA:13306,1
DA:13307,1
DA:13308,1
DA:13316,0
DA:13317,0
DA:13318,0
DA:13319,0
DA:13320,0
DA:13322,0
DA:13323,0
DA:13328,1
DA:13329,1
DA:13330,1
DA:13332,1
DA:13333,1
DA:13334,1
DA:13336,1
DA:13337,9
DA:13338,8
DA:13339,8
DA:13341,0
DA:13342,0
DA:13344,1
DA:13346,1
DA:13347,1
DA:13348,1
DA:13349,1
DA:13350,9
DA:13351,8
DA:13352,8
DA:13354,0
DA:13357,1
DA:13358,0
DA:13359,0
DA:13360,0
DA:13364,1
DA:13365,0
DA:13366,0
DA:13369,1
DA:13370,1
DA:13382,0
DA:13383,0
DA:13384,0
DA:13385,0
DA:13387,0
DA:13388,0
DA:13389,0
DA:13390,0
DA:13391,0
DA:13395,0
DA:13398,0
DA:13399,0
DA:13400,0
DA:13403,0
DA:13404,0
DA:13406,0
DA:13410,1
DA:13412,1
DA:13413,0
DA:13414,0
DA:13419,1
DA:13420,1
DA:13421,0
DA:13422,0
DA:13424,0
DA:13425,0
DA:13426,0
DA:13428,0
DA:13430,0
DA:13431,0
DA:13432,0
DA:13438,1
DA:13439,1
DA:13440,1
DA:13441,1
DA:13442,1
DA:13443,1
DA:13445,0
DA:13446,0
DA:13447,0
DA:13448,0
DA:13449,0
DA:13450,0
DA:13451,0
DA:13452,0
DA:13453,0
DA:13454,0
DA:13455,0
DA:13456,0
DA:13457,0
DA:13459,1
DA:13460,1
DA:13461,0
DA:13463,2
DA:13464,1
DA:13465,0
DA:13466,0
DA:13468,0
DA:13469,0
DA:13470,0
DA:13471,0
DA:13472,0
DA:13473,0
DA:13476,1
DA:13477,0
DA:13478,1
DA:13479,0
DA:13480,1
DA:13481,1
DA:13508,0
DA:13509,0
DA:13510,0
DA:13511,0
DA:13513,1
DA:13514,1
DA:13515,0
DA:13516,0
DA:13518,1
DA:13519,1
DA:13520,0
DA:13521,0
DA:13523,1
DA:13526,0
DA:13527,0
DA:13529,0
DA:13530,0
DA:13531,0
DA:13532,0
DA:13533,0
DA:13535,1
DA:13536,1
DA:13537,1
DA:13538,1
DA:13541,1
DA:13542,1
DA:13543,0
DA:13545,1
DA:13546,0
DA:13550,1
DA:13552,1
DA:13554,1
DA:13555,0
DA:13558,1
DA:13559,0
DA:13561,2
DA:13562,1
DA:13564,1
DA:13565,0
DA:13570,1
DA:13573,0
DA:13574,0
DA:13575,0
DA:13589,3
DA:13591,3
DA:13592,2
DA:13593,3
DA:13597,1
DA:13599,1
DA:13600,1
DA:13601,1
DA:13602,2
DA:13603,2
DA:13604,3
DA:13605,1
DA:13606,2
DA:13607,2
DA:13608,2
DA:13616,0
DA:13618,0
DA:13619,0
DA:13621,0
DA:13623,0
DA:13625,1
DA:13626,1
DA:13643,1
DA:13652,0
DA:13653,0
DA:13654,0
DA:13656,0
DA:13657,0
DA:13658,0
DA:13661,0
DA:13662,0
DA:13664,0
DA:13665,0
DA:13666,0
DA:13668,0
DA:13670,0
DA:13673,0
DA:13674,0
DA:13675,0
DA:13676,0
DA:13678,0
DA:13686,0
DA:13687,0
DA:13688,0
DA:13696,0
DA:13697,0
DA:13698,0
DA:13699,0
DA:13700,0
DA:13702,0
DA:13703,0
DA:13714,1
DA:13715,2
DA:13718,1
DA:13727,0
DA:13728,0
DA:13729,0
DA:13730,0
DA:13732,0
DA:13735,0
DA:13742,1
DA:13743,1
DA:13744,1
DA:13745,0
DA:13746,0
DA:13747,0
DA:13749,0
DA:13752,0
DA:13761,0
DA:13762,0
DA:13763,0
DA:13764,0
DA:13767,0
DA:13768,0
DA:13769,0
DA:13773,0
DA:13774,0
DA:13775,0
DA:13776,0
DA:13779,0
DA:13780,0
DA:13781,0
DA:13782,0
DA:13784,0
DA:13785,0
DA:13786,0
DA:13787,0
DA:13788,0
DA:13790,0
DA:13791,0
DA:13797,1
DA:13798,0
DA:13799,0
DA:13814,37
DA:13815,37
DA:13819,0
DA:13820,0
DA:13822,40
DA:13823,40
DA:13825,0
DA:13826,0
DA:13828,0
DA:13829,0
DA:13831,0
DA:13832,0
DA:13834,8
DA:13835,8
DA:13836,8
DA:13837,8
DA:13838,8
DA:13839,8
DA:13840,8
DA:13842,101
DA:13844,101
DA:13845,101
DA:13847,101
DA:13850,0
DA:13851,0
DA:13852,0
DA:13854,0
DA:13855,0
DA:13856,0
DA:13857,0
DA:13859,0
DA:13862,0
DA:13863,0
DA:13864,0
DA:13865,0
DA:13866,0
DA:13867,0
DA:13868,0
DA:13869,0
DA:13871,0
DA:13873,0
DA:13876,0
DA:13877,0
DA:13878,0
DA:13879,0
DA:13880,0
DA:13881,0
DA:13882,0
DA:13883,0
DA:13886,0
DA:13887,0
DA:13888,0
DA:13891,2
DA:13893,2
DA:13894,2
DA:13896,2
DA:13897,2
DA:13898,2
DA:13899,2
DA:13900,2
DA:13913,178
DA:13914,178
DA:13915,178
DA:13917,0
DA:13918,0
DA:13919,0
DA:13921,0
DA:13922,0
DA:13925,0
DA:13926,0
DA:13927,0
DA:13929,0
DA:13932,0
DA:13933,0
DA:13934,0
DA:13937,0
DA:13938,0
DA:13941,0
DA:13942,0
DA:13943,0
DA:13951,0
DA:13958,0
DA:13960,0
DA:13961,0
DA:13963,0
DA:13965,0
DA:13975,1
DA:13977,0
DA:13978,0
DA:13979,0
DA:13980,0
DA:13982,0
DA:13985,0
DA:13986,0
DA:13987,0
DA:13988,0
DA:13989,0
DA:13990,0
DA:13991,0
DA:13992,0
DA:13995,0
DA:13998,0
DA:13999,0
DA:14002,0
DA:14006,0
DA:14008,1
DA:14010,1
DA:14011,1
DA:14026,24
DA:14027,48
DA:14028,24
DA:14029,0
DA:14030,24
DA:14031,0
DA:14032,24
DA:14033,0
DA:14034,24
DA:14035,0
DA:14036,24
DA:14037,0
DA:14038,24
DA:14039,0
DA:14041,24
DA:14043,8
DA:14044,8
DA:14046,8
DA:14047,8
DA:14051,8
DA:14054,8
DA:14059,8
DA:14062,16
DA:14063,16
DA:14064,8
DA:14065,61
DA:14066,53
DA:14067,8
DA:14068,8
DA:14070,0
DA:14073,45
DA:14074,8
DA:14075,8
DA:14076,0
DA:14077,8
DA:14078,8
DA:14083,8
DA:14084,0
DA:14086,8
DA:14087,8
DA:14088,8
DA:14091,37
DA:14094,8
DA:14096,0
DA:14099,16
DA:14100,16
DA:14103,8
DA:14104,8
DA:14105,8
DA:14106,8
DA:14108,16
DA:14109,16
DA:14110,8
DA:14111,8
DA:14113,8
DA:14114,8
DA:14116,8
DA:14120,8
DA:14125,8
DA:14127,8
DA:14128,8
DA:14130,8
DA:14131,8
DA:14133,0
DA:14134,0
DA:14136,0
DA:14137,0
DA:14139,8
DA:14140,8
DA:14143,0
DA:14144,0
DA:14146,0
DA:14147,0
DA:14148,0
DA:14150,0
DA:14151,0
DA:14152,0
DA:14153,0
DA:14154,0
DA:14157,0
DA:14160,8
DA:14162,0
DA:14163,0
DA:14164,0
DA:14165,0
DA:14168,85
DA:14169,85
DA:14170,85
DA:14172,0
DA:14173,0
DA:14174,0
DA:14175,0
DA:14178,32
DA:14179,32
DA:14182,101
DA:14184,101
DA:14200,0
DA:14201,0
DA:14203,0
DA:14205,0
DA:14206,0
DA:14207,0
DA:14208,0
DA:14209,0
DA:14211,0
DA:14212,0
DA:14213,0
DA:14214,0
DA:14215,0
DA:14223,1
DA:14224,1
DA:14225,1
DA:14227,1
DA:14229,0
DA:14230,0
DA:14231,0
DA:14232,0
DA:14235,0
DA:14236,0
DA:14237,0
DA:14240,0
DA:14241,0
DA:14243,0
DA:14244,0
DA:14247,0
DA:14248,0
DA:14249,0
DA:14250,0
DA:14252,0
DA:14255,0
DA:14256,0
DA:14258,0
DA:14259,0
DA:14262,0
DA:14265,1
DA:14268,0
DA:14269,0
DA:14272,0
DA:14273,0
DA:14276,1
DA:14277,2
DA:14278,9
DA:14279,8
DA:14280,8
DA:14285,1
DA:14287,0
DA:14288,0
DA:14289,0
DA:14290,0
DA:14291,0
DA:14292,0
DA:14293,0
DA:14296,0
DA:14298,1
DA:14299,1
DA:14302,8
DA:14303,8
DA:14304,8
DA:14305,0
DA:14306,0
DA:14307,0
DA:14309,8
DA:14312,0
DA:14313,0
DA:14315,1
DA:14316,1
DA:14317,1
DA:14319,1
DA:14320,1
DA:14321,1
DA:14323,1
DA:14327,8
DA:14329,85
DA:14330,85
DA:14331,85
DA:14333,8
DA:14334,8
DA:14335,8
DA:14337,0
DA:14338,0
DA:14339,0
DA:14340,0
DA:14341,0
DA:14343,8
DA:14364,1354
DA:14366,1354
DA:14367,1354
DA:14369,101
DA:14371,8
DA:14372,8
DA:14373,8
DA:14374,8
DA:14375,8
DA:14378,0
DA:14379,0
DA:14380,0
DA:14381,0
DA:14382,0
DA:14384,85
DA:14385,85
DA:14386,85
DA:14387,85
DA:14388,170
DA:14389,170
DA:14390,170
DA:14392,1346
DA:14393,1346
DA:14395,1516
DA:14396,1516
DA:14398,340
DA:14399,340
DA:14400,340
DA:14402,101
DA:14405,101
DA:14406,101
DA:14408,2181
DA:14409,2181
DA:14411,85
DA:14412,85
DA:14414,1261
DA:14415,1261
DA:14417,0
DA:14418,0
DA:14421,93
DA:14422,93
DA:14423,93
DA:14425,1346
DA:14427,12406
DA:14429,12406
DA:14430,12406
DA:14431,1346
DA:14432,2692
DA:14433,1253
DA:14434,3945
DA:14436,0
DA:14437,0
DA:14438,0
DA:14441,255
DA:14442,255
DA:14443,93
DA:14444,93
DA:14445,85
DA:14447,255
DA:14449,0
DA:14450,0
DA:14452,170
DA:14453,170
DA:14454,170
DA:14455,170
DA:14456,170
DA:14457,170
DA:14459,170
DA:14462,170
DA:14463,0
DA:14465,170
DA:14466,0
DA:14467,0
DA:14469,85
DA:14470,85
DA:14471,85
DA:14472,85
DA:14473,835
DA:14474,8
DA:14475,85
DA:14477,0
DA:14480,0
DA:14482,0
DA:14483,0
DA:14485,170
DA:14486,170
DA:14487,170
DA:14488,0
DA:14489,0
DA:14490,0
DA:14491,0
DA:14492,0
DA:14493,0
DA:14494,0
DA:14495,0
DA:14496,0
DA:14497,0
DA:14499,170
DA:14500,170
DA:14501,170
DA:14502,170
DA:14503,170
DA:14504,170
DA:14505,170
DA:14507,101
DA:14509,101
DA:14511,101
DA:14512,93
DA:14513,0
DA:14515,93
DA:14516,93
DA:14518,101
DA:14520,2181
DA:14521,2181
DA:14523,2181
DA:14524,0
DA:14525,2181
DA:14526,2181
DA:14528,2181
DA:14531,1354
DA:14533,1346
DA:14534,1346
DA:14536,1346
DA:14537,2692
DA:14538,1253
DA:14539,1253
DA:14540,1253
DA:14543,93
DA:14544,93
DA:14546,1346
DA:14547,758
DA:14548,2692
DA:14551,758
DA:14552,758
DA:14553,170
DA:14554,758
DA:14556,8
DA:14557,8
DA:14558,0
DA:14559,0
DA:14560,0
DA:14561,0
DA:14563,8
DA:14564,93
DA:14565,93
DA:14566,0
DA:14567,93
DA:14569,0
DA:14570,0
DA:14573,0
DA:14574,0
DA:14593,8
DA:14594,8
DA:14597,8
DA:14599,8
DA:14601,8
DA:14602,8
DA:14603,16
DA:14605,8
DA:14607,8
DA:14608,0
DA:14610,0
DA:14612,8
DA:14614,8
DA:14626,0
DA:14627,0
DA:14628,0
DA:14630,0
DA:14632,0
DA:14633,0
DA:14636,0
DA:14638,0
DA:14639,0
DA:14641,0
DA:14642,0
DA:14645,0
DA:14647,0
DA:14648,0
DA:14650,0
DA:14651,0
DA:14652,0
DA:14653,0
DA:14656,0
DA:14658,0
DA:14659,0
DA:14661,0
DA:14662,0
DA:14665,0
DA:14666,0
DA:14669,0
DA:14670,0
DA:14671,0
DA:14672,0
DA:14673,0
DA:14676,1
DA:14677,1
DA:14680,0
DA:14681,0
DA:14684,1
DA:14686,1
DA:14687,0
DA:14688,0
DA:14689,0
DA:14690,0
DA:14691,0
DA:14692,0
DA:14693,1
DA:14694,1
DA:14697,2
DA:14698,2
DA:14707,1
DA:14709,0
DA:14710,0
DA:14711,0
DA:14712,0
DA:14713,0
DA:14714,0
DA:14715,0
DA:14716,0
DA:14718,0
DA:14720,0
DA:14721,0
DA:14722,0
DA:14724,0
DA:14725,0
DA:14727,1
DA:14728,1
DA:14729,1
DA:14731,0
DA:14732,0
DA:14733,0
DA:14734,0
DA:14735,0
DA:14736,0
DA:14737,0
DA:14740,0
DA:14741,0
DA:14742,0
DA:14743,0
DA:14744,0
DA:14745,0
DA:14746,0
DA:14747,0
DA:14748,0
DA:14749,0
DA:14750,0
DA:14751,0
DA:14752,0
DA:14755,0
DA:14756,0
DA:14757,0
DA:14760,0
DA:14761,0
DA:14762,0
DA:14763,0
DA:14765,0
DA:14769,0
DA:14770,0
DA:14771,0
DA:14772,0
DA:14773,0
DA:14774,0
DA:14775,0
DA:14776,0
DA:14777,0
DA:14778,0
DA:14779,0
DA:14780,0
DA:14781,0
DA:14782,0
DA:14783,0
DA:14784,0
DA:14787,0
DA:14788,0
DA:14789,0
DA:14790,0
DA:14792,0
DA:14793,0
DA:14795,0
DA:14796,0
DA:14797,0
DA:14798,0
DA:14799,0
DA:14800,0
DA:14801,0
DA:14803,0
DA:14804,0
DA:14805,0
DA:14806,0
DA:14807,0
DA:14808,0
DA:14810,0
DA:14811,0
DA:14812,0
DA:14813,0
DA:14814,0
DA:14815,0
DA:14816,0
DA:14818,0
DA:14821,0
DA:14822,0
DA:14823,0
DA:14824,0
DA:14825,0
DA:14826,0
DA:14827,0
DA:14828,0
DA:14829,0
DA:14830,0
DA:14831,0
DA:14832,0
DA:14833,0
DA:14834,0
DA:14835,0
DA:14836,0
DA:14837,0
DA:14838,0
DA:14839,0
DA:14843,1
DA:14844,1
DA:14845,0
DA:14846,0
DA:14848,1
DA:14850,0
DA:14851,0
DA:14852,0
DA:14854,0
DA:14855,0
DA:14856,0
DA:14858,0
DA:14859,0
DA:14861,0
DA:14862,0
DA:14863,0
DA:14864,0
DA:14865,0
DA:14866,0
DA:14868,0
DA:14869,0
DA:14870,0
DA:14873,0
DA:14874,0
DA:14875,0
DA:14876,0
DA:14877,0
DA:14878,0
DA:14879,0
DA:14880,0
DA:14883,0
DA:14884,0
DA:14886,0
DA:14889,0
DA:14890,0
DA:14892,0
DA:14893,0
DA:14894,0
DA:14895,0
DA:14896,0
DA:14898,0
DA:14899,0
DA:14900,0
DA:14901,0
DA:14903,0
DA:14904,0
DA:14906,0
DA:14909,0
DA:14910,0
DA:14911,0
DA:14912,0
DA:14913,0
DA:14915,0
DA:14918,0
DA:14920,0
DA:14921,0
DA:14923,0
DA:14925,0
DA:14926,0
DA:14927,0
DA:14928,0
DA:14930,0
DA:14931,0
DA:14944,1516
DA:14945,1516
DA:14949,0
DA:14950,0
DA:14953,0
DA:14955,0
DA:14958,0
DA:14959,0
DA:14960,0
DA:14961,0
DA:14963,0
DA:14964,0
DA:14969,0
DA:14970,0
DA:14976,0
DA:14979,0
DA:14980,0
DA:14981,0
DA:14984,1346
DA:14985,1346
DA:14986,1346
DA:14987,170
DA:14988,170
DA:14990,170
DA:14991,170
DA:14993,0
DA:14994,0
DA:14996,170
DA:14997,170
DA:15030,0
DA:15031,0
DA:15034,0
DA:15035,0
DA:15040,0
DA:15042,0
DA:15043,0
DA:15044,0
DA:15045,0
DA:15048,0
DA:15049,0
DA:15050,0
DA:15051,0
DA:15052,0
DA:15053,0
DA:15058,0
DA:15059,0
DA:15060,0
DA:15063,0
DA:15064,0
DA:15065,0
DA:15066,0
DA:15067,0
DA:15068,0
DA:15069,0
DA:15070,0
DA:15071,0
DA:15072,0
DA:15074,0
DA:15083,0
DA:15084,0
DA:15085,0
DA:15088,0
DA:15089,0
DA:15090,0
DA:15091,0
DA:15092,0
DA:15093,0
DA:15094,0
DA:15095,0
DA:15096,0
DA:15097,0
DA:15098,0
DA:15099,0
DA:15102,0
DA:15103,0
DA:15107,0
DA:15108,0
DA:15112,0
DA:15113,0
DA:15114,0
DA:15116,0
DA:15119,0
DA:15120,0
DA:15121,0
DA:15123,0
DA:15128,0
DA:15129,0
DA:15130,0
DA:15131,0
DA:15132,0
DA:15134,0
DA:15138,0
DA:15139,0
DA:15143,0
DA:15144,0
DA:15145,0
DA:15147,0
DA:15150,0
DA:15151,0
DA:15152,0
DA:15154,0
DA:15161,0
DA:15162,0
DA:15166,0
DA:15167,0
DA:15169,0
DA:15170,0
DA:15172,0
DA:15173,0
DA:15174,0
DA:15175,0
DA:15176,0
DA:15178,0
DA:15181,0
DA:15182,0
DA:15184,0
DA:15185,0
DA:15187,0
DA:15188,0
DA:15189,0
DA:15190,0
DA:15191,0
DA:15193,0
DA:15196,0
DA:15197,0
DA:15200,0
DA:15201,0
DA:15202,0
DA:15203,0
DA:15204,0
DA:15205,0
DA:15206,0
DA:15207,0
DA:15208,0
DA:15209,0
DA:15210,0
DA:15212,0
DA:15213,0
DA:15214,0
DA:15217,0
DA:15218,0
DA:15220,0
DA:15221,0
DA:15224,0
DA:15225,0
DA:15230,0
DA:15231,0
DA:15236,0
DA:15237,0
DA:15240,0
DA:15241,0
DA:15242,0
DA:15243,0
DA:15244,0
DA:15245,0
DA:15258,186
DA:15259,186
DA:15260,186
DA:15261,186
DA:15262,186
DA:15263,186
DA:15266,24
DA:15267,24
DA:15268,24
DA:15269,24
DA:15270,24
DA:15273,176
DA:15274,176
DA:15276,2
DA:15277,2
DA:15279,0
DA:15280,0
DA:15283,8
DA:15284,8
DA:15285,8
DA:15286,8
DA:15287,8
DA:15290,8
DA:15291,8
DA:15292,8
DA:15293,8
DA:15296,8
DA:15297,8
DA:15298,8
DA:15299,0
DA:15300,8
DA:15301,0
DA:15303,8
DA:15304,8
DA:15349,85
DA:15353,85
DA:15366,0
DA:15371,0
DA:15376,0
DA:15377,0
DA:15379,0
DA:15380,0
DA:15381,0
DA:15382,0
DA:15384,0
DA:15385,0
DA:15386,0
DA:15388,0
DA:15391,0
DA:15392,0
DA:15393,0
DA:15402,0
DA:15403,0
DA:15405,0
DA:15407,0
DA:15408,0
DA:15409,0
DA:15411,0
DA:15412,0
DA:15413,0
DA:15415,0
DA:15417,0
DA:15418,0
DA:15419,0
DA:15420,0
DA:15421,0
DA:15422,0
DA:15423,0
DA:15424,0
DA:15425,0
DA:15426,0
DA:15427,0
DA:15428,0
DA:15432,0
DA:15433,0
DA:15446,0
DA:15447,0
DA:15448,0
DA:15450,0
DA:15451,0
DA:15453,0
DA:15454,0
DA:15456,0
DA:15459,0
DA:15460,0
DA:15461,0
DA:15463,0
DA:15464,0
DA:15466,0
DA:15467,0
DA:15469,0
DA:15472,0
DA:15473,0
DA:15474,0
DA:15475,0
DA:15476,0
DA:15477,0
DA:15478,0
DA:15480,0
DA:15481,0
DA:15484,0
DA:15485,0
DA:15490,0
DA:15494,0
DA:15497,0
DA:15501,0
DA:15504,0
DA:15506,0
DA:15507,0
DA:15509,0
DA:15513,0
DA:15514,0
DA:15515,0
DA:15516,0
DA:15517,0
DA:15519,0
DA:15521,0
DA:15522,0
DA:15524,0
DA:15525,0
DA:15527,0
DA:15528,0
DA:15529,0
DA:15531,0
DA:15532,0
DA:15534,0
DA:15539,0
DA:15540,0
DA:15541,0
DA:15545,0
DA:15546,0
DA:15547,0
DA:15556,0
DA:15558,0
DA:15559,0
DA:15562,0
DA:15564,0
DA:15565,0
DA:15566,0
DA:15571,0
DA:15572,0
DA:15573,0
DA:15574,0
DA:15575,0
DA:15576,0
DA:15579,0
DA:15581,0
DA:15583,0
DA:15584,0
DA:15585,0
DA:15589,0
DA:15590,0
DA:15594,0
DA:15595,0
DA:15597,0
DA:15598,0
DA:15601,0
DA:15603,0
DA:15604,0
DA:15605,0
DA:15608,0
DA:15610,0
DA:15611,0
DA:15613,0
DA:15614,0
DA:15615,0
DA:15617,0
DA:15618,0
DA:15619,0
DA:15620,0
DA:15621,0
DA:15622,0
DA:15624,0
DA:15625,0
DA:15626,0
DA:15627,0
DA:15628,0
DA:15631,0
DA:15632,0
DA:15633,0
DA:15635,0
DA:15637,0
DA:15638,0
DA:15639,0
DA:15642,0
DA:15644,0
DA:15645,0
DA:15647,0
DA:15648,0
DA:15649,0
DA:15651,0
DA:15652,0
DA:15654,0
DA:15655,0
DA:15656,0
DA:15657,0
DA:15658,0
DA:15659,0
DA:15661,0
DA:15662,0
DA:15663,0
DA:15664,0
DA:15665,0
DA:15668,0
DA:15669,0
DA:15670,0
DA:15671,0
DA:15674,0
DA:15675,0
DA:15677,0
DA:15678,0
DA:15679,0
DA:15681,0
DA:15682,0
DA:15683,0
DA:15685,0
DA:15687,0
DA:15688,0
DA:15689,0
DA:15690,0
DA:15693,0
DA:15694,0
DA:15695,0
DA:15696,0
DA:15699,0
DA:15700,0
DA:15701,0
DA:15704,0
DA:15705,0
DA:15706,0
DA:15707,0
DA:15708,0
DA:15709,0
DA:15711,0
DA:15712,0
DA:15714,0
DA:15717,0
DA:15718,0
DA:15719,0
DA:15720,0
DA:15722,0
DA:15723,0
DA:15724,0
DA:15727,0
DA:15728,0
DA:15729,0
DA:15731,0
DA:15732,0
DA:15733,0
DA:15734,0
DA:15737,0
DA:15738,0
DA:15739,0
DA:15740,0
DA:15741,0
DA:15743,0
DA:15745,0
DA:15746,0
DA:15747,0
DA:15749,0
DA:15750,0
DA:15751,0
DA:15753,0
DA:15754,0
DA:15755,0
DA:15756,0
DA:15758,0
DA:15770,0
DA:15771,0
DA:15772,0
DA:15776,0
DA:15781,0
DA:15785,0
DA:15789,0
DA:15791,0
DA:15794,170
DA:15795,170
DA:15796,0
DA:15798,170
DA:15799,0
DA:15801,170
DA:15802,170
DA:15805,0
DA:15806,0
DA:15807,0
DA:15808,0
DA:15810,0
DA:15811,0
DA:15813,0
DA:15815,0
DA:15817,0
DA:15820,0
DA:15821,0
DA:15823,0
DA:15824,0
DA:15827,0
DA:15829,0
DA:15830,0
DA:15843,0
DA:15844,0
DA:15848,0
DA:15850,0
DA:15852,0
DA:15865,0
DA:15866,0
DA:15867,0
DA:15868,0
DA:15869,0
DA:15871,0
DA:15872,0
DA:15874,0
DA:15875,0
DA:15876,0
DA:15877,0
DA:15878,0
DA:15880,0
DA:15881,0
DA:15882,0
DA:15883,0
DA:15884,0
DA:15886,0
DA:15887,0
DA:15889,0
DA:15891,0
DA:15892,0
DA:15893,0
DA:15895,0
DA:15902,0
DA:15903,0
DA:15904,0
DA:15905,0
DA:15906,0
DA:15907,0
DA:15909,0
DA:15910,0
DA:15912,0
DA:15914,0
DA:15915,0
DA:15916,0
DA:15917,0
DA:15918,0
DA:15919,0
DA:15920,0
DA:15922,0
DA:15923,0
DA:15924,0
DA:15925,0
DA:15926,0
DA:15928,0
DA:15929,0
DA:15930,0
DA:15931,0
DA:15932,0
DA:15933,0
DA:15934,0
DA:15935,0
DA:15936,0
DA:15937,0
DA:15938,0
DA:15939,0
DA:15940,0
DA:15941,0
DA:15942,0
DA:15943,0
DA:15944,0
DA:15945,0
DA:15946,0
DA:15947,0
DA:15948,0
DA:15949,0
DA:15950,0
DA:15951,0
DA:15952,0
DA:15953,0
DA:15954,0
DA:15955,0
DA:15956,0
DA:15957,0
DA:15958,0
DA:15959,0
DA:15960,0
DA:15961,0
DA:15962,0
DA:15963,0
DA:15964,0
DA:15965,0
DA:15966,0
DA:15967,0
DA:15969,0
DA:15972,0
DA:15973,0
DA:15975,0
DA:15978,0
DA:15979,0
DA:15980,0
DA:15981,0
DA:15983,0
DA:15984,0
DA:15986,0
DA:15987,0
DA:15989,0
DA:15991,0
DA:15993,0
DA:15994,0
DA:15995,0
DA:15997,0
DA:15998,0
DA:15999,0
DA:16001,0
DA:16002,0
DA:16004,0
DA:16006,0
DA:16008,0
DA:16009,0
DA:16010,0
DA:16012,0
DA:16014,0
DA:16015,0
DA:16017,0
DA:16018,0
DA:16020,0
DA:16022,0
DA:16024,0
DA:16025,0
DA:16026,0
DA:16027,0
DA:16029,0
DA:16031,0
DA:16032,0
DA:16033,0
DA:16035,0
DA:16036,0
DA:16039,0
DA:16040,0
DA:16043,0
DA:16045,0
DA:16046,0
DA:16047,0
DA:16048,0
DA:16049,0
DA:16051,0
DA:16053,0
DA:16067,0
DA:16068,0
DA:16071,0
DA:16072,0
DA:16073,0
DA:16075,0
DA:16077,0
DA:16078,0
DA:16080,0
DA:16083,0
DA:16084,0
DA:16085,0
DA:16086,0
DA:16089,0
DA:16090,0
DA:16092,0
DA:16093,0
DA:16096,0
DA:16097,0
DA:16098,0
DA:16099,0
DA:16101,0
DA:16103,0
DA:16104,0
DA:16105,0
DA:16106,0
DA:16107,0
DA:16109,0
DA:16141,0
DA:16142,0
DA:16144,0
DA:16146,0
DA:16147,0
DA:16148,0
DA:16149,0
DA:16150,0
DA:16151,0
DA:16152,0
DA:16154,0
DA:16155,0
DA:16156,0
DA:16157,0
DA:16158,0
DA:16159,0
DA:16160,0
DA:16161,0
DA:16162,0
DA:16164,0
DA:16165,0
DA:16167,0
DA:16168,0
DA:16169,0
DA:16170,0
DA:16171,0
DA:16172,0
DA:16173,0
DA:16174,0
DA:16175,0
DA:16176,0
DA:16177,0
DA:16178,0
DA:16179,0
DA:16180,0
DA:16181,0
DA:16182,0
DA:16183,0
DA:16184,0
DA:16185,0
DA:16186,0
DA:16187,0
DA:16188,0
DA:16189,0
DA:16190,0
DA:16191,0
DA:16192,0
DA:16193,0
DA:16194,0
DA:16195,0
DA:16196,0
DA:16197,0
DA:16198,0
DA:16199,0
DA:16200,0
DA:16201,0
DA:16202,0
DA:16203,0
DA:16204,0
DA:16206,0
DA:16209,0
DA:16210,0
DA:16211,0
DA:16213,0
DA:16215,0
DA:16216,0
DA:16217,0
DA:16218,0
DA:16219,0
DA:16220,0
DA:16222,0
DA:16224,0
DA:16225,0
DA:16228,0
DA:16229,0
DA:16230,0
DA:16231,0
DA:16233,0
DA:16234,0
DA:16235,0
DA:16236,0
DA:16237,0
DA:16238,0
DA:16239,0
DA:16241,0
DA:16242,0
DA:16243,0
DA:16244,0
DA:16245,0
DA:16246,0
DA:16248,0
DA:16249,0
DA:16250,0
DA:16251,0
DA:16252,0
DA:16254,0
DA:16255,0
DA:16257,0
DA:16258,0
DA:16259,0
DA:16260,0
DA:16261,0
DA:16274,3
DA:16275,3
DA:16276,3
DA:16279,1
DA:16280,1
DA:16281,0
DA:16282,1
DA:16283,0
DA:16285,1
DA:16378,1
DA:16379,1
DA:16380,1
DA:16402,348
DA:16403,348
DA:16404,0
DA:16405,0
DA:16406,0
DA:16408,348
DA:16438,0
DA:16439,0
DA:16440,0
DA:16441,0
DA:16443,0
DA:16447,1
DA:16449,2
DA:16450,1
DA:16451,1
DA:16458,0
DA:16467,5
DA:16469,1
DA:16470,2
DA:16472,0
DA:16473,0
DA:16476,0
DA:16477,0
DA:16478,0
DA:16480,0
DA:16481,0
DA:16482,0
DA:16484,76
DA:16486,14
DA:16487,14
DA:16489,14
DA:16492,14
DA:16493,14
DA:16495,0
DA:16497,0
DA:16498,0
DA:16499,0
DA:16500,0
DA:16503,170
DA:16504,170
DA:16505,170
DA:16506,170
DA:16507,170
DA:16508,170
DA:16509,170
DA:16510,170
DA:16511,0
DA:16512,0
DA:16513,0
DA:16514,0
DA:16516,0
DA:16517,0
DA:16519,170
DA:16520,170
DA:16521,0
DA:16523,170
DA:16524,0
DA:16526,170
DA:16527,170
DA:16577,8
DA:16578,8
DA:16579,8
DA:16580,8
DA:16581,8
DA:16582,1
DA:16583,1
DA:16584,0
DA:16585,0
DA:16586,0
DA:16587,0
DA:16589,1
DA:16590,1
DA:16591,1
DA:16592,1
DA:16593,1
DA:16594,1
DA:16595,1
DA:16596,1
DA:16597,1
DA:16598,1
DA:16599,1
DA:16600,1
DA:16602,0
DA:16604,0
DA:16605,0
DA:16606,0
DA:16608,0
DA:16610,0
DA:16611,0
DA:16612,0
DA:16613,0
DA:16615,0
DA:16616,0
DA:16617,0
DA:16619,0
DA:16620,0
DA:16621,0
DA:16622,0
DA:16623,0
DA:16624,0
DA:16625,0
DA:16627,0
DA:16628,0
DA:16630,0
DA:16631,0
DA:16632,0
DA:16633,0
DA:16634,0
DA:16635,0
DA:16637,0
DA:16638,0
DA:16639,0
DA:16640,0
DA:16642,0
DA:16643,0
DA:16646,0
DA:16647,0
DA:16648,0
DA:16649,0
DA:16652,0
DA:16654,0
DA:16655,0
DA:16656,0
DA:16657,0
DA:16658,0
DA:16660,0
DA:16661,0
DA:16662,0
DA:16663,0
DA:16664,0
DA:16665,0
DA:16667,0
DA:16668,0
DA:16670,0
DA:16674,0
DA:16675,0
DA:16676,0
DA:16677,0
DA:16679,0
DA:16680,0
DA:16681,0
DA:16685,0
DA:16686,0
DA:16687,0
DA:16688,0
DA:16689,0
DA:16690,0
DA:16691,0
DA:16692,0
DA:16693,0
DA:16694,0
DA:16695,0
DA:16696,0
DA:16698,0
DA:16699,0
DA:16708,1
DA:16709,1
DA:16710,0
DA:16711,1
DA:16712,1
DA:16713,1
DA:16714,2
DA:16715,2
DA:16716,1
DA:16719,0
DA:16720,0
DA:16721,0
DA:16722,0
DA:16723,0
DA:16724,0
DA:16725,0
DA:16726,0
DA:16727,0
DA:16728,0
DA:16729,0
DA:16730,0
DA:16731,0
DA:16733,0
DA:16734,0
DA:16736,1
DA:16737,0
DA:16738,0
DA:16739,0
DA:16740,0
DA:16741,0
DA:16742,0
DA:16743,0
DA:16745,0
DA:16746,0
DA:16747,0
DA:16748,0
DA:16749,0
DA:16752,0
DA:16753,0
DA:16755,1
DA:16756,1
DA:16757,1
DA:16758,1
DA:16759,1
DA:16760,1
DA:16761,0
DA:16762,2
DA:16763,1
DA:16765,1
DA:16766,1
DA:16767,1
DA:16768,1
DA:16770,0
DA:16772,0
DA:16774,1
DA:16775,1
DA:16776,0
DA:16777,0
DA:16778,0
DA:16780,1
DA:16781,1
DA:16782,0
DA:16783,0
DA:16785,1
DA:16810,0
DA:16814,0
DA:16815,0
DA:16822,0
DA:16826,0
DA:16831,0
DA:16833,0
DA:16836,0
DA:16839,0
DA:16840,0
DA:16841,0
DA:16842,0
DA:16849,0
DA:16850,0
DA:16851,0
DA:16852,0
DA:16857,0
DA:16859,0
DA:16861,0
DA:16862,0
DA:16863,0
DA:16865,0
DA:16867,0
DA:16868,0
DA:16871,0
DA:16873,0
DA:16874,0
DA:16875,0
DA:16876,0
DA:16878,0
DA:16879,0
DA:16880,0
DA:16881,0
DA:16882,0
DA:16883,0
DA:16884,0
DA:16886,0
DA:16887,0
DA:16888,0
DA:16890,0
DA:16891,0
DA:16892,0
DA:16893,0
DA:16896,0
DA:16897,0
DA:16898,0
DA:16899,0
DA:16900,0
DA:16902,0
DA:16903,0
DA:16904,0
DA:16905,0
DA:16906,0
DA:16908,0
DA:16909,0
DA:16910,0
DA:16912,0
DA:16913,0
DA:16915,0
DA:16916,0
DA:16917,0
DA:16918,0
DA:16919,0
DA:16920,0
DA:16921,0
DA:16922,0
DA:16924,0
DA:16925,0
DA:16928,0
DA:16929,0
DA:16930,0
DA:16931,0
DA:16932,0
DA:16933,0
DA:16935,0
DA:16936,0
DA:16937,0
DA:16938,0
DA:16943,0
DA:16944,0
DA:16946,0
DA:16947,0
DA:16948,0
DA:16950,0
DA:16951,0
DA:16955,0
DA:16956,0
DA:16958,0
DA:16960,0
DA:16961,0
DA:16962,0
DA:16963,0
DA:16966,0
DA:16967,0
DA:16969,0
DA:16970,0
DA:16972,0
DA:16976,0
DA:16977,0
DA:16978,0
DA:16980,0
DA:16981,0
DA:16982,0
DA:16983,0
DA:16984,0
DA:16985,0
DA:16986,0
DA:16989,0
DA:16990,0
DA:16992,0
DA:16997,0
DA:16999,0
DA:17000,0
DA:17001,0
DA:17004,0
DA:17006,0
DA:17007,0
DA:17008,0
DA:17009,0
DA:17011,0
DA:17012,0
DA:17013,0
DA:17015,0
DA:17016,0
DA:17018,0
DA:17019,0
DA:17020,0
DA:17021,0
DA:17023,0
DA:17024,0
DA:17025,0
DA:17026,0
DA:17027,0
DA:17028,0
DA:17030,0
DA:17031,0
DA:17032,0
DA:17035,0
DA:17036,0
DA:17039,0
DA:17045,0
DA:17046,0
DA:17049,0
DA:17051,0
DA:17052,0
DA:17054,0
DA:17055,0
DA:17056,0
DA:17057,0
DA:17058,0
DA:17059,0
DA:17060,0
DA:17062,0
DA:17063,0
DA:17064,0
DA:17067,0
DA:17070,0
DA:17071,0
DA:17072,0
DA:17073,0
DA:17074,0
DA:17076,0
DA:17077,0
DA:17079,0
DA:17091,0
DA:17093,0
DA:17094,0
DA:17096,0
DA:17097,0
DA:17098,0
DA:17100,0
DA:17101,0
DA:17102,0
DA:17103,0
DA:17104,0
DA:17106,0
DA:17107,0
DA:17110,0
DA:17111,0
DA:17114,0
DA:17115,0
DA:17116,0
DA:17118,0
DA:17119,0
DA:17121,0
DA:17122,0
DA:17123,0
DA:17125,0
DA:17126,0
DA:17156,0
DA:17157,0
DA:17158,0
DA:17160,0
DA:17161,0
DA:17163,0
DA:17164,0
DA:17165,0
DA:17167,0
DA:17168,0
DA:17170,0
DA:17171,0
DA:17172,0
DA:17174,0
DA:17175,0
DA:17177,0
DA:17178,0
DA:17179,0
DA:17181,0
DA:17182,0
DA:17184,0
DA:17185,0
DA:17186,0
DA:17188,0
DA:17189,0
DA:17192,0
DA:17193,0
DA:17194,0
DA:17196,0
DA:17199,0
DA:17200,0
DA:17201,0
DA:17203,0
DA:17204,0
DA:17206,0
DA:17207,0
DA:17208,0
DA:17210,0
DA:17211,0
DA:17213,0
DA:17214,0
DA:17215,0
DA:17217,0
DA:17218,0
DA:17220,0
DA:17221,0
DA:17222,0
DA:17224,0
DA:17225,0
DA:17227,0
DA:17228,0
DA:17229,0
DA:17231,0
DA:17232,0
DA:17234,0
DA:17235,0
DA:17250,0
DA:17252,0
DA:17254,0
DA:17255,0
DA:17256,0
DA:17258,0
DA:17260,0
DA:17261,0
DA:17264,0
DA:17265,0
DA:17268,0
DA:17270,0
DA:17271,0
DA:17272,0
DA:17274,0
DA:17275,0
DA:17276,0
DA:17278,0
DA:17279,0
DA:17280,0
DA:17281,0
DA:17282,0
DA:17283,0
DA:17284,0
DA:17285,0
DA:17286,0
DA:17287,0
DA:17288,0
DA:17289,0
DA:17290,0
DA:17291,0
DA:17293,0
DA:17294,0
DA:17295,0
DA:17296,0
DA:17297,0
DA:17299,0
DA:17300,0
DA:17301,0
DA:17302,0
DA:17303,0
DA:17304,0
DA:17306,0
DA:17308,0
DA:17309,0
DA:17310,0
DA:17311,0
DA:17313,0
DA:17314,0
DA:17315,0
DA:17316,0
DA:17317,0
DA:17318,0
DA:17319,0
DA:17321,0
DA:17323,0
DA:17325,0
DA:17327,0
DA:17329,0
DA:17331,0
DA:17333,0
DA:17334,0
DA:17335,0
DA:17336,0
DA:17337,0
DA:17338,0
DA:17339,0
DA:17345,0
DA:17346,0
DA:17349,0
DA:17350,0
DA:17351,0
DA:17352,0
DA:17354,0
DA:17356,0
DA:17357,0
DA:17358,0
DA:17359,0
DA:17363,0
DA:17364,0
DA:17365,0
DA:17366,0
DA:17367,0
DA:17368,0
DA:17369,0
DA:17370,0
DA:17371,0
DA:17372,0
DA:17373,0
DA:17374,0
DA:17375,0
DA:17376,0
DA:17377,0
DA:17378,0
DA:17379,0
DA:17380,0
DA:17382,0
DA:17383,0
DA:17384,0
DA:17385,0
DA:17386,0
DA:17387,0
DA:17388,0
DA:17389,0
DA:17390,0
DA:17393,0
DA:17394,0
DA:17396,0
DA:17399,0
DA:17400,0
DA:17401,0
DA:17402,0
DA:17403,0
DA:17404,0
DA:17405,0
DA:17407,0
DA:17408,0
DA:17410,0
DA:17412,0
DA:17414,0
DA:17415,0
DA:17416,0
DA:17417,0
DA:17419,0
DA:17420,0
DA:17422,0
DA:17423,0
DA:17424,0
DA:17425,0
DA:17427,0
DA:17428,0
DA:17430,0
DA:17431,0
DA:17433,0
DA:17434,0
DA:17435,0
DA:17436,0
DA:17437,0
DA:17438,0
DA:17439,0
DA:17440,0
DA:17441,0
DA:17442,0
DA:17444,0
DA:17445,0
DA:17446,0
DA:17447,0
DA:17448,0
DA:17449,0
DA:17450,0
DA:17451,0
DA:17452,0
DA:17453,0
DA:17454,0
DA:17455,0
LF:4636
LH:1280
end_of_record
TN:
SF:/home/marija/Qt/6.5.3/gcc_64/include/QtCore/qanystringview.h
FN:100,127,_ZN14QAnyStringView29isAsciiOnlyCharsAtCompileTimeIKcEEbPT_x
FN:130,139,_ZN14QAnyStringView10encodeTypeIcEEmPKT_x
FN:165,170,_ZN14QAnyStringView21lengthHelperContainerIcLm10EEExRAT0__KT_
FN:165,170,_ZN14QAnyStringView21lengthHelperContainerIcLm11EEExRAT0__KT_
FN:165,170,_ZN14QAnyStringView21lengthHelperContainerIcLm12EEExRAT0__KT_
FN:165,170,_ZN14QAnyStringView21lengthHelperContainerIcLm13EEExRAT0__KT_
FN:165,170,_ZN14QAnyStringView21lengthHelperContainerIcLm14EEExRAT0__KT_
FN:165,170,_ZN14QAnyStringView21lengthHelperContainerIcLm15EEExRAT0__KT_
FN:165,170,_ZN14QAnyStringView21lengthHelperContainerIcLm16EEExRAT0__KT_
FN:165,170,_ZN14QAnyStringView21lengthHelperContainerIcLm17EEExRAT0__KT_
FN:165,170,_ZN14QAnyStringView21lengthHelperContainerIcLm18EEExRAT0__KT_
FN:165,170,_ZN14QAnyStringView21lengthHelperContainerIcLm19EEExRAT0__KT_
FN:165,170,_ZN14QAnyStringView21lengthHelperContainerIcLm23EEExRAT0__KT_
FN:165,170,_ZN14QAnyStringView21lengthHelperContainerIcLm6EEExRAT0__KT_
FN:165,170,_ZN14QAnyStringView21lengthHelperContainerIcLm7EEExRAT0__KT_
FN:165,170,_ZN14QAnyStringView21lengthHelperContainerIcLm8EEExRAT0__KT_
FN:165,170,_ZN14QAnyStringView21lengthHelperContainerIcLm9EEExRAT0__KT_
FN:185,188,_ZN14QAnyStringViewC2IcLb1EEEPKT_x
FN:213,214,_ZN14QAnyStringViewC2IA10_cLb1EEERKT_
FN:213,214,_ZN14QAnyStringViewC2IA11_cLb1EEERKT_
FN:213,214,_ZN14QAnyStringViewC2IA12_cLb1EEERKT_
FN:213,214,_ZN14QAnyStringViewC2IA13_cLb1EEERKT_
FN:213,214,_ZN14QAnyStringViewC2IA14_cLb1EEERKT_
FN:213,214,_ZN14QAnyStringViewC2IA15_cLb1EEERKT_
FN:213,214,_ZN14QAnyStringViewC2IA16_cLb1EEERKT_
FN:213,214,_ZN14QAnyStringViewC2IA17_cLb1EEERKT_
FN:213,214,_ZN14QAnyStringViewC2IA18_cLb1EEERKT_
FN:213,214,_ZN14QAnyStringViewC2IA19_cLb1EEERKT_
FN:213,214,_ZN14QAnyStringViewC2IA23_cLb1EEERKT_
FN:213,214,_ZN14QAnyStringViewC2IA6_cLb1EEERKT_
FN:213,214,_ZN14QAnyStringViewC2IA7_cLb1EEERKT_
FN:213,214,_ZN14QAnyStringViewC2IA8_cLb1EEERKT_
FN:213,214,_ZN14QAnyStringViewC2IA9_cLb1EEERKT_
FNDA:0,_ZN14QAnyStringView29isAsciiOnlyCharsAtCompileTimeIKcEEbPT_x
FNDA:0,_ZN14QAnyStringView10encodeTypeIcEEmPKT_x
FNDA:0,_ZN14QAnyStringView21lengthHelperContainerIcLm10EEExRAT0__KT_
FNDA:0,_ZN14QAnyStringView21lengthHelperContainerIcLm11EEExRAT0__KT_
FNDA:0,_ZN14QAnyStringView21lengthHelperContainerIcLm12EEExRAT0__KT_
FNDA:0,_ZN14QAnyStringView21lengthHelperContainerIcLm13EEExRAT0__KT_
FNDA:0,_ZN14QAnyStringView21lengthHelperContainerIcLm14EEExRAT0__KT_
FNDA:0,_ZN14QAnyStringView21lengthHelperContainerIcLm15EEExRAT0__KT_
FNDA:0,_ZN14QAnyStringView21lengthHelperContainerIcLm16EEExRAT0__KT_
FNDA:0,_ZN14QAnyStringView21lengthHelperContainerIcLm17EEExRAT0__KT_
FNDA:0,_ZN14QAnyStringView21lengthHelperContainerIcLm18EEExRAT0__KT_
FNDA:0,_ZN14QAnyStringView21lengthHelperContainerIcLm19EEExRAT0__KT_
FNDA:0,_ZN14QAnyStringView21lengthHelperContainerIcLm23EEExRAT0__KT_
FNDA:0,_ZN14QAnyStringView21lengthHelperContainerIcLm6EEExRAT0__KT_
FNDA:0,_ZN14QAnyStringView21lengthHelperContainerIcLm7EEExRAT0__KT_
FNDA:0,_ZN14QAnyStringView21lengthHelperContainerIcLm8EEExRAT0__KT_
FNDA:0,_ZN14QAnyStringView21lengthHelperContainerIcLm9EEExRAT0__KT_
FNDA:0,_ZN14QAnyStringViewC2IcLb1EEEPKT_x
FNDA:0,_ZN14QAnyStringViewC2IA10_cLb1EEERKT_
FNDA:0,_ZN14QAnyStringViewC2IA11_cLb1EEERKT_
FNDA:0,_ZN14QAnyStringViewC2IA12_cLb1EEERKT_
FNDA:0,_ZN14QAnyStringViewC2IA13_cLb1EEERKT_
FNDA:0,_ZN14QAnyStringViewC2IA14_cLb1EEERKT_
FNDA:0,_ZN14QAnyStringViewC2IA15_cLb1EEERKT_
FNDA:0,_ZN14QAnyStringViewC2IA16_cLb1EEERKT_
FNDA:0,_ZN14QAnyStringViewC2IA17_cLb1EEERKT_
FNDA:0,_ZN14QAnyStringViewC2IA18_cLb1EEERKT_
FNDA:0,_ZN14QAnyStringViewC2IA19_cLb1EEERKT_
FNDA:0,_ZN14QAnyStringViewC2IA23_cLb1EEERKT_
FNDA:0,_ZN14QAnyStringViewC2IA6_cLb1EEERKT_
FNDA:0,_ZN14QAnyStringViewC2IA7_cLb1EEERKT_
FNDA:0,_ZN14QAnyStringViewC2IA8_cLb1EEERKT_
FNDA:0,_ZN14QAnyStringViewC2IA9_cLb1EEERKT_
FNF:33
FNH:0
DA:100,0
DA:113,0
DA:130,0
DA:136,0
DA:138,0
DA:165,0
DA:167,0
DA:168,0
DA:169,0
DA:185,0
DA:186,0
DA:188,0
DA:213,0
DA:214,0
LF:14
LH:0
end_of_record
TN:
SF:/home/marija/Qt/6.5.3/gcc_64/include/QtCore/qarraydata.h
FN:101,110,_ZN15QTypedArrayDataI7QStringE8allocateExN10QArrayData16AllocationOptionE
FN:101,110,_ZN15QTypedArrayDataIP11QPushButtonE8allocateExN10QArrayData16AllocationOptionE
FN:101,110,_ZN15QTypedArrayDataIP4CardE8allocateExN10QArrayData16AllocationOptionE
FN:101,110,_ZN15QTypedArrayDataIP6PlayerE8allocateExN10QArrayData16AllocationOptionE
FN:101,110,_ZN15QTypedArrayDataIP6QFrameE8allocateExN10QArrayData16AllocationOptionE
FN:101,110,_ZN15QTypedArrayDataIP6QLabelE8allocateExN10QArrayData16AllocationOptionE
FN:101,110,_ZN15QTypedArrayDataISt4pairI7QStringiEE8allocateExN10QArrayData16AllocationOptionE
FN:101,110,_ZN15QTypedArrayDataIiE8allocateExN10QArrayData16AllocationOptionE
FN:113,119,_ZN15QTypedArrayDataI7QStringE19reallocateUnalignedEPS1_PS0_xN10QArrayData16AllocationOptionE
FN:113,119,_ZN15QTypedArrayDataIP11QPushButtonE19reallocateUnalignedEPS2_PS1_xN10QArrayData16AllocationOptionE
FN:113,119,_ZN15QTypedArrayDataIP4CardE19reallocateUnalignedEPS2_PS1_xN10QArrayData16AllocationOptionE
FN:113,119,_ZN15QTypedArrayDataIP6PlayerE19reallocateUnalignedEPS2_PS1_xN10QArrayData16AllocationOptionE
FN:113,119,_ZN15QTypedArrayDataIP6QFrameE19reallocateUnalignedEPS2_PS1_xN10QArrayData16AllocationOptionE
FN:113,119,_ZN15QTypedArrayDataIP6QLabelE19reallocateUnalignedEPS2_PS1_xN10QArrayData16AllocationOptionE
FN:113,119,_ZN15QTypedArrayDataISt4pairI7QStringiEE19reallocateUnalignedEPS3_PS2_xN10QArrayData16AllocationOptionE
FN:113,119,_ZN15QTypedArrayDataIiE19reallocateUnalignedEPS0_PixN10QArrayData16AllocationOptionE
FN:121,125,_ZN15QTypedArrayDataI7QStringE10deallocateEP10QArrayData
FN:121,125,_ZN15QTypedArrayDataIDsE10deallocateEP10QArrayData
FN:121,125,_ZN15QTypedArrayDataIP11QPushButtonE10deallocateEP10QArrayData
FN:121,125,_ZN15QTypedArrayDataIP4CardE10deallocateEP10QArrayData
FN:121,125,_ZN15QTypedArrayDataIP6PlayerE10deallocateEP10QArrayData
FN:121,125,_ZN15QTypedArrayDataIP6QFrameE10deallocateEP10QArrayData
FN:121,125,_ZN15QTypedArrayDataIP6QLabelE10deallocateEP10QArrayData
FN:121,125,_ZN15QTypedArrayDataISt4pairI7QStringiEE10deallocateEP10QArrayData
FN:121,125,_ZN15QTypedArrayDataIcE10deallocateEP10QArrayData
FN:121,125,_ZN15QTypedArrayDataIiE10deallocateEP10QArrayData
FN:127,134,_ZN15QTypedArrayDataI7QStringE9dataStartEP10QArrayDatax
FN:127,134,_ZN15QTypedArrayDataIP11QPushButtonE9dataStartEP10QArrayDatax
FN:127,134,_ZN15QTypedArrayDataIP4CardE9dataStartEP10QArrayDatax
FN:127,134,_ZN15QTypedArrayDataIP6PlayerE9dataStartEP10QArrayDatax
FN:127,134,_ZN15QTypedArrayDataIP6QFrameE9dataStartEP10QArrayDatax
FN:127,134,_ZN15QTypedArrayDataIP6QLabelE9dataStartEP10QArrayDatax
FN:127,134,_ZN15QTypedArrayDataISt4pairI7QStringiEE9dataStartEP10QArrayDatax
FN:127,134,_ZN15QTypedArrayDataIcE9dataStartEP10QArrayDatax
FN:127,134,_ZN15QTypedArrayDataIiE9dataStartEP10QArrayDatax
FN:38,41,_ZN10QArrayData17allocatedCapacityEv
FN:43,46,_ZNK10QArrayData22constAllocatedCapacityEv
FN:49,53,_ZN10QArrayData3refEv
FN:56,59,_ZN10QArrayData5derefEv
FN:69,72,_ZNK10QArrayData11needsDetachEv
FN:74,79,_ZNK10QArrayData14detachCapacityEx
FNDA:0,_ZN15QTypedArrayDataI7QStringE8allocateExN10QArrayData16AllocationOptionE
FNDA:0,_ZN15QTypedArrayDataIP11QPushButtonE8allocateExN10QArrayData16AllocationOptionE
FNDA:115,_ZN15QTypedArrayDataIP4CardE8allocateExN10QArrayData16AllocationOptionE
FNDA:2,_ZN15QTypedArrayDataIP6PlayerE8allocateExN10QArrayData16AllocationOptionE
FNDA:0,_ZN15QTypedArrayDataIP6QFrameE8allocateExN10QArrayData16AllocationOptionE
FNDA:0,_ZN15QTypedArrayDataIP6QLabelE8allocateExN10QArrayData16AllocationOptionE
FNDA:0,_ZN15QTypedArrayDataISt4pairI7QStringiEE8allocateExN10QArrayData16AllocationOptionE
FNDA:3,_ZN15QTypedArrayDataIiE8allocateExN10QArrayData16AllocationOptionE
FNDA:0,_ZN15QTypedArrayDataI7QStringE19reallocateUnalignedEPS1_PS0_xN10QArrayData16AllocationOptionE
FNDA:0,_ZN15QTypedArrayDataIP11QPushButtonE19reallocateUnalignedEPS2_PS1_xN10QArrayData16AllocationOptionE
FNDA:104,_ZN15QTypedArrayDataIP4CardE19reallocateUnalignedEPS2_PS1_xN10QArrayData16AllocationOptionE
FNDA:1,_ZN15QTypedArrayDataIP6PlayerE19reallocateUnalignedEPS2_PS1_xN10QArrayData16AllocationOptionE
FNDA:0,_ZN15QTypedArrayDataIP6QFrameE19reallocateUnalignedEPS2_PS1_xN10QArrayData16AllocationOptionE
FNDA:0,_ZN15QTypedArrayDataIP6QLabelE19reallocateUnalignedEPS2_PS1_xN10QArrayData16AllocationOptionE
FNDA:0,_ZN15QTypedArrayDataISt4pairI7QStringiEE19reallocateUnalignedEPS3_PS2_xN10QArrayData16AllocationOptionE
FNDA:0,_ZN15QTypedArrayDataIiE19reallocateUnalignedEPS0_PixN10QArrayData16AllocationOptionE
FNDA:0,_ZN15QTypedArrayDataI7QStringE10deallocateEP10QArrayData
FNDA:2,_ZN15QTypedArrayDataIDsE10deallocateEP10QArrayData
FNDA:0,_ZN15QTypedArrayDataIP11QPushButtonE10deallocateEP10QArrayData
FNDA:68,_ZN15QTypedArrayDataIP4CardE10deallocateEP10QArrayData
FNDA:2,_ZN15QTypedArrayDataIP6PlayerE10deallocateEP10QArrayData
FNDA:0,_ZN15QTypedArrayDataIP6QFrameE10deallocateEP10QArrayData
FNDA:0,_ZN15QTypedArrayDataIP6QLabelE10deallocateEP10QArrayData
FNDA:0,_ZN15QTypedArrayDataISt4pairI7QStringiEE10deallocateEP10QArrayData
FNDA:0,_ZN15QTypedArrayDataIcE10deallocateEP10QArrayData
FNDA:3,_ZN15QTypedArrayDataIiE10deallocateEP10QArrayData
FNDA:0,_ZN15QTypedArrayDataI7QStringE9dataStartEP10QArrayDatax
FNDA:0,_ZN15QTypedArrayDataIP11QPushButtonE9dataStartEP10QArrayDatax
FNDA:2503,_ZN15QTypedArrayDataIP4CardE9dataStartEP10QArrayDatax
FNDA:9,_ZN15QTypedArrayDataIP6PlayerE9dataStartEP10QArrayDatax
FNDA:0,_ZN15QTypedArrayDataIP6QFrameE9dataStartEP10QArrayDatax
FNDA:0,_ZN15QTypedArrayDataIP6QLabelE9dataStartEP10QArrayDatax
FNDA:0,_ZN15QTypedArrayDataISt4pairI7QStringiEE9dataStartEP10QArrayDatax
FNDA:0,_ZN15QTypedArrayDataIcE9dataStartEP10QArrayDatax
FNDA:3,_ZN15QTypedArrayDataIiE9dataStartEP10QArrayDatax
FNDA:0,_ZN10QArrayData17allocatedCapacityEv
FNDA:2628,_ZNK10QArrayData22constAllocatedCapacityEv
FNDA:19,_ZN10QArrayData3refEv
FNDA:93,_ZN10QArrayData5derefEv
FNDA:5547,_ZNK10QArrayData11needsDetachEv
FNDA:8,_ZNK10QArrayData14detachCapacityEx
FNF:41
FNH:17
DA:38,0
DA:40,0
DA:43,2628
DA:45,2628
DA:49,19
DA:51,19
DA:52,19
DA:56,93
DA:58,93
DA:69,5547
DA:71,5547
DA:74,8
DA:76,8
DA:77,0
DA:78,8
DA:101,120
DA:105,120
DA:107,120
DA:109,120
DA:113,105
DA:117,105
DA:118,105
DA:121,75
DA:124,75
DA:125,75
DA:127,2515
DA:131,2515
DA:132,2515
DA:133,2515
LF:29
LH:26
end_of_record
TN:
SF:/home/marija/Qt/6.5.3/gcc_64/include/QtCore/qarraydataops.h
FN:102,118,_ZN9QtPrivate12QPodArrayOpsIP11QPushButtonE10createHoleEN10QArrayData14GrowthPositionExx
FN:102,118,_ZN9QtPrivate12QPodArrayOpsIP4CardE10createHoleEN10QArrayData14GrowthPositionExx
FN:102,118,_ZN9QtPrivate12QPodArrayOpsIP6PlayerE10createHoleEN10QArrayData14GrowthPositionExx
FN:102,118,_ZN9QtPrivate12QPodArrayOpsIP6QFrameE10createHoleEN10QArrayData14GrowthPositionExx
FN:102,118,_ZN9QtPrivate12QPodArrayOpsIP6QLabelE10createHoleEN10QArrayData14GrowthPositionExx
FN:102,118,_ZN9QtPrivate12QPodArrayOpsIiE10createHoleEN10QArrayData14GrowthPositionExx
FN:153,178,_ZN9QtPrivate12QPodArrayOpsIP11QPushButtonE7emplaceIJRS2_EEEvxDpOT_
FN:153,178,_ZN9QtPrivate12QPodArrayOpsIP4CardE7emplaceIJRS2_EEEvxDpOT_
FN:153,178,_ZN9QtPrivate12QPodArrayOpsIP6PlayerE7emplaceIJRS2_EEEvxDpOT_
FN:153,178,_ZN9QtPrivate12QPodArrayOpsIP6QFrameE7emplaceIJRS2_EEEvxDpOT_
FN:153,178,_ZN9QtPrivate12QPodArrayOpsIP6QLabelE7emplaceIJRS2_EEEvxDpOT_
FN:153,178,_ZN9QtPrivate12QPodArrayOpsIiE7emplaceIJRiEEEvxDpOT_
FN:180,199,_ZN9QtPrivate12QPodArrayOpsIP4CardE5eraseEPS2_x
FN:209,214,_ZN9QtPrivate12QPodArrayOpsIP4CardE9eraseLastEv
FN:209,214,_ZN9QtPrivate12QPodArrayOpsIiE9eraseLastEv
FN:236,255,_ZNK9QtPrivate12QPodArrayOpsIP4CardE7compareEPKS2_S5_m
FN:236,255,_ZNK9QtPrivate12QPodArrayOpsIP6PlayerE7compareEPKS2_S5_m
FN:257,264,_ZN9QtPrivate12QPodArrayOpsIP11QPushButtonE10reallocateExN10QArrayData16AllocationOptionE
FN:257,264,_ZN9QtPrivate12QPodArrayOpsIP4CardE10reallocateExN10QArrayData16AllocationOptionE
FN:257,264,_ZN9QtPrivate12QPodArrayOpsIP6PlayerE10reallocateExN10QArrayData16AllocationOptionE
FN:257,264,_ZN9QtPrivate12QPodArrayOpsIP6QFrameE10reallocateExN10QArrayData16AllocationOptionE
FN:257,264,_ZN9QtPrivate12QPodArrayOpsIP6QLabelE10reallocateExN10QArrayData16AllocationOptionE
FN:257,264,_ZN9QtPrivate12QPodArrayOpsIiE10reallocateExN10QArrayData16AllocationOptionE
FN:280,291,_ZN9QtPrivate16QGenericArrayOpsISt4pairI7QStringiEE16appendInitializeEx
FN:293,309,_ZN9QtPrivate16QGenericArrayOpsI7QStringE10copyAppendEPKS1_S4_
FN:293,309,_ZN9QtPrivate16QGenericArrayOpsISt4pairI7QStringiEE10copyAppendEPKS3_S6_
FN:325,341,_ZN9QtPrivate16QGenericArrayOpsI7QStringE10moveAppendEPS1_S3_
FN:325,341,_ZN9QtPrivate16QGenericArrayOpsISt4pairI7QStringiEE10moveAppendEPS3_S5_
FN:353,362,_ZN9QtPrivate16QGenericArrayOpsI7QStringE10destroyAllEv
FN:353,362,_ZN9QtPrivate16QGenericArrayOpsISt4pairI7QStringiEE10destroyAllEv
FN:38,50,_ZN9QtPrivate12QPodArrayOpsIP4CardE16appendInitializeEx
FN:38,50,_ZN9QtPrivate12QPodArrayOpsIiE16appendInitializeEx
FN:52,64,_ZN9QtPrivate12QPodArrayOpsIP11QPushButtonE10copyAppendEPKS2_S5_
FN:52,64,_ZN9QtPrivate12QPodArrayOpsIP4CardE10copyAppendEPKS2_S5_
FN:52,64,_ZN9QtPrivate12QPodArrayOpsIP6PlayerE10copyAppendEPKS2_S5_
FN:52,64,_ZN9QtPrivate12QPodArrayOpsIP6QFrameE10copyAppendEPKS2_S5_
FN:52,64,_ZN9QtPrivate12QPodArrayOpsIP6QLabelE10copyAppendEPKS2_S5_
FN:52,64,_ZN9QtPrivate12QPodArrayOpsIiE10copyAppendEPKiS3_
FN:668,668,_ZN9QtPrivate16QMovableArrayOpsI7QStringE8InserterC2EP17QArrayDataPointerIS1_E
FN:668,668,_ZN9QtPrivate16QMovableArrayOpsISt4pairI7QStringiEE8InserterC2EP17QArrayDataPointerIS3_E
FN:669,677,_ZN9QtPrivate16QMovableArrayOpsI7QStringE8InserterD2Ev
FN:669,677,_ZN9QtPrivate16QMovableArrayOpsISt4pairI7QStringiEE8InserterD2Ev
FN:680,690,_ZN9QtPrivate16QMovableArrayOpsI7QStringE8Inserter8displaceExx
FN:680,690,_ZN9QtPrivate16QMovableArrayOpsISt4pairI7QStringiEE8Inserter8displaceExx
FN:715,721,_ZN9QtPrivate16QMovableArrayOpsI7QStringE8Inserter9insertOneExOS1_
FN:715,721,_ZN9QtPrivate16QMovableArrayOpsISt4pairI7QStringiEE8Inserter9insertOneExOS3_
FN:775,804,_ZN9QtPrivate16QMovableArrayOpsI7QStringE7emplaceIJRKS1_EEEvxDpOT_
FN:775,804,_ZN9QtPrivate16QMovableArrayOpsISt4pairI7QStringiEE7emplaceIJRKS3_EEEvxDpOT_
FN:79,82,_ZN9QtPrivate12QPodArrayOpsIP11QPushButtonE10moveAppendEPS2_S4_
FN:79,82,_ZN9QtPrivate12QPodArrayOpsIP4CardE10moveAppendEPS2_S4_
FN:79,82,_ZN9QtPrivate12QPodArrayOpsIP6PlayerE10moveAppendEPS2_S4_
FN:79,82,_ZN9QtPrivate12QPodArrayOpsIP6QFrameE10moveAppendEPS2_S4_
FN:79,82,_ZN9QtPrivate12QPodArrayOpsIP6QLabelE10moveAppendEPS2_S4_
FN:79,82,_ZN9QtPrivate12QPodArrayOpsIiE10moveAppendEPiS2_
FN:829,836,_ZN9QtPrivate16QMovableArrayOpsI7QStringE10reallocateExN10QArrayData16AllocationOptionE
FN:829,836,_ZN9QtPrivate16QMovableArrayOpsISt4pairI7QStringiEE10reallocateExN10QArrayData16AllocationOptionE
FN:84,91,_ZN9QtPrivate12QPodArrayOpsIP4CardE8truncateEm
FN:84,91,_ZN9QtPrivate12QPodArrayOpsIP6PlayerE8truncateEm
FN:910,926,_ZN9QtPrivate15QCommonArrayOpsIP4CardE10growAppendEPKS2_S5_
FN:93,100,_ZN9QtPrivate12QPodArrayOpsIDsE10destroyAllEv
FN:93,100,_ZN9QtPrivate12QPodArrayOpsIP11QPushButtonE10destroyAllEv
FN:93,100,_ZN9QtPrivate12QPodArrayOpsIP4CardE10destroyAllEv
FN:93,100,_ZN9QtPrivate12QPodArrayOpsIP6PlayerE10destroyAllEv
FN:93,100,_ZN9QtPrivate12QPodArrayOpsIP6QFrameE10destroyAllEv
FN:93,100,_ZN9QtPrivate12QPodArrayOpsIP6QLabelE10destroyAllEv
FN:93,100,_ZN9QtPrivate12QPodArrayOpsIcE10destroyAllEv
FN:93,100,_ZN9QtPrivate12QPodArrayOpsIiE10destroyAllEv
FNDA:0,_ZN9QtPrivate12QPodArrayOpsIP11QPushButtonE10createHoleEN10QArrayData14GrowthPositionExx
FNDA:136,_ZN9QtPrivate12QPodArrayOpsIP4CardE10createHoleEN10QArrayData14GrowthPositionExx
FNDA:2,_ZN9QtPrivate12QPodArrayOpsIP6PlayerE10createHoleEN10QArrayData14GrowthPositionExx
FNDA:0,_ZN9QtPrivate12QPodArrayOpsIP6QFrameE10createHoleEN10QArrayData14GrowthPositionExx
FNDA:0,_ZN9QtPrivate12QPodArrayOpsIP6QLabelE10createHoleEN10QArrayData14GrowthPositionExx
FNDA:2,_ZN9QtPrivate12QPodArrayOpsIiE10createHoleEN10QArrayData14GrowthPositionExx
FNDA:0,_ZN9QtPrivate12QPodArrayOpsIP11QPushButtonE7emplaceIJRS2_EEEvxDpOT_
FNDA:2101,_ZN9QtPrivate12QPodArrayOpsIP4CardE7emplaceIJRS2_EEEvxDpOT_
FNDA:4,_ZN9QtPrivate12QPodArrayOpsIP6PlayerE7emplaceIJRS2_EEEvxDpOT_
FNDA:0,_ZN9QtPrivate12QPodArrayOpsIP6QFrameE7emplaceIJRS2_EEEvxDpOT_
FNDA:0,_ZN9QtPrivate12QPodArrayOpsIP6QLabelE7emplaceIJRS2_EEEvxDpOT_
FNDA:5,_ZN9QtPrivate12QPodArrayOpsIiE7emplaceIJRiEEEvxDpOT_
FNDA:7,_ZN9QtPrivate12QPodArrayOpsIP4CardE5eraseEPS2_x
FNDA:358,_ZN9QtPrivate12QPodArrayOpsIP4CardE9eraseLastEv
FNDA:0,_ZN9QtPrivate12QPodArrayOpsIiE9eraseLastEv
FNDA:4,_ZNK9QtPrivate12QPodArrayOpsIP4CardE7compareEPKS2_S5_m
FNDA:0,_ZNK9QtPrivate12QPodArrayOpsIP6PlayerE7compareEPKS2_S5_m
FNDA:0,_ZN9QtPrivate12QPodArrayOpsIP11QPushButtonE10reallocateExN10QArrayData16AllocationOptionE
FNDA:104,_ZN9QtPrivate12QPodArrayOpsIP4CardE10reallocateExN10QArrayData16AllocationOptionE
FNDA:1,_ZN9QtPrivate12QPodArrayOpsIP6PlayerE10reallocateExN10QArrayData16AllocationOptionE
FNDA:0,_ZN9QtPrivate12QPodArrayOpsIP6QFrameE10reallocateExN10QArrayData16AllocationOptionE
FNDA:0,_ZN9QtPrivate12QPodArrayOpsIP6QLabelE10reallocateExN10QArrayData16AllocationOptionE
FNDA:0,_ZN9QtPrivate12QPodArrayOpsIiE10reallocateExN10QArrayData16AllocationOptionE
FNDA:0,_ZN9QtPrivate16QGenericArrayOpsISt4pairI7QStringiEE16appendInitializeEx
FNDA:0,_ZN9QtPrivate16QGenericArrayOpsI7QStringE10copyAppendEPKS1_S4_
FNDA:0,_ZN9QtPrivate16QGenericArrayOpsISt4pairI7QStringiEE10copyAppendEPKS3_S6_
FNDA:0,_ZN9QtPrivate16QGenericArrayOpsI7QStringE10moveAppendEPS1_S3_
FNDA:0,_ZN9QtPrivate16QGenericArrayOpsISt4pairI7QStringiEE10moveAppendEPS3_S5_
FNDA:0,_ZN9QtPrivate16QGenericArrayOpsI7QStringE10destroyAllEv
FNDA:0,_ZN9QtPrivate16QGenericArrayOpsISt4pairI7QStringiEE10destroyAllEv
FNDA:2,_ZN9QtPrivate12QPodArrayOpsIP4CardE16appendInitializeEx
FNDA:1,_ZN9QtPrivate12QPodArrayOpsIiE16appendInitializeEx
FNDA:0,_ZN9QtPrivate12QPodArrayOpsIP11QPushButtonE10copyAppendEPKS2_S5_
FNDA:46,_ZN9QtPrivate12QPodArrayOpsIP4CardE10copyAppendEPKS2_S5_
FNDA:1,_ZN9QtPrivate12QPodArrayOpsIP6PlayerE10copyAppendEPKS2_S5_
FNDA:0,_ZN9QtPrivate12QPodArrayOpsIP6QFrameE10copyAppendEPKS2_S5_
FNDA:0,_ZN9QtPrivate12QPodArrayOpsIP6QLabelE10copyAppendEPKS2_S5_
FNDA:0,_ZN9QtPrivate12QPodArrayOpsIiE10copyAppendEPKiS3_
FNDA:0,_ZN9QtPrivate16QMovableArrayOpsI7QStringE8InserterC2EP17QArrayDataPointerIS1_E
FNDA:0,_ZN9QtPrivate16QMovableArrayOpsISt4pairI7QStringiEE8InserterC2EP17QArrayDataPointerIS3_E
FNDA:0,_ZN9QtPrivate16QMovableArrayOpsI7QStringE8InserterD2Ev
FNDA:0,_ZN9QtPrivate16QMovableArrayOpsISt4pairI7QStringiEE8InserterD2Ev
FNDA:0,_ZN9QtPrivate16QMovableArrayOpsI7QStringE8Inserter8displaceExx
FNDA:0,_ZN9QtPrivate16QMovableArrayOpsISt4pairI7QStringiEE8Inserter8displaceExx
FNDA:0,_ZN9QtPrivate16QMovableArrayOpsI7QStringE8Inserter9insertOneExOS1_
FNDA:0,_ZN9QtPrivate16QMovableArrayOpsISt4pairI7QStringiEE8Inserter9insertOneExOS3_
FNDA:0,_ZN9QtPrivate16QMovableArrayOpsI7QStringE7emplaceIJRKS1_EEEvxDpOT_
FNDA:0,_ZN9QtPrivate16QMovableArrayOpsISt4pairI7QStringiEE7emplaceIJRKS3_EEEvxDpOT_
FNDA:0,_ZN9QtPrivate12QPodArrayOpsIP11QPushButtonE10moveAppendEPS2_S4_
FNDA:0,_ZN9QtPrivate12QPodArrayOpsIP4CardE10moveAppendEPS2_S4_
FNDA:0,_ZN9QtPrivate12QPodArrayOpsIP6PlayerE10moveAppendEPS2_S4_
FNDA:0,_ZN9QtPrivate12QPodArrayOpsIP6QFrameE10moveAppendEPS2_S4_
FNDA:0,_ZN9QtPrivate12QPodArrayOpsIP6QLabelE10moveAppendEPS2_S4_
FNDA:0,_ZN9QtPrivate12QPodArrayOpsIiE10moveAppendEPiS2_
FNDA:0,_ZN9QtPrivate16QMovableArrayOpsI7QStringE10reallocateExN10QArrayData16AllocationOptionE
FNDA:0,_ZN9QtPrivate16QMovableArrayOpsISt4pairI7QStringiEE10reallocateExN10QArrayData16AllocationOptionE
FNDA:6,_ZN9QtPrivate12QPodArrayOpsIP4CardE8truncateEm
FNDA:0,_ZN9QtPrivate12QPodArrayOpsIP6PlayerE8truncateEm
FNDA:25,_ZN9QtPrivate15QCommonArrayOpsIP4CardE10growAppendEPKS2_S5_
FNDA:2,_ZN9QtPrivate12QPodArrayOpsIDsE10destroyAllEv
FNDA:0,_ZN9QtPrivate12QPodArrayOpsIP11QPushButtonE10destroyAllEv
FNDA:68,_ZN9QtPrivate12QPodArrayOpsIP4CardE10destroyAllEv
FNDA:2,_ZN9QtPrivate12QPodArrayOpsIP6PlayerE10destroyAllEv
FNDA:0,_ZN9QtPrivate12QPodArrayOpsIP6QFrameE10destroyAllEv
FNDA:0,_ZN9QtPrivate12QPodArrayOpsIP6QLabelE10destroyAllEv
FNDA:0,_ZN9QtPrivate12QPodArrayOpsIcE10destroyAllEv
FNDA:3,_ZN9QtPrivate12QPodArrayOpsIiE10destroyAllEv
FNF:67
FNH:21
DA:38,3
DA:45,3
DA:46,3
DA:47,3
DA:48,116
DA:49,113
DA:50,3
DA:52,47
DA:59,47
DA:60,0
DA:62,47
DA:63,47
DA:79,0
DA:81,0
DA:82,0
DA:84,6
DA:90,6
DA:91,6
DA:93,75
DA:100,75
DA:102,140
DA:107,140
DA:108,140
DA:109,140
DA:110,0
DA:113,0
DA:114,0
DA:116,140
DA:117,140
DA:153,2110
DA:155,2110
DA:156,2110
DA:157,2075
DA:158,1970
DA:159,1970
DA:160,1970
DA:162,105
DA:163,0
DA:164,0
DA:165,0
DA:166,0
DA:169,140
DA:170,140
DA:171,140
DA:172,0
DA:174,140
DA:176,140
DA:177,140
DA:180,7
DA:182,7
DA:192,7
DA:193,1
DA:194,6
DA:195,5
DA:196,5
DA:198,7
DA:199,7
DA:209,358
DA:213,358
DA:214,358
DA:236,4
DA:242,4
DA:257,105
DA:259,105
DA:260,105
DA:262,105
DA:263,105
DA:264,105
DA:280,0
DA:287,0
DA:288,0
DA:289,0
DA:290,0
DA:291,0
DA:293,0
DA:300,0
DA:301,0
DA:303,0
DA:304,0
DA:305,0
DA:306,0
DA:307,0
DA:325,0
DA:332,0
DA:333,0
DA:335,0
DA:336,0
DA:337,0
DA:338,0
DA:339,0
DA:353,0
DA:361,0
DA:362,0
DA:668,0
DA:669,0
DA:676,0
DA:677,0
DA:680,0
DA:682,0
DA:683,0
DA:684,0
DA:685,0
DA:686,0
DA:687,0
DA:688,0
DA:689,0
DA:715,0
DA:717,0
DA:718,0
DA:719,0
DA:721,0
DA:775,0
DA:777,0
DA:778,0
DA:779,0
DA:780,0
DA:781,0
DA:782,0
DA:784,0
DA:785,0
DA:786,0
DA:787,0
DA:788,0
DA:791,0
DA:792,0
DA:793,0
DA:795,0
DA:796,0
DA:798,0
DA:799,0
DA:800,0
DA:802,0
DA:829,0
DA:831,0
DA:832,0
DA:834,0
DA:835,0
DA:836,0
DA:910,25
DA:912,25
DA:913,3
DA:915,22
DA:916,22
DA:919,22
DA:920,0
DA:922,22
DA:925,22
LF:147
LH:64
end_of_record
TN:
SF:/home/marija/Qt/6.5.3/gcc_64/include/QtCore/qarraydatapointer.h
FN:104,104,_ZN17QArrayDataPointerI7QStringE4dataEv
FN:104,104,_ZN17QArrayDataPointerIDsE4dataEv
FN:104,104,_ZN17QArrayDataPointerIP11QPushButtonE4dataEv
FN:104,104,_ZN17QArrayDataPointerIP4CardE4dataEv
FN:104,104,_ZN17QArrayDataPointerIP6PlayerE4dataEv
FN:104,104,_ZN17QArrayDataPointerIP6QFrameE4dataEv
FN:104,104,_ZN17QArrayDataPointerIP6QLabelE4dataEv
FN:104,104,_ZN17QArrayDataPointerISt4pairI7QStringiEE4dataEv
FN:104,104,_ZN17QArrayDataPointerIiE4dataEv
FN:105,105,_ZNK17QArrayDataPointerI7QStringE4dataEv
FN:105,105,_ZNK17QArrayDataPointerIDsE4dataEv
FN:105,105,_ZNK17QArrayDataPointerIP11QPushButtonE4dataEv
FN:105,105,_ZNK17QArrayDataPointerIP4CardE4dataEv
FN:105,105,_ZNK17QArrayDataPointerIP6PlayerE4dataEv
FN:105,105,_ZNK17QArrayDataPointerIP6QFrameE4dataEv
FN:105,105,_ZNK17QArrayDataPointerIP6QLabelE4dataEv
FN:105,105,_ZNK17QArrayDataPointerISt4pairI7QStringiEE4dataEv
FN:105,105,_ZNK17QArrayDataPointerIcE4dataEv
FN:105,105,_ZNK17QArrayDataPointerIiE4dataEv
FN:107,107,_ZN17QArrayDataPointerI7QStringE5beginEv
FN:107,107,_ZN17QArrayDataPointerIP11QPushButtonE5beginEv
FN:107,107,_ZN17QArrayDataPointerIP4CardE5beginEv
FN:107,107,_ZN17QArrayDataPointerIP6PlayerE5beginEv
FN:107,107,_ZN17QArrayDataPointerIP6QFrameE5beginEv
FN:107,107,_ZN17QArrayDataPointerIP6QLabelE5beginEv
FN:107,107,_ZN17QArrayDataPointerISt4pairI7QStringiEE5beginEv
FN:107,107,_ZN17QArrayDataPointerIiE5beginEv
FN:108,108,_ZN17QArrayDataPointerI7QStringE3endEv
FN:108,108,_ZN17QArrayDataPointerIP11QPushButtonE3endEv
FN:108,108,_ZN17QArrayDataPointerIP4CardE3endEv
FN:108,108,_ZN17QArrayDataPointerIP6PlayerE3endEv
FN:108,108,_ZN17QArrayDataPointerIP6QFrameE3endEv
FN:108,108,_ZN17QArrayDataPointerIP6QLabelE3endEv
FN:108,108,_ZN17QArrayDataPointerISt4pairI7QStringiEE3endEv
FN:108,108,_ZN17QArrayDataPointerIiE3endEv
FN:109,109,_ZNK17QArrayDataPointerI7QStringE5beginEv
FN:109,109,_ZNK17QArrayDataPointerIP11QPushButtonE5beginEv
FN:109,109,_ZNK17QArrayDataPointerIP4CardE5beginEv
FN:109,109,_ZNK17QArrayDataPointerIP6PlayerE5beginEv
FN:109,109,_ZNK17QArrayDataPointerIP6QFrameE5beginEv
FN:109,109,_ZNK17QArrayDataPointerIP6QLabelE5beginEv
FN:109,109,_ZNK17QArrayDataPointerISt4pairI7QStringiEE5beginEv
FN:109,109,_ZNK17QArrayDataPointerIiE5beginEv
FN:110,110,_ZNK17QArrayDataPointerI7QStringE3endEv
FN:110,110,_ZNK17QArrayDataPointerIP11QPushButtonE3endEv
FN:110,110,_ZNK17QArrayDataPointerIP4CardE3endEv
FN:110,110,_ZNK17QArrayDataPointerIP6PlayerE3endEv
FN:110,110,_ZNK17QArrayDataPointerIP6QFrameE3endEv
FN:110,110,_ZNK17QArrayDataPointerIP6QLabelE3endEv
FN:110,110,_ZNK17QArrayDataPointerISt4pairI7QStringiEE3endEv
FN:110,110,_ZNK17QArrayDataPointerIiE3endEv
FN:111,111,_ZNK17QArrayDataPointerIP4CardE10constBeginEv
FN:111,111,_ZNK17QArrayDataPointerIP6PlayerE10constBeginEv
FN:112,112,_ZNK17QArrayDataPointerIP4CardE8constEndEv
FN:112,112,_ZNK17QArrayDataPointerIP6PlayerE8constEndEv
FN:114,119,_ZN17QArrayDataPointerI7QStringE4swapERS1_
FN:114,119,_ZN17QArrayDataPointerIDsE4swapERS0_
FN:114,119,_ZN17QArrayDataPointerIP11QPushButtonE4swapERS2_
FN:114,119,_ZN17QArrayDataPointerIP4CardE4swapERS2_
FN:114,119,_ZN17QArrayDataPointerIP6PlayerE4swapERS2_
FN:114,119,_ZN17QArrayDataPointerIP6QFrameE4swapERS2_
FN:114,119,_ZN17QArrayDataPointerIP6QLabelE4swapERS2_
FN:114,119,_ZN17QArrayDataPointerISt4pairI7QStringiEE4swapERS3_
FN:114,119,_ZN17QArrayDataPointerIiE4swapERS0_
FN:127,131,_ZN17QArrayDataPointerI7QStringE6detachEPS1_
FN:127,131,_ZN17QArrayDataPointerIP11QPushButtonE6detachEPS2_
FN:127,131,_ZN17QArrayDataPointerIP4CardE6detachEPS2_
FN:127,131,_ZN17QArrayDataPointerIP6PlayerE6detachEPS2_
FN:127,131,_ZN17QArrayDataPointerIP6QFrameE6detachEPS2_
FN:127,131,_ZN17QArrayDataPointerIP6QLabelE6detachEPS2_
FN:127,131,_ZN17QArrayDataPointerISt4pairI7QStringiEE6detachEPS3_
FN:127,131,_ZN17QArrayDataPointerIiE6detachEPS0_
FN:178,195,_ZN17QArrayDataPointerI7QStringE13detachAndGrowEN10QArrayData14GrowthPositionExPPKS0_PS1_
FN:178,195,_ZN17QArrayDataPointerIP11QPushButtonE13detachAndGrowEN10QArrayData14GrowthPositionExPPKS1_PS2_
FN:178,195,_ZN17QArrayDataPointerIP4CardE13detachAndGrowEN10QArrayData14GrowthPositionExPPKS1_PS2_
FN:178,195,_ZN17QArrayDataPointerIP6PlayerE13detachAndGrowEN10QArrayData14GrowthPositionExPPKS1_PS2_
FN:178,195,_ZN17QArrayDataPointerIP6QFrameE13detachAndGrowEN10QArrayData14GrowthPositionExPPKS1_PS2_
FN:178,195,_ZN17QArrayDataPointerIP6QLabelE13detachAndGrowEN10QArrayData14GrowthPositionExPPKS1_PS2_
FN:178,195,_ZN17QArrayDataPointerISt4pairI7QStringiEE13detachAndGrowEN10QArrayData14GrowthPositionExPPKS2_PS3_
FN:178,195,_ZN17QArrayDataPointerIiE13detachAndGrowEN10QArrayData14GrowthPositionExPPKiPS0_
FN:203,235,_ZN17QArrayDataPointerI7QStringE17reallocateAndGrowEN10QArrayData14GrowthPositionExPS1_
FN:203,235,_ZN17QArrayDataPointerIP11QPushButtonE17reallocateAndGrowEN10QArrayData14GrowthPositionExPS2_
FN:203,235,_ZN17QArrayDataPointerIP4CardE17reallocateAndGrowEN10QArrayData14GrowthPositionExPS2_
FN:203,235,_ZN17QArrayDataPointerIP6PlayerE17reallocateAndGrowEN10QArrayData14GrowthPositionExPS2_
FN:203,235,_ZN17QArrayDataPointerIP6QFrameE17reallocateAndGrowEN10QArrayData14GrowthPositionExPS2_
FN:203,235,_ZN17QArrayDataPointerIP6QLabelE17reallocateAndGrowEN10QArrayData14GrowthPositionExPS2_
FN:203,235,_ZN17QArrayDataPointerISt4pairI7QStringiEE17reallocateAndGrowEN10QArrayData14GrowthPositionExPS3_
FN:203,235,_ZN17QArrayDataPointerIiE17reallocateAndGrowEN10QArrayData14GrowthPositionExPS0_
FN:254,291,_ZN17QArrayDataPointerI7QStringE20tryReadjustFreeSpaceEN10QArrayData14GrowthPositionExPPKS0_
FN:254,291,_ZN17QArrayDataPointerIP11QPushButtonE20tryReadjustFreeSpaceEN10QArrayData14GrowthPositionExPPKS1_
FN:254,291,_ZN17QArrayDataPointerIP4CardE20tryReadjustFreeSpaceEN10QArrayData14GrowthPositionExPPKS1_
FN:254,291,_ZN17QArrayDataPointerIP6PlayerE20tryReadjustFreeSpaceEN10QArrayData14GrowthPositionExPPKS1_
FN:254,291,_ZN17QArrayDataPointerIP6QFrameE20tryReadjustFreeSpaceEN10QArrayData14GrowthPositionExPPKS1_
FN:254,291,_ZN17QArrayDataPointerIP6QLabelE20tryReadjustFreeSpaceEN10QArrayData14GrowthPositionExPPKS1_
FN:254,291,_ZN17QArrayDataPointerISt4pairI7QStringiEE20tryReadjustFreeSpaceEN10QArrayData14GrowthPositionExPPKS2_
FN:254,291,_ZN17QArrayDataPointerIiE20tryReadjustFreeSpaceEN10QArrayData14GrowthPositionExPPKi
FN:27,30,_ZN17QArrayDataPointerI7QStringEC1Ev
FN:27,30,_ZN17QArrayDataPointerIDsEC1Ev
FN:27,30,_ZN17QArrayDataPointerIP11QPushButtonEC1Ev
FN:27,30,_ZN17QArrayDataPointerIP4CardEC1Ev
FN:27,30,_ZN17QArrayDataPointerIP6PlayerEC1Ev
FN:27,30,_ZN17QArrayDataPointerIP6QFrameEC1Ev
FN:27,30,_ZN17QArrayDataPointerIP6QLabelEC1Ev
FN:27,30,_ZN17QArrayDataPointerIiEC1Ev
FN:298,306,_ZN17QArrayDataPointerI7QStringE8relocateExPPKS0_
FN:298,306,_ZN17QArrayDataPointerIP11QPushButtonE8relocateExPPKS1_
FN:298,306,_ZN17QArrayDataPointerIP4CardE8relocateExPPKS1_
FN:298,306,_ZN17QArrayDataPointerIP6PlayerE8relocateExPPKS1_
FN:298,306,_ZN17QArrayDataPointerIP6QFrameE8relocateExPPKS1_
FN:298,306,_ZN17QArrayDataPointerIP6QLabelE8relocateExPPKS1_
FN:298,306,_ZN17QArrayDataPointerISt4pairI7QStringiEE8relocateExPPKS2_
FN:298,306,_ZN17QArrayDataPointerIiE8relocateExPPKi
FN:309,309,_ZN17QArrayDataPointerIP4CardE17allocatedCapacityEv
FN:309,309,_ZN17QArrayDataPointerIP6PlayerE17allocatedCapacityEv
FN:310,310,_ZNK17QArrayDataPointerI7QStringE22constAllocatedCapacityEv
FN:310,310,_ZNK17QArrayDataPointerIP11QPushButtonE22constAllocatedCapacityEv
FN:310,310,_ZNK17QArrayDataPointerIP4CardE22constAllocatedCapacityEv
FN:310,310,_ZNK17QArrayDataPointerIP6PlayerE22constAllocatedCapacityEv
FN:310,310,_ZNK17QArrayDataPointerIP6QFrameE22constAllocatedCapacityEv
FN:310,310,_ZNK17QArrayDataPointerIP6QLabelE22constAllocatedCapacityEv
FN:310,310,_ZNK17QArrayDataPointerISt4pairI7QStringiEE22constAllocatedCapacityEv
FN:310,310,_ZNK17QArrayDataPointerIcE22constAllocatedCapacityEv
FN:310,310,_ZNK17QArrayDataPointerIiE22constAllocatedCapacityEv
FN:311,311,_ZN17QArrayDataPointerI7QStringE3refEv
FN:311,311,_ZN17QArrayDataPointerIDsE3refEv
FN:311,311,_ZN17QArrayDataPointerIP4CardE3refEv
FN:311,311,_ZN17QArrayDataPointerIP6PlayerE3refEv
FN:311,311,_ZN17QArrayDataPointerISt4pairI7QStringiEE3refEv
FN:311,311,_ZN17QArrayDataPointerIiE3refEv
FN:312,312,_ZN17QArrayDataPointerI7QStringE5derefEv
FN:312,312,_ZN17QArrayDataPointerIDsE5derefEv
FN:312,312,_ZN17QArrayDataPointerIP11QPushButtonE5derefEv
FN:312,312,_ZN17QArrayDataPointerIP4CardE5derefEv
FN:312,312,_ZN17QArrayDataPointerIP6PlayerE5derefEv
FN:312,312,_ZN17QArrayDataPointerIP6QFrameE5derefEv
FN:312,312,_ZN17QArrayDataPointerIP6QLabelE5derefEv
FN:312,312,_ZN17QArrayDataPointerISt4pairI7QStringiEE5derefEv
FN:312,312,_ZN17QArrayDataPointerIcE5derefEv
FN:312,312,_ZN17QArrayDataPointerIiE5derefEv
FN:316,316,_ZNK17QArrayDataPointerI7QStringE11needsDetachEv
FN:316,316,_ZNK17QArrayDataPointerIDsE11needsDetachEv
FN:316,316,_ZNK17QArrayDataPointerIP11QPushButtonE11needsDetachEv
FN:316,316,_ZNK17QArrayDataPointerIP4CardE11needsDetachEv
FN:316,316,_ZNK17QArrayDataPointerIP6PlayerE11needsDetachEv
FN:316,316,_ZNK17QArrayDataPointerIP6QFrameE11needsDetachEv
FN:316,316,_ZNK17QArrayDataPointerIP6QLabelE11needsDetachEv
FN:316,316,_ZNK17QArrayDataPointerISt4pairI7QStringiEE11needsDetachEv
FN:316,316,_ZNK17QArrayDataPointerIcE11needsDetachEv
FN:316,316,_ZNK17QArrayDataPointerIiE11needsDetachEv
FN:317,317,_ZNK17QArrayDataPointerI7QStringE14detachCapacityEx
FN:317,317,_ZNK17QArrayDataPointerIP11QPushButtonE14detachCapacityEx
FN:317,317,_ZNK17QArrayDataPointerIP4CardE14detachCapacityEx
FN:317,317,_ZNK17QArrayDataPointerIP6PlayerE14detachCapacityEx
FN:317,317,_ZNK17QArrayDataPointerIP6QFrameE14detachCapacityEx
FN:317,317,_ZNK17QArrayDataPointerIP6QLabelE14detachCapacityEx
FN:317,317,_ZNK17QArrayDataPointerISt4pairI7QStringiEE14detachCapacityEx
FN:317,317,_ZNK17QArrayDataPointerIiE14detachCapacityEx
FN:318,318,_ZNK17QArrayDataPointerI7QStringE5flagsEv
FN:318,318,_ZNK17QArrayDataPointerIP11QPushButtonE5flagsEv
FN:318,318,_ZNK17QArrayDataPointerIP4CardE5flagsEv
FN:318,318,_ZNK17QArrayDataPointerIP6PlayerE5flagsEv
FN:318,318,_ZNK17QArrayDataPointerIP6QFrameE5flagsEv
FN:318,318,_ZNK17QArrayDataPointerIP6QLabelE5flagsEv
FN:318,318,_ZNK17QArrayDataPointerISt4pairI7QStringiEE5flagsEv
FN:318,318,_ZNK17QArrayDataPointerIiE5flagsEv
FN:319,319,_ZN17QArrayDataPointerIcE7setFlagE6QFlagsIN10QArrayData11ArrayOptionEE
FN:32,36,_ZN17QArrayDataPointerI7QStringEC2ERKS1_
FN:32,36,_ZN17QArrayDataPointerIDsEC2ERKS0_
FN:32,36,_ZN17QArrayDataPointerIP4CardEC2ERKS2_
FN:32,36,_ZN17QArrayDataPointerIP6PlayerEC2ERKS2_
FN:32,36,_ZN17QArrayDataPointerISt4pairI7QStringiEEC2ERKS3_
FN:32,36,_ZN17QArrayDataPointerIiEC2ERKS0_
FN:325,330,_ZNK17QArrayDataPointerI7QStringE16freeSpaceAtBeginEv
FN:325,330,_ZNK17QArrayDataPointerIP11QPushButtonE16freeSpaceAtBeginEv
FN:325,330,_ZNK17QArrayDataPointerIP4CardE16freeSpaceAtBeginEv
FN:325,330,_ZNK17QArrayDataPointerIP6PlayerE16freeSpaceAtBeginEv
FN:325,330,_ZNK17QArrayDataPointerIP6QFrameE16freeSpaceAtBeginEv
FN:325,330,_ZNK17QArrayDataPointerIP6QLabelE16freeSpaceAtBeginEv
FN:325,330,_ZNK17QArrayDataPointerISt4pairI7QStringiEE16freeSpaceAtBeginEv
FN:325,330,_ZNK17QArrayDataPointerIcE16freeSpaceAtBeginEv
FN:325,330,_ZNK17QArrayDataPointerIiE16freeSpaceAtBeginEv
FN:332,337,_ZNK17QArrayDataPointerI7QStringE14freeSpaceAtEndEv
FN:332,337,_ZNK17QArrayDataPointerIP11QPushButtonE14freeSpaceAtEndEv
FN:332,337,_ZNK17QArrayDataPointerIP4CardE14freeSpaceAtEndEv
FN:332,337,_ZNK17QArrayDataPointerIP6PlayerE14freeSpaceAtEndEv
FN:332,337,_ZNK17QArrayDataPointerIP6QFrameE14freeSpaceAtEndEv
FN:332,337,_ZNK17QArrayDataPointerIP6QLabelE14freeSpaceAtEndEv
FN:332,337,_ZNK17QArrayDataPointerISt4pairI7QStringiEE14freeSpaceAtEndEv
FN:332,337,_ZNK17QArrayDataPointerIiE14freeSpaceAtEndEv
FN:340,364,_ZN17QArrayDataPointerI7QStringE12allocateGrowERKS1_xN10QArrayData14GrowthPositionE
FN:340,364,_ZN17QArrayDataPointerIP11QPushButtonE12allocateGrowERKS2_xN10QArrayData14GrowthPositionE
FN:340,364,_ZN17QArrayDataPointerIP4CardE12allocateGrowERKS2_xN10QArrayData14GrowthPositionE
FN:340,364,_ZN17QArrayDataPointerIP6PlayerE12allocateGrowERKS2_xN10QArrayData14GrowthPositionE
FN:340,364,_ZN17QArrayDataPointerIP6QFrameE12allocateGrowERKS2_xN10QArrayData14GrowthPositionE
FN:340,364,_ZN17QArrayDataPointerIP6QLabelE12allocateGrowERKS2_xN10QArrayData14GrowthPositionE
FN:340,364,_ZN17QArrayDataPointerISt4pairI7QStringiEE12allocateGrowERKS3_xN10QArrayData14GrowthPositionE
FN:340,364,_ZN17QArrayDataPointerIiE12allocateGrowERKS0_xN10QArrayData14GrowthPositionE
FN:38,41,_ZN17QArrayDataPointerI7QStringEC2EP15QTypedArrayDataIS0_EPS0_x
FN:38,41,_ZN17QArrayDataPointerIP11QPushButtonEC2EP15QTypedArrayDataIS1_EPS1_x
FN:38,41,_ZN17QArrayDataPointerIP4CardEC2EP15QTypedArrayDataIS1_EPS1_x
FN:38,41,_ZN17QArrayDataPointerIP6PlayerEC2EP15QTypedArrayDataIS1_EPS1_x
FN:38,41,_ZN17QArrayDataPointerIP6QFrameEC2EP15QTypedArrayDataIS1_EPS1_x
FN:38,41,_ZN17QArrayDataPointerIP6QLabelEC2EP15QTypedArrayDataIS1_EPS1_x
FN:38,41,_ZN17QArrayDataPointerISt4pairI7QStringiEEC2EP15QTypedArrayDataIS2_EPS2_x
FN:38,41,_ZN17QArrayDataPointerIiEC2EP15QTypedArrayDataIiEPix
FN:43,46,_ZN17QArrayDataPointerIP4CardEC2ESt4pairIP15QTypedArrayDataIS1_EPS1_Ex
FN:43,46,_ZN17QArrayDataPointerIP6PlayerEC2ESt4pairIP15QTypedArrayDataIS1_EPS1_Ex
FN:43,46,_ZN17QArrayDataPointerISt4pairI7QStringiEEC2ES0_IP15QTypedArrayDataIS2_EPS2_Ex
FN:43,46,_ZN17QArrayDataPointerIiEC2ESt4pairIP15QTypedArrayDataIiEPiEx
FN:54,59,_ZN17QArrayDataPointerIP4CardEaSERKS2_
FN:61,67,_ZN17QArrayDataPointerIDsEC2EOS0_
FN:61,67,_ZN17QArrayDataPointerIP4CardEC2EOS2_
FN:61,67,_ZN17QArrayDataPointerIP6PlayerEC2EOS2_
FN:61,67,_ZN17QArrayDataPointerIiEC2EOS0_
FN:69,69,_ZN17QArrayDataPointerIiEaSEOS0_
FN:76,79,_ZN17QArrayDataPointerI7QStringEptEv
FN:76,79,_ZN17QArrayDataPointerIDsEptEv
FN:76,79,_ZN17QArrayDataPointerIP11QPushButtonEptEv
FN:76,79,_ZN17QArrayDataPointerIP4CardEptEv
FN:76,79,_ZN17QArrayDataPointerIP6PlayerEptEv
FN:76,79,_ZN17QArrayDataPointerIP6QFrameEptEv
FN:76,79,_ZN17QArrayDataPointerIP6QLabelEptEv
FN:76,79,_ZN17QArrayDataPointerISt4pairI7QStringiEEptEv
FN:76,79,_ZN17QArrayDataPointerIcEptEv
FN:76,79,_ZN17QArrayDataPointerIiEptEv
FN:86,89,_ZNK17QArrayDataPointerI7QStringEptEv
FN:86,89,_ZNK17QArrayDataPointerIDsEptEv
FN:86,89,_ZNK17QArrayDataPointerIP11QPushButtonEptEv
FN:86,89,_ZNK17QArrayDataPointerIP4CardEptEv
FN:86,89,_ZNK17QArrayDataPointerIP6PlayerEptEv
FN:86,89,_ZNK17QArrayDataPointerISt4pairI7QStringiEEptEv
FN:86,89,_ZNK17QArrayDataPointerIcEptEv
FN:86,89,_ZNK17QArrayDataPointerIiEptEv
FN:91,97,_ZN17QArrayDataPointerI7QStringED2Ev
FN:91,97,_ZN17QArrayDataPointerIDsED2Ev
FN:91,97,_ZN17QArrayDataPointerIP11QPushButtonED2Ev
FN:91,97,_ZN17QArrayDataPointerIP4CardED2Ev
FN:91,97,_ZN17QArrayDataPointerIP6PlayerED2Ev
FN:91,97,_ZN17QArrayDataPointerIP6QFrameED2Ev
FN:91,97,_ZN17QArrayDataPointerIP6QLabelED2Ev
FN:91,97,_ZN17QArrayDataPointerISt4pairI7QStringiEED2Ev
FN:91,97,_ZN17QArrayDataPointerIcED2Ev
FN:91,97,_ZN17QArrayDataPointerIiED2Ev
FN:99,102,_ZNK17QArrayDataPointerIDsE6isNullEv
FN:99,102,_ZNK17QArrayDataPointerIcE6isNullEv
FNDA:0,_ZN17QArrayDataPointerI7QStringE4dataEv
FNDA:1,_ZN17QArrayDataPointerIDsE4dataEv
FNDA:0,_ZN17QArrayDataPointerIP11QPushButtonE4dataEv
FNDA:4884,_ZN17QArrayDataPointerIP4CardE4dataEv
FNDA:24,_ZN17QArrayDataPointerIP6PlayerE4dataEv
FNDA:0,_ZN17QArrayDataPointerIP6QFrameE4dataEv
FNDA:0,_ZN17QArrayDataPointerIP6QLabelE4dataEv
FNDA:0,_ZN17QArrayDataPointerISt4pairI7QStringiEE4dataEv
FNDA:120,_ZN17QArrayDataPointerIiE4dataEv
FNDA:0,_ZNK17QArrayDataPointerI7QStringE4dataEv
FNDA:0,_ZNK17QArrayDataPointerIDsE4dataEv
FNDA:0,_ZNK17QArrayDataPointerIP11QPushButtonE4dataEv
FNDA:178,_ZNK17QArrayDataPointerIP4CardE4dataEv
FNDA:0,_ZNK17QArrayDataPointerIP6PlayerE4dataEv
FNDA:0,_ZNK17QArrayDataPointerIP6QFrameE4dataEv
FNDA:0,_ZNK17QArrayDataPointerIP6QLabelE4dataEv
FNDA:0,_ZNK17QArrayDataPointerISt4pairI7QStringiEE4dataEv
FNDA:0,_ZNK17QArrayDataPointerIcE4dataEv
FNDA:5,_ZNK17QArrayDataPointerIiE4dataEv
FNDA:0,_ZN17QArrayDataPointerI7QStringE5beginEv
FNDA:0,_ZN17QArrayDataPointerIP11QPushButtonE5beginEv
FNDA:167,_ZN17QArrayDataPointerIP4CardE5beginEv
FNDA:9,_ZN17QArrayDataPointerIP6PlayerE5beginEv
FNDA:0,_ZN17QArrayDataPointerIP6QFrameE5beginEv
FNDA:0,_ZN17QArrayDataPointerIP6QLabelE5beginEv
FNDA:0,_ZN17QArrayDataPointerISt4pairI7QStringiEE5beginEv
FNDA:0,_ZN17QArrayDataPointerIiE5beginEv
FNDA:0,_ZN17QArrayDataPointerI7QStringE3endEv
FNDA:0,_ZN17QArrayDataPointerIP11QPushButtonE3endEv
FNDA:4553,_ZN17QArrayDataPointerIP4CardE3endEv
FNDA:14,_ZN17QArrayDataPointerIP6PlayerE3endEv
FNDA:0,_ZN17QArrayDataPointerIP6QFrameE3endEv
FNDA:0,_ZN17QArrayDataPointerIP6QLabelE3endEv
FNDA:0,_ZN17QArrayDataPointerISt4pairI7QStringiEE3endEv
FNDA:10,_ZN17QArrayDataPointerIiE3endEv
FNDA:0,_ZNK17QArrayDataPointerI7QStringE5beginEv
FNDA:0,_ZNK17QArrayDataPointerIP11QPushButtonE5beginEv
FNDA:22,_ZNK17QArrayDataPointerIP4CardE5beginEv
FNDA:0,_ZNK17QArrayDataPointerIP6PlayerE5beginEv
FNDA:0,_ZNK17QArrayDataPointerIP6QFrameE5beginEv
FNDA:0,_ZNK17QArrayDataPointerIP6QLabelE5beginEv
FNDA:0,_ZNK17QArrayDataPointerISt4pairI7QStringiEE5beginEv
FNDA:0,_ZNK17QArrayDataPointerIiE5beginEv
FNDA:0,_ZNK17QArrayDataPointerI7QStringE3endEv
FNDA:0,_ZNK17QArrayDataPointerIP11QPushButtonE3endEv
FNDA:22,_ZNK17QArrayDataPointerIP4CardE3endEv
FNDA:0,_ZNK17QArrayDataPointerIP6PlayerE3endEv
FNDA:0,_ZNK17QArrayDataPointerIP6QFrameE3endEv
FNDA:0,_ZNK17QArrayDataPointerIP6QLabelE3endEv
FNDA:0,_ZNK17QArrayDataPointerISt4pairI7QStringiEE3endEv
FNDA:0,_ZNK17QArrayDataPointerIiE3endEv
FNDA:43,_ZNK17QArrayDataPointerIP4CardE10constBeginEv
FNDA:0,_ZNK17QArrayDataPointerIP6PlayerE10constBeginEv
FNDA:30,_ZNK17QArrayDataPointerIP4CardE8constEndEv
FNDA:0,_ZNK17QArrayDataPointerIP6PlayerE8constEndEv
FNDA:0,_ZN17QArrayDataPointerI7QStringE4swapERS1_
FNDA:2,_ZN17QArrayDataPointerIDsE4swapERS0_
FNDA:0,_ZN17QArrayDataPointerIP11QPushButtonE4swapERS2_
FNDA:98,_ZN17QArrayDataPointerIP4CardE4swapERS2_
FNDA:2,_ZN17QArrayDataPointerIP6PlayerE4swapERS2_
FNDA:0,_ZN17QArrayDataPointerIP6QFrameE4swapERS2_
FNDA:0,_ZN17QArrayDataPointerIP6QLabelE4swapERS2_
FNDA:0,_ZN17QArrayDataPointerISt4pairI7QStringiEE4swapERS3_
FNDA:2,_ZN17QArrayDataPointerIiE4swapERS0_
FNDA:0,_ZN17QArrayDataPointerI7QStringE6detachEPS1_
FNDA:0,_ZN17QArrayDataPointerIP11QPushButtonE6detachEPS2_
FNDA:3142,_ZN17QArrayDataPointerIP4CardE6detachEPS2_
FNDA:18,_ZN17QArrayDataPointerIP6PlayerE6detachEPS2_
FNDA:0,_ZN17QArrayDataPointerIP6QFrameE6detachEPS2_
FNDA:0,_ZN17QArrayDataPointerIP6QLabelE6detachEPS2_
FNDA:0,_ZN17QArrayDataPointerISt4pairI7QStringiEE6detachEPS3_
FNDA:113,_ZN17QArrayDataPointerIiE6detachEPS0_
FNDA:0,_ZN17QArrayDataPointerI7QStringE13detachAndGrowEN10QArrayData14GrowthPositionExPPKS0_PS1_
FNDA:0,_ZN17QArrayDataPointerIP11QPushButtonE13detachAndGrowEN10QArrayData14GrowthPositionExPPKS1_PS2_
FNDA:158,_ZN17QArrayDataPointerIP4CardE13detachAndGrowEN10QArrayData14GrowthPositionExPPKS1_PS2_
FNDA:2,_ZN17QArrayDataPointerIP6PlayerE13detachAndGrowEN10QArrayData14GrowthPositionExPPKS1_PS2_
FNDA:0,_ZN17QArrayDataPointerIP6QFrameE13detachAndGrowEN10QArrayData14GrowthPositionExPPKS1_PS2_
FNDA:0,_ZN17QArrayDataPointerIP6QLabelE13detachAndGrowEN10QArrayData14GrowthPositionExPPKS1_PS2_
FNDA:0,_ZN17QArrayDataPointerISt4pairI7QStringiEE13detachAndGrowEN10QArrayData14GrowthPositionExPPKS2_PS3_
FNDA:2,_ZN17QArrayDataPointerIiE13detachAndGrowEN10QArrayData14GrowthPositionExPPKiPS0_
FNDA:0,_ZN17QArrayDataPointerI7QStringE17reallocateAndGrowEN10QArrayData14GrowthPositionExPS1_
FNDA:0,_ZN17QArrayDataPointerIP11QPushButtonE17reallocateAndGrowEN10QArrayData14GrowthPositionExPS2_
FNDA:199,_ZN17QArrayDataPointerIP4CardE17reallocateAndGrowEN10QArrayData14GrowthPositionExPS2_
FNDA:3,_ZN17QArrayDataPointerIP6PlayerE17reallocateAndGrowEN10QArrayData14GrowthPositionExPS2_
FNDA:0,_ZN17QArrayDataPointerIP6QFrameE17reallocateAndGrowEN10QArrayData14GrowthPositionExPS2_
FNDA:0,_ZN17QArrayDataPointerIP6QLabelE17reallocateAndGrowEN10QArrayData14GrowthPositionExPS2_
FNDA:0,_ZN17QArrayDataPointerISt4pairI7QStringiEE17reallocateAndGrowEN10QArrayData14GrowthPositionExPS3_
FNDA:2,_ZN17QArrayDataPointerIiE17reallocateAndGrowEN10QArrayData14GrowthPositionExPS0_
FNDA:0,_ZN17QArrayDataPointerI7QStringE20tryReadjustFreeSpaceEN10QArrayData14GrowthPositionExPPKS0_
FNDA:0,_ZN17QArrayDataPointerIP11QPushButtonE20tryReadjustFreeSpaceEN10QArrayData14GrowthPositionExPPKS1_
FNDA:104,_ZN17QArrayDataPointerIP4CardE20tryReadjustFreeSpaceEN10QArrayData14GrowthPositionExPPKS1_
FNDA:1,_ZN17QArrayDataPointerIP6PlayerE20tryReadjustFreeSpaceEN10QArrayData14GrowthPositionExPPKS1_
FNDA:0,_ZN17QArrayDataPointerIP6QFrameE20tryReadjustFreeSpaceEN10QArrayData14GrowthPositionExPPKS1_
FNDA:0,_ZN17QArrayDataPointerIP6QLabelE20tryReadjustFreeSpaceEN10QArrayData14GrowthPositionExPPKS1_
FNDA:0,_ZN17QArrayDataPointerISt4pairI7QStringiEE20tryReadjustFreeSpaceEN10QArrayData14GrowthPositionExPPKS2_
FNDA:0,_ZN17QArrayDataPointerIiE20tryReadjustFreeSpaceEN10QArrayData14GrowthPositionExPPKi
FNDA:0,_ZN17QArrayDataPointerI7QStringEC1Ev
FNDA:28,_ZN17QArrayDataPointerIDsEC1Ev
FNDA:0,_ZN17QArrayDataPointerIP11QPushButtonEC1Ev
FNDA:69,_ZN17QArrayDataPointerIP4CardEC1Ev
FNDA:2,_ZN17QArrayDataPointerIP6PlayerEC1Ev
FNDA:0,_ZN17QArrayDataPointerIP6QFrameEC1Ev
FNDA:0,_ZN17QArrayDataPointerIP6QLabelEC1Ev
FNDA:0,_ZN17QArrayDataPointerIiEC1Ev
FNDA:0,_ZN17QArrayDataPointerI7QStringE8relocateExPPKS0_
FNDA:0,_ZN17QArrayDataPointerIP11QPushButtonE8relocateExPPKS1_
FNDA:0,_ZN17QArrayDataPointerIP4CardE8relocateExPPKS1_
FNDA:0,_ZN17QArrayDataPointerIP6PlayerE8relocateExPPKS1_
FNDA:0,_ZN17QArrayDataPointerIP6QFrameE8relocateExPPKS1_
FNDA:0,_ZN17QArrayDataPointerIP6QLabelE8relocateExPPKS1_
FNDA:0,_ZN17QArrayDataPointerISt4pairI7QStringiEE8relocateExPPKS2_
FNDA:0,_ZN17QArrayDataPointerIiE8relocateExPPKi
FNDA:0,_ZN17QArrayDataPointerIP4CardE17allocatedCapacityEv
FNDA:0,_ZN17QArrayDataPointerIP6PlayerE17allocatedCapacityEv
FNDA:0,_ZNK17QArrayDataPointerI7QStringE22constAllocatedCapacityEv
FNDA:0,_ZNK17QArrayDataPointerIP11QPushButtonE22constAllocatedCapacityEv
FNDA:398,_ZNK17QArrayDataPointerIP4CardE22constAllocatedCapacityEv
FNDA:6,_ZNK17QArrayDataPointerIP6PlayerE22constAllocatedCapacityEv
FNDA:0,_ZNK17QArrayDataPointerIP6QFrameE22constAllocatedCapacityEv
FNDA:0,_ZNK17QArrayDataPointerIP6QLabelE22constAllocatedCapacityEv
FNDA:0,_ZNK17QArrayDataPointerISt4pairI7QStringiEE22constAllocatedCapacityEv
FNDA:0,_ZNK17QArrayDataPointerIcE22constAllocatedCapacityEv
FNDA:4,_ZNK17QArrayDataPointerIiE22constAllocatedCapacityEv
FNDA:0,_ZN17QArrayDataPointerI7QStringE3refEv
FNDA:5,_ZN17QArrayDataPointerIDsE3refEv
FNDA:16,_ZN17QArrayDataPointerIP4CardE3refEv
FNDA:1,_ZN17QArrayDataPointerIP6PlayerE3refEv
FNDA:0,_ZN17QArrayDataPointerISt4pairI7QStringiEE3refEv
FNDA:0,_ZN17QArrayDataPointerIiE3refEv
FNDA:0,_ZN17QArrayDataPointerI7QStringE5derefEv
FNDA:38,_ZN17QArrayDataPointerIDsE5derefEv
FNDA:0,_ZN17QArrayDataPointerIP11QPushButtonE5derefEv
FNDA:216,_ZN17QArrayDataPointerIP4CardE5derefEv
FNDA:5,_ZN17QArrayDataPointerIP6PlayerE5derefEv
FNDA:0,_ZN17QArrayDataPointerIP6QFrameE5derefEv
FNDA:0,_ZN17QArrayDataPointerIP6QLabelE5derefEv
FNDA:0,_ZN17QArrayDataPointerISt4pairI7QStringiEE5derefEv
FNDA:0,_ZN17QArrayDataPointerIcE5derefEv
FNDA:6,_ZN17QArrayDataPointerIiE5derefEv
FNDA:0,_ZNK17QArrayDataPointerI7QStringE11needsDetachEv
FNDA:1,_ZNK17QArrayDataPointerIDsE11needsDetachEv
FNDA:0,_ZNK17QArrayDataPointerIP11QPushButtonE11needsDetachEv
FNDA:5613,_ZNK17QArrayDataPointerIP4CardE11needsDetachEv
FNDA:28,_ZNK17QArrayDataPointerIP6PlayerE11needsDetachEv
FNDA:0,_ZNK17QArrayDataPointerIP6QFrameE11needsDetachEv
FNDA:0,_ZNK17QArrayDataPointerIP6QLabelE11needsDetachEv
FNDA:0,_ZNK17QArrayDataPointerISt4pairI7QStringiEE11needsDetachEv
FNDA:0,_ZNK17QArrayDataPointerIcE11needsDetachEv
FNDA:122,_ZNK17QArrayDataPointerIiE11needsDetachEv
FNDA:0,_ZNK17QArrayDataPointerI7QStringE14detachCapacityEx
FNDA:0,_ZNK17QArrayDataPointerIP11QPushButtonE14detachCapacityEx
FNDA:95,_ZNK17QArrayDataPointerIP4CardE14detachCapacityEx
FNDA:2,_ZNK17QArrayDataPointerIP6PlayerE14detachCapacityEx
FNDA:0,_ZNK17QArrayDataPointerIP6QFrameE14detachCapacityEx
FNDA:0,_ZNK17QArrayDataPointerIP6QLabelE14detachCapacityEx
FNDA:0,_ZNK17QArrayDataPointerISt4pairI7QStringiEE14detachCapacityEx
FNDA:2,_ZNK17QArrayDataPointerIiE14detachCapacityEx
FNDA:0,_ZNK17QArrayDataPointerI7QStringE5flagsEv
FNDA:0,_ZNK17QArrayDataPointerIP11QPushButtonE5flagsEv
FNDA:57,_ZNK17QArrayDataPointerIP4CardE5flagsEv
FNDA:2,_ZNK17QArrayDataPointerIP6PlayerE5flagsEv
FNDA:0,_ZNK17QArrayDataPointerIP6QFrameE5flagsEv
FNDA:0,_ZNK17QArrayDataPointerIP6QLabelE5flagsEv
FNDA:0,_ZNK17QArrayDataPointerISt4pairI7QStringiEE5flagsEv
FNDA:2,_ZNK17QArrayDataPointerIiE5flagsEv
FNDA:0,_ZN17QArrayDataPointerIcE7setFlagE6QFlagsIN10QArrayData11ArrayOptionEE
FNDA:0,_ZN17QArrayDataPointerI7QStringEC2ERKS1_
FNDA:5,_ZN17QArrayDataPointerIDsEC2ERKS0_
FNDA:16,_ZN17QArrayDataPointerIP4CardEC2ERKS2_
FNDA:1,_ZN17QArrayDataPointerIP6PlayerEC2ERKS2_
FNDA:0,_ZN17QArrayDataPointerISt4pairI7QStringiEEC2ERKS3_
FNDA:0,_ZN17QArrayDataPointerIiEC2ERKS0_
FNDA:0,_ZNK17QArrayDataPointerI7QStringE16freeSpaceAtBeginEv
FNDA:0,_ZNK17QArrayDataPointerIP11QPushButtonE16freeSpaceAtBeginEv
FNDA:2553,_ZNK17QArrayDataPointerIP4CardE16freeSpaceAtBeginEv
FNDA:10,_ZNK17QArrayDataPointerIP6PlayerE16freeSpaceAtBeginEv
FNDA:0,_ZNK17QArrayDataPointerIP6QFrameE16freeSpaceAtBeginEv
FNDA:0,_ZNK17QArrayDataPointerIP6QLabelE16freeSpaceAtBeginEv
FNDA:0,_ZNK17QArrayDataPointerISt4pairI7QStringiEE16freeSpaceAtBeginEv
FNDA:0,_ZNK17QArrayDataPointerIcE16freeSpaceAtBeginEv
FNDA:5,_ZNK17QArrayDataPointerIiE16freeSpaceAtBeginEv
FNDA:0,_ZNK17QArrayDataPointerI7QStringE14freeSpaceAtEndEv
FNDA:0,_ZNK17QArrayDataPointerIP11QPushButtonE14freeSpaceAtEndEv
FNDA:2480,_ZNK17QArrayDataPointerIP4CardE14freeSpaceAtEndEv
FNDA:8,_ZNK17QArrayDataPointerIP6PlayerE14freeSpaceAtEndEv
FNDA:0,_ZNK17QArrayDataPointerIP6QFrameE14freeSpaceAtEndEv
FNDA:0,_ZNK17QArrayDataPointerIP6QLabelE14freeSpaceAtEndEv
FNDA:0,_ZNK17QArrayDataPointerISt4pairI7QStringiEE14freeSpaceAtEndEv
FNDA:5,_ZNK17QArrayDataPointerIiE14freeSpaceAtEndEv
FNDA:0,_ZN17QArrayDataPointerI7QStringE12allocateGrowERKS1_xN10QArrayData14GrowthPositionE
FNDA:0,_ZN17QArrayDataPointerIP11QPushButtonE12allocateGrowERKS2_xN10QArrayData14GrowthPositionE
FNDA:95,_ZN17QArrayDataPointerIP4CardE12allocateGrowERKS2_xN10QArrayData14GrowthPositionE
FNDA:2,_ZN17QArrayDataPointerIP6PlayerE12allocateGrowERKS2_xN10QArrayData14GrowthPositionE
FNDA:0,_ZN17QArrayDataPointerIP6QFrameE12allocateGrowERKS2_xN10QArrayData14GrowthPositionE
FNDA:0,_ZN17QArrayDataPointerIP6QLabelE12allocateGrowERKS2_xN10QArrayData14GrowthPositionE
FNDA:0,_ZN17QArrayDataPointerISt4pairI7QStringiEE12allocateGrowERKS3_xN10QArrayData14GrowthPositionE
FNDA:2,_ZN17QArrayDataPointerIiE12allocateGrowERKS0_xN10QArrayData14GrowthPositionE
FNDA:0,_ZN17QArrayDataPointerI7QStringEC2EP15QTypedArrayDataIS0_EPS0_x
FNDA:0,_ZN17QArrayDataPointerIP11QPushButtonEC2EP15QTypedArrayDataIS1_EPS1_x
FNDA:95,_ZN17QArrayDataPointerIP4CardEC2EP15QTypedArrayDataIS1_EPS1_x
FNDA:2,_ZN17QArrayDataPointerIP6PlayerEC2EP15QTypedArrayDataIS1_EPS1_x
FNDA:0,_ZN17QArrayDataPointerIP6QFrameEC2EP15QTypedArrayDataIS1_EPS1_x
FNDA:0,_ZN17QArrayDataPointerIP6QLabelEC2EP15QTypedArrayDataIS1_EPS1_x
FNDA:0,_ZN17QArrayDataPointerISt4pairI7QStringiEEC2EP15QTypedArrayDataIS2_EPS2_x
FNDA:2,_ZN17QArrayDataPointerIiEC2EP15QTypedArrayDataIiEPix
FNDA:20,_ZN17QArrayDataPointerIP4CardEC2ESt4pairIP15QTypedArrayDataIS1_EPS1_Ex
FNDA:0,_ZN17QArrayDataPointerIP6PlayerEC2ESt4pairIP15QTypedArrayDataIS1_EPS1_Ex
FNDA:0,_ZN17QArrayDataPointerISt4pairI7QStringiEEC2ES0_IP15QTypedArrayDataIS2_EPS2_Ex
FNDA:1,_ZN17QArrayDataPointerIiEC2ESt4pairIP15QTypedArrayDataIiEPiEx
FNDA:3,_ZN17QArrayDataPointerIP4CardEaSERKS2_
FNDA:4,_ZN17QArrayDataPointerIDsEC2EOS0_
FNDA:0,_ZN17QArrayDataPointerIP4CardEC2EOS2_
FNDA:0,_ZN17QArrayDataPointerIP6PlayerEC2EOS2_
FNDA:0,_ZN17QArrayDataPointerIiEC2EOS0_
FNDA:0,_ZN17QArrayDataPointerIiEaSEOS0_
FNDA:0,_ZN17QArrayDataPointerI7QStringEptEv
FNDA:3,_ZN17QArrayDataPointerIDsEptEv
FNDA:0,_ZN17QArrayDataPointerIP11QPushButtonEptEv
FNDA:7588,_ZN17QArrayDataPointerIP4CardEptEv
FNDA:30,_ZN17QArrayDataPointerIP6PlayerEptEv
FNDA:0,_ZN17QArrayDataPointerIP6QFrameEptEv
FNDA:0,_ZN17QArrayDataPointerIP6QLabelEptEv
FNDA:0,_ZN17QArrayDataPointerISt4pairI7QStringiEEptEv
FNDA:0,_ZN17QArrayDataPointerIcEptEv
FNDA:127,_ZN17QArrayDataPointerIiEptEv
FNDA:0,_ZNK17QArrayDataPointerI7QStringEptEv
FNDA:0,_ZNK17QArrayDataPointerIDsEptEv
FNDA:0,_ZNK17QArrayDataPointerIP11QPushButtonEptEv
FNDA:807,_ZNK17QArrayDataPointerIP4CardEptEv
FNDA:0,_ZNK17QArrayDataPointerIP6PlayerEptEv
FNDA:0,_ZNK17QArrayDataPointerISt4pairI7QStringiEEptEv
FNDA:0,_ZNK17QArrayDataPointerIcEptEv
FNDA:18,_ZNK17QArrayDataPointerIiEptEv
FNDA:0,_ZN17QArrayDataPointerI7QStringED2Ev
FNDA:38,_ZN17QArrayDataPointerIDsED2Ev
FNDA:0,_ZN17QArrayDataPointerIP11QPushButtonED2Ev
FNDA:216,_ZN17QArrayDataPointerIP4CardED2Ev
FNDA:5,_ZN17QArrayDataPointerIP6PlayerED2Ev
FNDA:0,_ZN17QArrayDataPointerIP6QFrameED2Ev
FNDA:0,_ZN17QArrayDataPointerIP6QLabelED2Ev
FNDA:0,_ZN17QArrayDataPointerISt4pairI7QStringiEED2Ev
FNDA:0,_ZN17QArrayDataPointerIcED2Ev
FNDA:6,_ZN17QArrayDataPointerIiED2Ev
FNDA:0,_ZNK17QArrayDataPointerIDsE6isNullEv
FNDA:0,_ZNK17QArrayDataPointerIcE6isNullEv
FNF:245
FNH:82
DA:27,99
DA:28,99
DA:30,99
DA:32,22
DA:33,22
DA:35,22
DA:36,22
DA:38,99
DA:39,99
DA:41,99
DA:43,21
DA:44,21
DA:46,21
DA:54,3
DA:56,3
DA:57,3
DA:58,3
DA:61,4
DA:62,4
DA:64,4
DA:65,4
DA:66,4
DA:67,4
DA:69,0
DA:76,7748
DA:78,7748
DA:86,825
DA:88,825
DA:91,265
DA:93,265
DA:94,75
DA:95,75
DA:97,265
DA:99,0
DA:101,0
DA:104,5029
DA:105,183
DA:107,176
DA:108,4577
DA:109,22
DA:110,22
DA:111,43
DA:112,30
DA:114,104
DA:116,104
DA:117,104
DA:118,104
DA:119,104
DA:127,3273
DA:129,3273
DA:130,46
DA:131,3273
DA:178,162
DA:181,162
DA:182,162
DA:183,162
DA:184,109
DA:185,218
DA:186,4
DA:187,105
DA:193,158
DA:194,158
DA:203,204
DA:207,204
DA:208,105
DA:209,105
DA:213,198
DA:214,99
DA:215,53
DA:221,99
DA:222,8
DA:223,8
DA:224,0
DA:225,8
DA:226,8
DA:228,0
DA:232,99
DA:233,99
DA:234,0
DA:254,105
DA:261,105
DA:262,105
DA:263,105
DA:265,105
DA:274,105
DA:275,0
DA:277,105
DA:278,0
DA:280,0
DA:283,105
DA:286,0
DA:290,0
DA:298,0
DA:300,0
DA:301,0
DA:303,0
DA:304,0
DA:305,0
DA:306,0
DA:309,0
DA:310,408
DA:311,22
DA:312,265
DA:316,5764
DA:317,99
DA:318,61
DA:319,0
DA:325,2568
DA:327,2568
DA:328,53
DA:329,2515
DA:332,2493
DA:334,2493
DA:335,91
DA:336,2402
DA:340,99
DA:346,99
DA:349,99
DA:350,99
DA:351,99
DA:352,99
DA:353,99
DA:354,99
DA:355,38
DA:359,61
DA:360,61
DA:361,61
DA:362,61
DA:363,61
LF:129
LH:109
end_of_record
TN:
SF:/home/marija/Qt/6.5.3/gcc_64/include/QtCore/qatomic.h
FN:119,119,_ZN10QAtomicIntC2Ei
FN:23,23,_ZN14QAtomicIntegerIiEC2Ei
FNDA:0,_ZN10QAtomicIntC2Ei
FNDA:0,_ZN14QAtomicIntegerIiEC2Ei
FNF:2
FNH:0
DA:23,0
DA:119,0
LF:2
LH:0
end_of_record
TN:
SF:/home/marija/Qt/6.5.3/gcc_64/include/QtCore/qatomic_cxx11.h
FN:199,202,_ZN10QAtomicOpsIiE11loadRelaxedIiEET_RKSt6atomicIS2_E
FN:211,214,_ZN10QAtomicOpsIiE11loadAcquireIiEET_RKSt6atomicIS2_E
FN:235,238,_ZN10QAtomicOpsIiE12storeReleaseIiEEvRSt6atomicIT_ES3_
FN:243,259,_ZN10QAtomicOpsIiE3refIiEEbRSt6atomicIT_E
FN:262,266,_ZN10QAtomicOpsIiE5derefIiEEbRSt6atomicIT_E
FNDA:5547,_ZN10QAtomicOpsIiE11loadRelaxedIiEET_RKSt6atomicIS2_E
FNDA:0,_ZN10QAtomicOpsIiE11loadAcquireIiEET_RKSt6atomicIS2_E
FNDA:0,_ZN10QAtomicOpsIiE12storeReleaseIiEEvRSt6atomicIT_ES3_
FNDA:19,_ZN10QAtomicOpsIiE3refIiEEbRSt6atomicIT_E
FNDA:93,_ZN10QAtomicOpsIiE5derefIiEEbRSt6atomicIT_E
FNF:5
FNH:3
DA:199,5547
DA:201,11094
DA:211,0
DA:213,0
DA:235,0
DA:237,0
DA:238,0
DA:243,19
DA:258,38
DA:262,93
DA:265,186
LF:11
LH:6
end_of_record
TN:
SF:/home/marija/Qt/6.5.3/gcc_64/include/QtCore/qbasicatomic.h
FN:157,157,_ZN19QBasicAtomicIntegerIiEC2Ei
FN:40,40,_ZNK19QBasicAtomicIntegerIiE11loadRelaxedEv
FN:43,43,_ZNK19QBasicAtomicIntegerIiE11loadAcquireEv
FN:44,44,_ZN19QBasicAtomicIntegerIiE12storeReleaseEi
FN:51,51,_ZN19QBasicAtomicIntegerIiE3refEv
FN:52,52,_ZN19QBasicAtomicIntegerIiE5derefEv
FNDA:0,_ZN19QBasicAtomicIntegerIiEC2Ei
FNDA:5547,_ZNK19QBasicAtomicIntegerIiE11loadRelaxedEv
FNDA:0,_ZNK19QBasicAtomicIntegerIiE11loadAcquireEv
FNDA:0,_ZN19QBasicAtomicIntegerIiE12storeReleaseEi
FNDA:19,_ZN19QBasicAtomicIntegerIiE3refEv
FNDA:93,_ZN19QBasicAtomicIntegerIiE5derefEv
FNF:6
FNH:3
DA:40,5547
DA:43,0
DA:44,0
DA:51,19
DA:52,93
DA:157,0
LF:6
LH:3
end_of_record
TN:
SF:/home/marija/Qt/6.5.3/gcc_64/include/QtCore/qbytearray.h
FN:222,223,_ZN10QByteArray6appendEPKc
FN:224,225,_ZN10QByteArray6appendEPKcx
FN:227,228,_ZN10QByteArray6appendE14QByteArrayView
FN:293,294,_ZneRK10QByteArrayPKc
FN:453,453,_ZNK10QByteArray4sizeEv
FN:489,489,_ZN10QByteArrayD2Ev
FN:508,515,_ZNK10QByteArray4dataEv
FN:523,523,_ZNK10QByteArray8capacityEv
FN:525,531,_ZN10QByteArray7reserveEx
FN:595,598,_ZNK10QByteArray6isNullEv
FNDA:0,_ZN10QByteArray6appendEPKc
FNDA:0,_ZN10QByteArray6appendEPKcx
FNDA:0,_ZN10QByteArray6appendE14QByteArrayView
FNDA:0,_ZneRK10QByteArrayPKc
FNDA:0,_ZNK10QByteArray4sizeEv
FNDA:0,_ZN10QByteArrayD2Ev
FNDA:0,_ZNK10QByteArray4dataEv
FNDA:0,_ZNK10QByteArray8capacityEv
FNDA:0,_ZN10QByteArray7reserveEx
FNDA:0,_ZNK10QByteArray6isNullEv
FNF:10
FNH:0
DA:222,0
DA:223,0
DA:224,0
DA:225,0
DA:227,0
DA:228,0
DA:293,0
DA:294,0
DA:453,0
DA:489,0
DA:508,0
DA:511,0
DA:523,0
DA:525,0
DA:527,0
DA:528,0
DA:529,0
DA:530,0
DA:531,0
DA:595,0
DA:597,0
LF:21
LH:0
end_of_record
TN:
SF:/home/marija/Qt/6.5.3/gcc_64/include/QtCore/qbytearrayalgorithms.h
FN:98,108,_Z7qstrlenPKc
FNDA:0,_Z7qstrlenPKc
FNF:1
FNH:0
DA:98,0
DA:106,0
LF:2
LH:0
end_of_record
TN:
SF:/home/marija/Qt/6.5.3/gcc_64/include/QtCore/qbytearrayview.h
FN:116,121,_ZN14QByteArrayView21lengthHelperCharArrayEPKcm
FN:126,127,_ZN14QByteArrayView10castHelperEPKc
FN:136,138,_ZN14QByteArrayViewC2IcLb1EEEPKT_x
FN:149,151,_ZN14QByteArrayViewC2IPKcLb1EEERKT_
FN:158,159,_ZN14QByteArrayViewC2I10QByteArrayLb1EEERKT_
FN:166,167,_ZN14QByteArrayViewC2ILm1EEERAT__Kc
FN:166,167,_ZN14QByteArrayViewC2ILm21EEERAT__Kc
FN:166,167,_ZN14QByteArrayViewC2ILm225EEERAT__Kc
FN:166,167,_ZN14QByteArrayViewC2ILm22EEERAT__Kc
FN:166,167,_ZN14QByteArrayViewC2ILm23EEERAT__Kc
FN:166,167,_ZN14QByteArrayViewC2ILm24EEERAT__Kc
FN:166,167,_ZN14QByteArrayViewC2ILm25EEERAT__Kc
FN:166,167,_ZN14QByteArrayViewC2ILm26EEERAT__Kc
FN:166,167,_ZN14QByteArrayViewC2ILm28EEERAT__Kc
FN:166,167,_ZN14QByteArrayViewC2ILm292EEERAT__Kc
FN:166,167,_ZN14QByteArrayViewC2ILm295EEERAT__Kc
FN:166,167,_ZN14QByteArrayViewC2ILm297EEERAT__Kc
FN:166,167,_ZN14QByteArrayViewC2ILm29EEERAT__Kc
FN:166,167,_ZN14QByteArrayViewC2ILm30EEERAT__Kc
FN:166,167,_ZN14QByteArrayViewC2ILm31EEERAT__Kc
FN:166,167,_ZN14QByteArrayViewC2ILm32EEERAT__Kc
FN:166,167,_ZN14QByteArrayViewC2ILm330EEERAT__Kc
FN:166,167,_ZN14QByteArrayViewC2ILm399EEERAT__Kc
FN:166,167,_ZN14QByteArrayViewC2ILm401EEERAT__Kc
FN:166,167,_ZN14QByteArrayViewC2ILm44EEERAT__Kc
FN:166,167,_ZN14QByteArrayViewC2ILm47EEERAT__Kc
FN:166,167,_ZN14QByteArrayViewC2ILm48EEERAT__Kc
FN:166,167,_ZN14QByteArrayViewC2ILm51EEERAT__Kc
FN:166,167,_ZN14QByteArrayViewC2ILm62EEERAT__Kc
FN:166,167,_ZN14QByteArrayViewC2ILm702EEERAT__Kc
FN:166,167,_ZN14QByteArrayViewC2ILm703EEERAT__Kc
FN:166,167,_ZN14QByteArrayViewC2ILm710EEERAT__Kc
FN:166,167,_ZN14QByteArrayViewC2ILm711EEERAT__Kc
FN:166,167,_ZN14QByteArrayViewC2ILm71EEERAT__Kc
FN:166,167,_ZN14QByteArrayViewC2ILm723EEERAT__Kc
FN:166,167,_ZN14QByteArrayViewC2ILm725EEERAT__Kc
FN:178,178,_ZNK14QByteArrayView4sizeEv
FN:179,179,_ZNK14QByteArrayView4dataEv
FN:314,315,_Zeq14QByteArrayViewS_
FN:316,317,_Zne14QByteArrayViewS_
FN:67,70,_ZN9QtPrivateL19lengthHelperPointerIcEExPKT_
FNDA:0,_ZN14QByteArrayView21lengthHelperCharArrayEPKcm
FNDA:5,_ZN14QByteArrayView10castHelperEPKc
FNDA:5,_ZN14QByteArrayViewC2IcLb1EEEPKT_x
FNDA:5,_ZN14QByteArrayViewC2IPKcLb1EEERKT_
FNDA:0,_ZN14QByteArrayViewC2I10QByteArrayLb1EEERKT_
FNDA:0,_ZN14QByteArrayViewC2ILm1EEERAT__Kc
FNDA:0,_ZN14QByteArrayViewC2ILm21EEERAT__Kc
FNDA:0,_ZN14QByteArrayViewC2ILm225EEERAT__Kc
FNDA:0,_ZN14QByteArrayViewC2ILm22EEERAT__Kc
FNDA:0,_ZN14QByteArrayViewC2ILm23EEERAT__Kc
FNDA:0,_ZN14QByteArrayViewC2ILm24EEERAT__Kc
FNDA:0,_ZN14QByteArrayViewC2ILm25EEERAT__Kc
FNDA:0,_ZN14QByteArrayViewC2ILm26EEERAT__Kc
FNDA:0,_ZN14QByteArrayViewC2ILm28EEERAT__Kc
FNDA:0,_ZN14QByteArrayViewC2ILm292EEERAT__Kc
FNDA:0,_ZN14QByteArrayViewC2ILm295EEERAT__Kc
FNDA:0,_ZN14QByteArrayViewC2ILm297EEERAT__Kc
FNDA:0,_ZN14QByteArrayViewC2ILm29EEERAT__Kc
FNDA:0,_ZN14QByteArrayViewC2ILm30EEERAT__Kc
FNDA:0,_ZN14QByteArrayViewC2ILm31EEERAT__Kc
FNDA:0,_ZN14QByteArrayViewC2ILm32EEERAT__Kc
FNDA:0,_ZN14QByteArrayViewC2ILm330EEERAT__Kc
FNDA:0,_ZN14QByteArrayViewC2ILm399EEERAT__Kc
FNDA:0,_ZN14QByteArrayViewC2ILm401EEERAT__Kc
FNDA:0,_ZN14QByteArrayViewC2ILm44EEERAT__Kc
FNDA:0,_ZN14QByteArrayViewC2ILm47EEERAT__Kc
FNDA:0,_ZN14QByteArrayViewC2ILm48EEERAT__Kc
FNDA:0,_ZN14QByteArrayViewC2ILm51EEERAT__Kc
FNDA:0,_ZN14QByteArrayViewC2ILm62EEERAT__Kc
FNDA:0,_ZN14QByteArrayViewC2ILm702EEERAT__Kc
FNDA:0,_ZN14QByteArrayViewC2ILm703EEERAT__Kc
FNDA:0,_ZN14QByteArrayViewC2ILm710EEERAT__Kc
FNDA:0,_ZN14QByteArrayViewC2ILm711EEERAT__Kc
FNDA:0,_ZN14QByteArrayViewC2ILm71EEERAT__Kc
FNDA:0,_ZN14QByteArrayViewC2ILm723EEERAT__Kc
FNDA:0,_ZN14QByteArrayViewC2ILm725EEERAT__Kc
FNDA:0,_ZNK14QByteArrayView4sizeEv
FNDA:0,_ZNK14QByteArrayView4dataEv
FNDA:0,_Zeq14QByteArrayViewS_
FNDA:0,_Zne14QByteArrayViewS_
FNDA:5,_ZN9QtPrivateL19lengthHelperPointerIcEExPKT_
FNF:41
FNH:4
DA:67,5
DA:69,5
DA:116,0
DA:118,0
DA:119,0
DA:120,0
DA:126,5
DA:127,5
DA:136,5
DA:138,5
DA:149,5
DA:151,5
DA:158,0
DA:159,0
DA:166,0
DA:167,0
DA:178,0
DA:179,0
DA:314,0
DA:315,0
DA:316,0
DA:317,0
LF:22
LH:8
end_of_record
TN:
SF:/home/marija/Qt/6.5.3/gcc_64/include/QtCore/qchar.h
FN:459,459,_ZN5QChar7unicodeEv
FN:90,90,_ZN5QCharC2Ec
FNDA:1,_ZN5QChar7unicodeEv
FNDA:0,_ZN5QCharC2Ec
FNF:2
FNH:1
DA:90,0
DA:459,1
LF:2
LH:1
end_of_record
TN:
SF:/home/marija/Qt/6.5.3/gcc_64/include/QtCore/qcontainertools_impl.h
FN:199,218,_ZN9QtPrivate20q_relocate_overlap_nI7QStringxEEvPT_T0_S3_
FN:199,218,_ZN9QtPrivate20q_relocate_overlap_nIP11QPushButtonxEEvPT_T0_S4_
FN:199,218,_ZN9QtPrivate20q_relocate_overlap_nIP4CardxEEvPT_T0_S4_
FN:199,218,_ZN9QtPrivate20q_relocate_overlap_nIP6PlayerxEEvPT_T0_S4_
FN:199,218,_ZN9QtPrivate20q_relocate_overlap_nIP6QFramexEEvPT_T0_S4_
FN:199,218,_ZN9QtPrivate20q_relocate_overlap_nIP6QLabelxEEvPT_T0_S4_
FN:199,218,_ZN9QtPrivate20q_relocate_overlap_nISt4pairI7QStringiExEEvPT_T0_S5_
FN:199,218,_ZN9QtPrivate20q_relocate_overlap_nIixEEvPT_T0_S2_
FN:331,339,_ZN9QtPrivate20sequential_erase_oneI5QListIP4CardES3_EEDaRT_RKT0_
FN:36,40,_ZN9QtPrivateL19q_points_into_rangeI7QStringSt4lessIvEEEbPKT_S6_S6_T0_
FN:36,40,_ZN9QtPrivateL19q_points_into_rangeIP11QPushButtonSt4lessIvEEEbPKT_S7_S7_T0_
FN:36,40,_ZN9QtPrivateL19q_points_into_rangeIP4CardSt4lessIvEEEbPKT_S7_S7_T0_
FN:36,40,_ZN9QtPrivateL19q_points_into_rangeIP6PlayerSt4lessIvEEEbPKT_S7_S7_T0_
FN:36,40,_ZN9QtPrivateL19q_points_into_rangeIP6QFrameSt4lessIvEEEbPKT_S7_S7_T0_
FN:36,40,_ZN9QtPrivateL19q_points_into_rangeIP6QLabelSt4lessIvEEEbPKT_S7_S7_T0_
FN:36,40,_ZN9QtPrivateL19q_points_into_rangeISt4pairI7QStringiESt4lessIvEEEbPKT_S8_S8_T0_
FN:36,40,_ZN9QtPrivateL19q_points_into_rangeIiSt4lessIvEEEbPKT_S5_S5_T0_
FN:49,57,_ZN9QtPrivateL19q_points_into_rangeI17QArrayDataPointerI7QStringEPKS2_EEbRKT0_RKT_
FN:49,57,_ZN9QtPrivateL19q_points_into_rangeI17QArrayDataPointerIP11QPushButtonEPKS3_EEbRKT0_RKT_
FN:49,57,_ZN9QtPrivateL19q_points_into_rangeI17QArrayDataPointerIP4CardEPKS3_EEbRKT0_RKT_
FN:49,57,_ZN9QtPrivateL19q_points_into_rangeI17QArrayDataPointerIP6PlayerEPKS3_EEbRKT0_RKT_
FN:49,57,_ZN9QtPrivateL19q_points_into_rangeI17QArrayDataPointerIP6QFrameEPKS3_EEbRKT0_RKT_
FN:49,57,_ZN9QtPrivateL19q_points_into_rangeI17QArrayDataPointerIP6QLabelEPKS3_EEbRKT0_RKT_
FN:49,57,_ZN9QtPrivateL19q_points_into_rangeI17QArrayDataPointerISt4pairI7QStringiEEPKS4_EEbRKT0_RKT_
FN:49,57,_ZN9QtPrivateL19q_points_into_rangeI17QArrayDataPointerIiEPKiEEbRKT0_RKT_
FN:49,57,_ZN9QtPrivateL19q_points_into_rangeINS_15QCommonArrayOpsIP4CardEEPKS3_EEbRKT0_RKT_
FNDA:0,_ZN9QtPrivate20q_relocate_overlap_nI7QStringxEEvPT_T0_S3_
FNDA:0,_ZN9QtPrivate20q_relocate_overlap_nIP11QPushButtonxEEvPT_T0_S4_
FNDA:0,_ZN9QtPrivate20q_relocate_overlap_nIP4CardxEEvPT_T0_S4_
FNDA:0,_ZN9QtPrivate20q_relocate_overlap_nIP6PlayerxEEvPT_T0_S4_
FNDA:0,_ZN9QtPrivate20q_relocate_overlap_nIP6QFramexEEvPT_T0_S4_
FNDA:0,_ZN9QtPrivate20q_relocate_overlap_nIP6QLabelxEEvPT_T0_S4_
FNDA:0,_ZN9QtPrivate20q_relocate_overlap_nISt4pairI7QStringiExEEvPT_T0_S5_
FNDA:0,_ZN9QtPrivate20q_relocate_overlap_nIixEEvPT_T0_S2_
FNDA:1,_ZN9QtPrivate20sequential_erase_oneI5QListIP4CardES3_EEDaRT_RKT0_
FNDA:0,_ZN9QtPrivateL19q_points_into_rangeI7QStringSt4lessIvEEEbPKT_S6_S6_T0_
FNDA:0,_ZN9QtPrivateL19q_points_into_rangeIP11QPushButtonSt4lessIvEEEbPKT_S7_S7_T0_
FNDA:22,_ZN9QtPrivateL19q_points_into_rangeIP4CardSt4lessIvEEEbPKT_S7_S7_T0_
FNDA:0,_ZN9QtPrivateL19q_points_into_rangeIP6PlayerSt4lessIvEEEbPKT_S7_S7_T0_
FNDA:0,_ZN9QtPrivateL19q_points_into_rangeIP6QFrameSt4lessIvEEEbPKT_S7_S7_T0_
FNDA:0,_ZN9QtPrivateL19q_points_into_rangeIP6QLabelSt4lessIvEEEbPKT_S7_S7_T0_
FNDA:0,_ZN9QtPrivateL19q_points_into_rangeISt4pairI7QStringiESt4lessIvEEEbPKT_S8_S8_T0_
FNDA:0,_ZN9QtPrivateL19q_points_into_rangeIiSt4lessIvEEEbPKT_S5_S5_T0_
FNDA:0,_ZN9QtPrivateL19q_points_into_rangeI17QArrayDataPointerI7QStringEPKS2_EEbRKT0_RKT_
FNDA:0,_ZN9QtPrivateL19q_points_into_rangeI17QArrayDataPointerIP11QPushButtonEPKS3_EEbRKT0_RKT_
FNDA:0,_ZN9QtPrivateL19q_points_into_rangeI17QArrayDataPointerIP4CardEPKS3_EEbRKT0_RKT_
FNDA:0,_ZN9QtPrivateL19q_points_into_rangeI17QArrayDataPointerIP6PlayerEPKS3_EEbRKT0_RKT_
FNDA:0,_ZN9QtPrivateL19q_points_into_rangeI17QArrayDataPointerIP6QFrameEPKS3_EEbRKT0_RKT_
FNDA:0,_ZN9QtPrivateL19q_points_into_rangeI17QArrayDataPointerIP6QLabelEPKS3_EEbRKT0_RKT_
FNDA:0,_ZN9QtPrivateL19q_points_into_rangeI17QArrayDataPointerISt4pairI7QStringiEEPKS4_EEbRKT0_RKT_
FNDA:0,_ZN9QtPrivateL19q_points_into_rangeI17QArrayDataPointerIiEPKiEEbRKT0_RKT_
FNDA:22,_ZN9QtPrivateL19q_points_into_rangeINS_15QCommonArrayOpsIP4CardEEPKS3_EEbRKT0_RKT_
FNF:26
FNH:3
DA:36,22
DA:39,22
DA:49,22
DA:55,22
DA:56,44
DA:199,0
DA:204,0
DA:205,0
DA:208,0
DA:331,1
DA:333,1
DA:334,1
DA:335,1
DA:336,0
DA:337,1
DA:338,1
LF:16
LH:11
end_of_record
TN:
SF:/home/marija/Qt/6.5.3/gcc_64/include/QtCore/qdatastream.h
FN:363,364,_ZN11QDataStreamrsERj
FN:378,379,_ZN11QDataStreamlsEj
FN:399,400,_ZlsIN12QMediaPlayer11MediaStatusEENSt9enable_ifIXsrSt7is_enumIT_E5valueER11QDataStreamE4typeES7_RKS4_
FN:404,405,_ZrsIN12QMediaPlayer11MediaStatusEENSt9enable_ifIXsrSt7is_enumIT_E5valueER11QDataStreamE4typeES7_RS4_
FNDA:0,_ZN11QDataStreamrsERj
FNDA:0,_ZN11QDataStreamlsEj
FNDA:0,_ZlsIN12QMediaPlayer11MediaStatusEENSt9enable_ifIXsrSt7is_enumIT_E5valueER11QDataStreamE4typeES7_RKS4_
FNDA:0,_ZrsIN12QMediaPlayer11MediaStatusEENSt9enable_ifIXsrSt7is_enumIT_E5valueER11QDataStreamE4typeES7_RS4_
FNF:4
FNH:0
DA:363,0
DA:364,0
DA:378,0
DA:379,0
DA:399,0
DA:400,0
DA:404,0
DA:405,0
LF:8
LH:0
end_of_record
TN:
SF:/home/marija/Qt/6.5.3/gcc_64/include/QtCore/qdatetime.h
FN:240,240,_Zlt5QTimeS_
FNDA:0,_Zlt5QTimeS_
FNF:1
FNH:0
DA:240,0
LF:1
LH:0
end_of_record
TN:
SF:/home/marija/Qt/6.5.3/gcc_64/include/QtCore/qdebug.h
FN:100,100,_ZN6QDebuglsEc
FN:114,114,_ZN6QDebuglsEPKc
FN:122,122,_ZN6QDebuglsEPKv
FN:241,256,_ZN9QtPrivate24printSequentialContainerI5QListIP4CardEEE6QDebugS5_PKcRKT_
FN:241,256,_ZN9QtPrivate24printSequentialContainerI5QListIP6PlayerEEE6QDebugS5_PKcRKT_
FN:284,287,_ZlsIP4CardENSt9enable_ifIX13conjunction_vISt11disjunctionIJSt10is_base_ofI5QListIT_ES6_EN11QTypeTraits20has_ostream_operatorI6QDebugS6_vEEEEEESB_E4typeESB_RKS7_
FN:284,287,_ZlsIP6PlayerENSt9enable_ifIX13conjunction_vISt11disjunctionIJSt10is_base_ofI5QListIT_ES6_EN11QTypeTraits20has_ostream_operatorI6QDebugS6_vEEEEEESB_E4typeESB_RKS7_
FN:74,74,_ZN6QDebugC2ERKS_
FN:75,75,_ZN6QDebugC2EOS_
FN:83,83,_ZN6QDebug5spaceEv
FN:84,84,_ZN6QDebug7nospaceEv
FN:85,85,_ZN6QDebug10maybeSpaceEv
FNDA:0,_ZN6QDebuglsEc
FNDA:0,_ZN6QDebuglsEPKc
FNDA:0,_ZN6QDebuglsEPKv
FNDA:0,_ZN9QtPrivate24printSequentialContainerI5QListIP4CardEEE6QDebugS5_PKcRKT_
FNDA:0,_ZN9QtPrivate24printSequentialContainerI5QListIP6PlayerEEE6QDebugS5_PKcRKT_
FNDA:0,_ZlsIP4CardENSt9enable_ifIX13conjunction_vISt11disjunctionIJSt10is_base_ofI5QListIT_ES6_EN11QTypeTraits20has_ostream_operatorI6QDebugS6_vEEEEEESB_E4typeESB_RKS7_
FNDA:0,_ZlsIP6PlayerENSt9enable_ifIX13conjunction_vISt11disjunctionIJSt10is_base_ofI5QListIT_ES6_EN11QTypeTraits20has_ostream_operatorI6QDebugS6_vEEEEEESB_E4typeESB_RKS7_
FNDA:0,_ZN6QDebugC2ERKS_
FNDA:0,_ZN6QDebugC2EOS_
FNDA:0,_ZN6QDebug5spaceEv
FNDA:0,_ZN6QDebug7nospaceEv
FNDA:0,_ZN6QDebug10maybeSpaceEv
FNF:12
FNH:0
DA:74,0
DA:75,0
DA:83,0
DA:84,0
DA:85,0
DA:100,0
DA:114,0
DA:122,0
DA:241,0
DA:243,0
DA:244,0
DA:245,0
DA:246,0
DA:247,0
DA:248,0
DA:250,0
DA:251,0
DA:252,0
DA:254,0
DA:255,0
DA:284,0
DA:286,0
LF:22
LH:0
end_of_record
TN:
SF:/home/marija/Qt/6.5.3/gcc_64/include/QtCore/qflags.h
FN:103,103,_ZNK6QFlagsIN10QArrayData11ArrayOptionEEcvjEv
FN:108,108,_ZNK6QFlagsIN2Qt10WindowTypeEEorES1_
FN:116,116,_ZNK6QFlagsIN10QArrayData11ArrayOptionEEanES1_
FN:31,31,_ZN5QFlagC2Ej
FN:34,34,_ZNK5QFlagcvjEv
FN:73,73,_ZN6QFlagsIN2Qt10WindowTypeEEC2Ev
FN:73,73,_ZN6QFlagsIN2Qt13AlignmentFlagEEC2Ev
FN:74,74,_ZN6QFlagsIN10QArrayData11ArrayOptionEEC2ES1_
FN:74,74,_ZN6QFlagsIN10QEventLoop17ProcessEventsFlagEEC2ES1_
FN:74,74,_ZN6QFlagsIN11QMessageBox14StandardButtonEEC2ES1_
FN:74,74,_ZN6QFlagsIN13QIODeviceBase12OpenModeFlagEEC2ES1_
FN:74,74,_ZN6QFlagsIN2Qt10WindowTypeEEC2ES1_
FN:74,74,_ZN6QFlagsIN2Qt13AlignmentFlagEEC2ES1_
FN:74,74,_ZN6QFlagsIN2Qt19ImageConversionFlagEEC2ES1_
FN:74,74,_ZN6QFlagsIN4QUrl25UserInputResolutionOptionEEC2ES1_
FN:75,75,_ZN6QFlagsIN10QArrayData11ArrayOptionEEC2E5QFlag
FN:75,75,_ZN6QFlagsIN2Qt10WindowTypeEEC2E5QFlag
FN:89,89,_ZN6QFlagsIN10QArrayData11ArrayOptionEEoRES2_
FNDA:8,_ZNK6QFlagsIN10QArrayData11ArrayOptionEEcvjEv
FNDA:0,_ZNK6QFlagsIN2Qt10WindowTypeEEorES1_
FNDA:8,_ZNK6QFlagsIN10QArrayData11ArrayOptionEEanES1_
FNDA:8,_ZN5QFlagC2Ej
FNDA:8,_ZNK5QFlagcvjEv
FNDA:0,_ZN6QFlagsIN2Qt10WindowTypeEEC2Ev
FNDA:0,_ZN6QFlagsIN2Qt13AlignmentFlagEEC2Ev
FNDA:53,_ZN6QFlagsIN10QArrayData11ArrayOptionEEC2ES1_
FNDA:0,_ZN6QFlagsIN10QEventLoop17ProcessEventsFlagEEC2ES1_
FNDA:0,_ZN6QFlagsIN11QMessageBox14StandardButtonEEC2ES1_
FNDA:0,_ZN6QFlagsIN13QIODeviceBase12OpenModeFlagEEC2ES1_
FNDA:0,_ZN6QFlagsIN2Qt10WindowTypeEEC2ES1_
FNDA:0,_ZN6QFlagsIN2Qt13AlignmentFlagEEC2ES1_
FNDA:0,_ZN6QFlagsIN2Qt19ImageConversionFlagEEC2ES1_
FNDA:0,_ZN6QFlagsIN4QUrl25UserInputResolutionOptionEEC2ES1_
FNDA:8,_ZN6QFlagsIN10QArrayData11ArrayOptionEEC2E5QFlag
FNDA:0,_ZN6QFlagsIN2Qt10WindowTypeEEC2E5QFlag
FNDA:0,_ZN6QFlagsIN10QArrayData11ArrayOptionEEoRES2_
FNF:18
FNH:6
DA:31,8
DA:34,8
DA:73,0
DA:74,53
DA:75,8
DA:89,0
DA:103,8
DA:108,0
DA:116,8
LF:9
LH:6
end_of_record
TN:
SF:/home/marija/Qt/6.5.3/gcc_64/include/QtCore/qjsonobject.h
FN:110,111,_ZNK11QJsonObject8iteratoreqERKS0_
FN:210,210,_ZN11QJsonObject3endEv
FN:94,94,_ZN11QJsonObject8iteratorC2EPS_x
FNDA:0,_ZNK11QJsonObject8iteratoreqERKS0_
FNDA:0,_ZN11QJsonObject3endEv
FNDA:0,_ZN11QJsonObject8iteratorC2EPS_x
FNF:3
FNH:0
DA:94,0
DA:110,0
DA:111,0
DA:210,0
LF:4
LH:0
end_of_record
TN:
SF:/home/marija/Qt/6.5.3/gcc_64/include/QtCore/qjsonvalue.h
FN:136,137,_ZNK18QJsonValueConstRef5toIntEi
FN:173,174,_ZN18QJsonValueConstRefC2EP11QJsonObjectx
FN:233,234,_ZN13QJsonValueRefC2EP11QJsonObjectx
FN:249,249,_ZNK13QJsonValueRef5toIntEi
FNDA:0,_ZNK18QJsonValueConstRef5toIntEi
FNDA:0,_ZN18QJsonValueConstRefC2EP11QJsonObjectx
FNDA:0,_ZN13QJsonValueRefC2EP11QJsonObjectx
FNDA:0,_ZNK13QJsonValueRef5toIntEi
FNF:4
FNH:0
DA:136,0
DA:137,0
DA:173,0
DA:174,0
DA:233,0
DA:234,0
DA:249,0
LF:7
LH:0
end_of_record
TN:
SF:/home/marija/Qt/6.5.3/gcc_64/include/QtCore/qlist.h
FN:123,123,_ZN5QListI7QStringE8iteratorC2EPS0_
FN:123,123,_ZN5QListIP11QPushButtonE8iteratorC2EPS1_
FN:123,123,_ZN5QListIP4CardE8iteratorC2EPS1_
FN:123,123,_ZN5QListIP6PlayerE8iteratorC2EPS1_
FN:123,123,_ZN5QListIP6QFrameE8iteratorC2EPS1_
FN:123,123,_ZN5QListIP6QLabelE8iteratorC2EPS1_
FN:123,123,_ZN5QListISt4pairI7QStringiEE8iteratorC2EPS2_
FN:123,123,_ZN5QListIiE8iteratorC2EPi
FN:125,125,_ZNK5QListI7QStringE8iteratordeEv
FN:125,125,_ZNK5QListIP11QPushButtonE8iteratordeEv
FN:125,125,_ZNK5QListIP4CardE8iteratordeEv
FN:125,125,_ZNK5QListIP6PlayerE8iteratordeEv
FN:125,125,_ZNK5QListIP6QFrameE8iteratordeEv
FN:125,125,_ZNK5QListIP6QLabelE8iteratordeEv
FN:125,125,_ZNK5QListISt4pairI7QStringiEE8iteratordeEv
FN:125,125,_ZNK5QListIiE8iteratordeEv
FN:128,128,_ZNK5QListIP4CardE8iteratoreqES3_
FN:128,128,_ZNK5QListIP6PlayerE8iteratoreqES3_
FN:128,128,_ZNK5QListISt4pairI7QStringiEE8iteratoreqES4_
FN:129,129,_ZNK5QListI7QStringE8iteratorneES2_
FN:129,129,_ZNK5QListIP4CardE8iteratorneES3_
FN:129,129,_ZNK5QListIP6PlayerE8iteratorneES3_
FN:129,129,_ZNK5QListISt4pairI7QStringiEE8iteratorneES4_
FN:129,129,_ZNK5QListIiE8iteratorneES1_
FN:130,130,_ZNK5QListIP6PlayerE8iteratorltES3_
FN:130,130,_ZNK5QListISt4pairI7QStringiEE8iteratorltES4_
FN:142,142,_ZN5QListI7QStringE8iteratorppEv
FN:142,142,_ZN5QListIP4CardE8iteratorppEv
FN:142,142,_ZN5QListIP6PlayerE8iteratorppEv
FN:142,142,_ZN5QListISt4pairI7QStringiEE8iteratorppEv
FN:142,142,_ZN5QListIiE8iteratorppEv
FN:143,143,_ZN5QListIP4CardE8iteratorppEi
FN:144,144,_ZN5QListIP4CardE8iteratormmEv
FN:144,144,_ZN5QListIP6PlayerE8iteratormmEv
FN:144,144,_ZN5QListISt4pairI7QStringiEE8iteratormmEv
FN:145,145,_ZN5QListIP4CardE8iteratormmEi
FN:146,146,_ZNK5QListIP4CardE8iteratormiES3_
FN:146,146,_ZNK5QListIP6PlayerE8iteratormiES3_
FN:146,146,_ZNK5QListISt4pairI7QStringiEE8iteratormiES4_
FN:158,158,_ZNK5QListIP4CardE8iteratorplIiEENSt9enable_ifIX13is_integral_vIT_EES3_E4typeES6_
FN:158,158,_ZNK5QListIP4CardE8iteratorplIxEENSt9enable_ifIX13is_integral_vIT_EES3_E4typeES6_
FN:158,158,_ZNK5QListIP4CardE8iteratorplIyEENSt9enable_ifIX13is_integral_vIT_EES3_E4typeES6_
FN:158,158,_ZNK5QListIP6PlayerE8iteratorplIiEENSt9enable_ifIX13is_integral_vIT_EES3_E4typeES6_
FN:158,158,_ZNK5QListIP6PlayerE8iteratorplIxEENSt9enable_ifIX13is_integral_vIT_EES3_E4typeES6_
FN:158,158,_ZNK5QListISt4pairI7QStringiEE8iteratorplIiEENSt9enable_ifIX13is_integral_vIT_EES4_E4typeES7_
FN:158,158,_ZNK5QListISt4pairI7QStringiEE8iteratorplIxEENSt9enable_ifIX13is_integral_vIT_EES4_E4typeES7_
FN:160,160,_ZNK5QListI7QStringE8iteratormiIiEENSt9enable_ifIX13is_integral_vIT_EES2_E4typeES5_
FN:160,160,_ZNK5QListIP11QPushButtonE8iteratormiIiEENSt9enable_ifIX13is_integral_vIT_EES3_E4typeES6_
FN:160,160,_ZNK5QListIP4CardE8iteratormiIiEENSt9enable_ifIX13is_integral_vIT_EES3_E4typeES6_
FN:160,160,_ZNK5QListIP6PlayerE8iteratormiIiEENSt9enable_ifIX13is_integral_vIT_EES3_E4typeES6_
FN:160,160,_ZNK5QListIP6QFrameE8iteratormiIiEENSt9enable_ifIX13is_integral_vIT_EES3_E4typeES6_
FN:160,160,_ZNK5QListIP6QLabelE8iteratormiIiEENSt9enable_ifIX13is_integral_vIT_EES3_E4typeES6_
FN:160,160,_ZNK5QListISt4pairI7QStringiEE8iteratormiIiEENSt9enable_ifIX13is_integral_vIT_EES4_E4typeES7_
FN:160,160,_ZNK5QListIiE8iteratormiIiEENSt9enable_ifIX13is_integral_vIT_EES1_E4typeES4_
FN:194,194,_ZN5QListIP4CardE14const_iteratorC2EPKS1_
FN:194,194,_ZN5QListIP6PlayerE14const_iteratorC2EPKS1_
FN:196,196,_ZN5QListIP4CardE14const_iteratorC2ENS2_8iteratorE
FN:197,197,_ZNK5QListIP4CardE14const_iteratordeEv
FN:197,197,_ZNK5QListIP6PlayerE14const_iteratordeEv
FN:200,200,_ZNK5QListIP4CardE14const_iteratoreqES3_
FN:200,200,_ZNK5QListIP6PlayerE14const_iteratoreqES3_
FN:201,201,_ZNK5QListIP4CardE14const_iteratorneES3_
FN:201,201,_ZNK5QListIP6PlayerE14const_iteratorneES3_
FN:214,214,_ZN5QListIP4CardE14const_iteratorppEv
FN:214,214,_ZN5QListIP6PlayerE14const_iteratorppEv
FN:218,218,_ZNK5QListIP4CardE14const_iteratormiES3_
FN:218,218,_ZNK5QListIP6PlayerE14const_iteratormiES3_
FN:230,230,_ZNK5QListIP4CardE14const_iteratorplIiEENSt9enable_ifIX13is_integral_vIT_EES3_E4typeES6_
FN:230,230,_ZNK5QListIP4CardE14const_iteratorplIxEENSt9enable_ifIX13is_integral_vIT_EES3_E4typeES6_
FN:230,230,_ZNK5QListIP6PlayerE14const_iteratorplIxEENSt9enable_ifIX13is_integral_vIT_EES3_E4typeES6_
FN:232,232,_ZNK5QListIP4CardE14const_iteratormiIiEENSt9enable_ifIX13is_integral_vIT_EES3_E4typeES6_
FN:232,232,_ZNK5QListIP6PlayerE14const_iteratormiIiEENSt9enable_ifIX13is_integral_vIT_EES3_E4typeES6_
FN:262,262,_ZN5QListI7QStringEC2Ev
FN:262,262,_ZN5QListIP11QPushButtonEC2Ev
FN:262,262,_ZN5QListIP4CardEC2Ev
FN:262,262,_ZN5QListIP6PlayerEC2Ev
FN:262,262,_ZN5QListIP6QFrameEC2Ev
FN:262,262,_ZN5QListIP6QLabelEC2Ev
FN:262,262,_ZN5QListIiEC2Ev
FN:263,268,_ZN5QListIP4CardEC2Ex
FN:263,268,_ZN5QListISt4pairI7QStringiEEC2Ex
FN:263,268,_ZN5QListIiEC2Ex
FN:276,281,_ZN5QListIP4CardEC2ESt16initializer_listIS1_E
FN:322,331,_ZNK5QListIP4CardEeqIS1_EENSt9enable_ifIX13conjunction_vISt11disjunctionIJSt10is_base_ofIS2_T_EN11QTypeTraits18has_operator_equalIS7_EEEEEEbE4typeERKS2_
FN:322,331,_ZNK5QListIP6PlayerEeqIS1_EENSt9enable_ifIX13conjunction_vISt11disjunctionIJSt10is_base_ofIS2_T_EN11QTypeTraits18has_operator_equalIS7_EEEEEEbE4typeERKS2_
FN:33,33,_ZNK23QListSpecialMethodsBaseI7QStringE4selfEv
FN:33,33,_ZNK23QListSpecialMethodsBaseIP4CardE4selfEv
FN:33,33,_ZNK23QListSpecialMethodsBaseIP6PlayerE4selfEv
FN:339,347,_ZNK5QListIP4CardEltIS1_EENSt9enable_ifIX13conjunction_vISt11disjunctionIJSt10is_base_ofIS2_T_EN11QTypeTraits22has_operator_less_thanIS7_EEEEEEbE4typeERKS2_
FN:339,347,_ZNK5QListIP6PlayerEltIS1_EENSt9enable_ifIX13conjunction_vISt11disjunctionIJSt10is_base_ofIS2_T_EN11QTypeTraits22has_operator_less_thanIS7_EEEEEEbE4typeERKS2_
FN:378,378,_ZNK5QListI7QStringE4sizeEv
FN:378,378,_ZNK5QListIP11QPushButtonE4sizeEv
FN:378,378,_ZNK5QListIP4CardE4sizeEv
FN:378,378,_ZNK5QListIP6PlayerE4sizeEv
FN:378,378,_ZNK5QListISt4pairI7QStringiEE4sizeEv
FN:378,378,_ZNK5QListIiE4sizeEv
FN:382,382,_ZNK5QListIP4CardE7isEmptyEv
FN:401,401,_ZN5QListI7QStringE6detachEv
FN:401,401,_ZN5QListIP11QPushButtonE6detachEv
FN:401,401,_ZN5QListIP4CardE6detachEv
FN:401,401,_ZN5QListIP6PlayerE6detachEv
FN:401,401,_ZN5QListIP6QFrameE6detachEv
FN:401,401,_ZN5QListIP6QLabelE6detachEv
FN:401,401,_ZN5QListISt4pairI7QStringiEE6detachEv
FN:401,401,_ZN5QListIiE6detachEv
FN:406,406,_ZN5QListI7QStringE4dataEv
FN:406,406,_ZN5QListIP11QPushButtonE4dataEv
FN:406,406,_ZN5QListIP4CardE4dataEv
FN:406,406,_ZN5QListIP6PlayerE4dataEv
FN:406,406,_ZN5QListIP6QFrameE4dataEv
FN:406,406,_ZN5QListIP6QLabelE4dataEv
FN:406,406,_ZN5QListISt4pairI7QStringiEE4dataEv
FN:406,406,_ZN5QListIiE4dataEv
FN:407,407,_ZNK5QListIP4CardE4dataEv
FN:407,407,_ZNK5QListIP6PlayerE4dataEv
FN:407,407,_ZNK5QListIiE4dataEv
FN:409,419,_ZN5QListIP4CardE5clearEv
FN:409,419,_ZN5QListIP6PlayerE5clearEv
FN:421,425,_ZNK5QListIP4CardE2atEx
FN:421,425,_ZNK5QListIP6PlayerE2atEx
FN:421,425,_ZNK5QListIiE2atEx
FN:426,431,_ZN5QListI7QStringEixEx
FN:426,431,_ZN5QListIP11QPushButtonEixEx
FN:426,431,_ZN5QListIP4CardEixEx
FN:426,431,_ZN5QListIP6PlayerEixEx
FN:426,431,_ZN5QListIP6QFrameEixEx
FN:426,431,_ZN5QListIP6QLabelEixEx
FN:426,431,_ZN5QListISt4pairI7QStringiEEixEx
FN:426,431,_ZN5QListIiEixEx
FN:432,432,_ZNK5QListIP4CardEixEx
FN:432,432,_ZNK5QListIiEixEx
FN:433,433,_ZN5QListI7QStringE6appendERKS0_
FN:433,433,_ZN5QListIP11QPushButtonE6appendES1_
FN:433,433,_ZN5QListIP4CardE6appendES1_
FN:433,433,_ZN5QListIP6PlayerE6appendES1_
FN:433,433,_ZN5QListIP6QFrameE6appendES1_
FN:433,433,_ZN5QListIP6QLabelE6appendES1_
FN:433,433,_ZN5QListISt4pairI7QStringiEE6appendERKS2_
FN:433,433,_ZN5QListIiE6appendEi
FN:443,446,_ZN5QListIP4CardE6appendERKS2_
FN:529,529,_ZN5QListIP4CardE8takeLastEv
FN:552,552,_ZN5QListIP4CardE8removeAtEx
FN:560,563,_ZN5QListIP4CardE9removeOneIS1_EEbRKT_
FN:587,587,_ZN5QListI7QStringE5beginEv
FN:587,587,_ZN5QListIP4CardE5beginEv
FN:587,587,_ZN5QListIP6PlayerE5beginEv
FN:587,587,_ZN5QListISt4pairI7QStringiEE5beginEv
FN:587,587,_ZN5QListIiE5beginEv
FN:588,588,_ZN5QListI7QStringE3endEv
FN:588,588,_ZN5QListIP11QPushButtonE3endEv
FN:588,588,_ZN5QListIP4CardE3endEv
FN:588,588,_ZN5QListIP6PlayerE3endEv
FN:588,588,_ZN5QListIP6QFrameE3endEv
FN:588,588,_ZN5QListIP6QLabelE3endEv
FN:588,588,_ZN5QListISt4pairI7QStringiEE3endEv
FN:588,588,_ZN5QListIiE3endEv
FN:590,590,_ZNK5QListIP4CardE5beginEv
FN:590,590,_ZNK5QListIP6PlayerE5beginEv
FN:591,591,_ZNK5QListIP4CardE3endEv
FN:591,591,_ZNK5QListIP6PlayerE3endEv
FN:592,592,_ZNK5QListIP4CardE6cbeginEv
FN:593,593,_ZNK5QListIP4CardE4cendEv
FN:594,594,_ZNK5QListIP4CardE10constBeginEv
FN:595,595,_ZNK5QListIP4CardE8constEndEv
FN:604,604,_ZN5QListIP4CardE5eraseENS2_14const_iteratorE
FN:610,610,_ZN5QListIP11QPushButtonE4lastEv
FN:610,610,_ZN5QListIP4CardE4lastEv
FN:610,610,_ZN5QListIP6PlayerE4lastEv
FN:610,610,_ZN5QListIiE4lastEv
FN:611,611,_ZNK5QListIP4CardE4lastEv
FN:651,651,_ZN5QListI7QStringE9push_backERKS0_
FN:651,651,_ZN5QListIP11QPushButtonE9push_backES1_
FN:651,651,_ZN5QListIP4CardE9push_backES1_
FN:651,651,_ZN5QListIP6PlayerE9push_backES1_
FN:651,651,_ZN5QListIP6QFrameE9push_backES1_
FN:651,651,_ZN5QListIP6QLabelE9push_backES1_
FN:651,651,_ZN5QListISt4pairI7QStringiEE9push_backERKS2_
FN:651,651,_ZN5QListIiE9push_backEi
FN:655,655,_ZN5QListIP4CardE8pop_backEv
FN:655,655,_ZN5QListIiE8pop_backEv
FN:661,662,_ZNK5QListIP4CardE5emptyEv
FN:665,665,_ZN5QListIP4CardE4backEv
FN:665,665,_ZN5QListIP6PlayerE4backEv
FN:665,665,_ZN5QListIiE4backEv
FN:666,666,_ZNK5QListIP4CardE4backEv
FN:766,776,_ZN5QListIP4CardE6removeExx
FN:787,792,_ZN5QListIP4CardE10removeLastEv
FN:787,792,_ZN5QListIiE10removeLastEv
FN:802,805,_ZN5QListIP4CardE6appendENS2_14const_iteratorES3_
FN:854,858,_ZN5QListI7QStringE11emplaceBackIJRKS0_EEERS0_DpOT_
FN:854,858,_ZN5QListIP11QPushButtonE11emplaceBackIJRS1_EEES4_DpOT_
FN:854,858,_ZN5QListIP4CardE11emplaceBackIJRS1_EEES4_DpOT_
FN:854,858,_ZN5QListIP6PlayerE11emplaceBackIJRS1_EEES4_DpOT_
FN:854,858,_ZN5QListIP6QFrameE11emplaceBackIJRS1_EEES4_DpOT_
FN:854,858,_ZN5QListIP6QLabelE11emplaceBackIJRS1_EEES4_DpOT_
FN:854,858,_ZN5QListISt4pairI7QStringiEE11emplaceBackIJRKS2_EEERS2_DpOT_
FN:854,858,_ZN5QListIiE11emplaceBackIJRiEEES2_DpOT_
FN:861,872,_ZN5QListIP4CardE5eraseENS2_14const_iteratorES3_
FN:899,911,_ZN9QtPrivate7indexOfIP4CardS2_EExRK5QListIT_ERKT0_x
FN:899,911,_ZN9QtPrivate7indexOfIP6PlayerS2_EExRK5QListIT_ERKT0_x
FN:934,937,_ZNK23QListSpecialMethodsBaseIP4CardE7indexOfIS1_EExRKT_x
FN:934,937,_ZNK23QListSpecialMethodsBaseIP6PlayerE7indexOfIS1_EExRKT_x
FNDA:0,_ZN5QListI7QStringE8iteratorC2EPS0_
FNDA:0,_ZN5QListIP11QPushButtonE8iteratorC2EPS1_
FNDA:5245,_ZN5QListIP4CardE8iteratorC2EPS1_
FNDA:22,_ZN5QListIP6PlayerE8iteratorC2EPS1_
FNDA:0,_ZN5QListIP6QFrameE8iteratorC2EPS1_
FNDA:0,_ZN5QListIP6QLabelE8iteratorC2EPS1_
FNDA:0,_ZN5QListISt4pairI7QStringiEE8iteratorC2EPS2_
FNDA:10,_ZN5QListIiE8iteratorC2EPi
FNDA:0,_ZNK5QListI7QStringE8iteratordeEv
FNDA:0,_ZNK5QListIP11QPushButtonE8iteratordeEv
FNDA:4079,_ZNK5QListIP4CardE8iteratordeEv
FNDA:32,_ZNK5QListIP6PlayerE8iteratordeEv
FNDA:0,_ZNK5QListIP6QFrameE8iteratordeEv
FNDA:0,_ZNK5QListIP6QLabelE8iteratordeEv
FNDA:0,_ZNK5QListISt4pairI7QStringiEE8iteratordeEv
FNDA:5,_ZNK5QListIiE8iteratordeEv
FNDA:2,_ZNK5QListIP4CardE8iteratoreqES3_
FNDA:0,_ZNK5QListIP6PlayerE8iteratoreqES3_
FNDA:0,_ZNK5QListISt4pairI7QStringiEE8iteratoreqES4_
FNDA:0,_ZNK5QListI7QStringE8iteratorneES2_
FNDA:1510,_ZNK5QListIP4CardE8iteratorneES3_
FNDA:35,_ZNK5QListIP6PlayerE8iteratorneES3_
FNDA:0,_ZNK5QListISt4pairI7QStringiEE8iteratorneES4_
FNDA:0,_ZNK5QListIiE8iteratorneES1_
FNDA:0,_ZNK5QListIP6PlayerE8iteratorltES3_
FNDA:0,_ZNK5QListISt4pairI7QStringiEE8iteratorltES4_
FNDA:0,_ZN5QListI7QStringE8iteratorppEv
FNDA:1432,_ZN5QListIP4CardE8iteratorppEv
FNDA:28,_ZN5QListIP6PlayerE8iteratorppEv
FNDA:0,_ZN5QListISt4pairI7QStringiEE8iteratorppEv
FNDA:0,_ZN5QListIiE8iteratorppEv
FNDA:107,_ZN5QListIP4CardE8iteratorppEi
FNDA:70,_ZN5QListIP4CardE8iteratormmEv
FNDA:0,_ZN5QListIP6PlayerE8iteratormmEv
FNDA:0,_ZN5QListISt4pairI7QStringiEE8iteratormmEv
FNDA:70,_ZN5QListIP4CardE8iteratormmEi
FNDA:55,_ZNK5QListIP4CardE8iteratormiES3_
FNDA:0,_ZNK5QListIP6PlayerE8iteratormiES3_
FNDA:0,_ZNK5QListISt4pairI7QStringiEE8iteratormiES4_
FNDA:2,_ZNK5QListIP4CardE8iteratorplIiEENSt9enable_ifIX13is_integral_vIT_EES3_E4typeES6_
FNDA:7,_ZNK5QListIP4CardE8iteratorplIxEENSt9enable_ifIX13is_integral_vIT_EES3_E4typeES6_
FNDA:107,_ZNK5QListIP4CardE8iteratorplIyEENSt9enable_ifIX13is_integral_vIT_EES3_E4typeES6_
FNDA:0,_ZNK5QListIP6PlayerE8iteratorplIiEENSt9enable_ifIX13is_integral_vIT_EES3_E4typeES6_
FNDA:0,_ZNK5QListIP6PlayerE8iteratorplIxEENSt9enable_ifIX13is_integral_vIT_EES3_E4typeES6_
FNDA:0,_ZNK5QListISt4pairI7QStringiEE8iteratorplIiEENSt9enable_ifIX13is_integral_vIT_EES4_E4typeES7_
FNDA:0,_ZNK5QListISt4pairI7QStringiEE8iteratorplIxEENSt9enable_ifIX13is_integral_vIT_EES4_E4typeES7_
FNDA:0,_ZNK5QListI7QStringE8iteratormiIiEENSt9enable_ifIX13is_integral_vIT_EES2_E4typeES5_
FNDA:0,_ZNK5QListIP11QPushButtonE8iteratormiIiEENSt9enable_ifIX13is_integral_vIT_EES3_E4typeES6_
FNDA:2464,_ZNK5QListIP4CardE8iteratormiIiEENSt9enable_ifIX13is_integral_vIT_EES3_E4typeES6_
FNDA:4,_ZNK5QListIP6PlayerE8iteratormiIiEENSt9enable_ifIX13is_integral_vIT_EES3_E4typeES6_
FNDA:0,_ZNK5QListIP6QFrameE8iteratormiIiEENSt9enable_ifIX13is_integral_vIT_EES3_E4typeES6_
FNDA:0,_ZNK5QListIP6QLabelE8iteratormiIiEENSt9enable_ifIX13is_integral_vIT_EES3_E4typeES6_
FNDA:0,_ZNK5QListISt4pairI7QStringiEE8iteratormiIiEENSt9enable_ifIX13is_integral_vIT_EES4_E4typeES7_
FNDA:5,_ZNK5QListIiE8iteratormiIiEENSt9enable_ifIX13is_integral_vIT_EES1_E4typeES4_
FNDA:84,_ZN5QListIP4CardE14const_iteratorC2EPKS1_
FNDA:0,_ZN5QListIP6PlayerE14const_iteratorC2EPKS1_
FNDA:6,_ZN5QListIP4CardE14const_iteratorC2ENS2_8iteratorE
FNDA:5,_ZNK5QListIP4CardE14const_iteratordeEv
FNDA:0,_ZNK5QListIP6PlayerE14const_iteratordeEv
FNDA:6,_ZNK5QListIP4CardE14const_iteratoreqES3_
FNDA:0,_ZNK5QListIP6PlayerE14const_iteratoreqES3_
FNDA:0,_ZNK5QListIP4CardE14const_iteratorneES3_
FNDA:0,_ZNK5QListIP6PlayerE14const_iteratorneES3_
FNDA:0,_ZN5QListIP4CardE14const_iteratorppEv
FNDA:0,_ZN5QListIP6PlayerE14const_iteratorppEv
FNDA:16,_ZNK5QListIP4CardE14const_iteratormiES3_
FNDA:0,_ZNK5QListIP6PlayerE14const_iteratormiES3_
FNDA:7,_ZNK5QListIP4CardE14const_iteratorplIiEENSt9enable_ifIX13is_integral_vIT_EES3_E4typeES6_
FNDA:0,_ZNK5QListIP4CardE14const_iteratorplIxEENSt9enable_ifIX13is_integral_vIT_EES3_E4typeES6_
FNDA:0,_ZNK5QListIP6PlayerE14const_iteratorplIxEENSt9enable_ifIX13is_integral_vIT_EES3_E4typeES6_
FNDA:4,_ZNK5QListIP4CardE14const_iteratormiIiEENSt9enable_ifIX13is_integral_vIT_EES3_E4typeES6_
FNDA:0,_ZNK5QListIP6PlayerE14const_iteratormiIiEENSt9enable_ifIX13is_integral_vIT_EES3_E4typeES6_
FNDA:0,_ZN5QListI7QStringEC2Ev
FNDA:0,_ZN5QListIP11QPushButtonEC2Ev
FNDA:69,_ZN5QListIP4CardEC2Ev
FNDA:2,_ZN5QListIP6PlayerEC2Ev
FNDA:0,_ZN5QListIP6QFrameEC2Ev
FNDA:0,_ZN5QListIP6QLabelEC2Ev
FNDA:0,_ZN5QListIiEC2Ev
FNDA:3,_ZN5QListIP4CardEC2Ex
FNDA:0,_ZN5QListISt4pairI7QStringiEEC2Ex
FNDA:1,_ZN5QListIiEC2Ex
FNDA:17,_ZN5QListIP4CardEC2ESt16initializer_listIS1_E
FNDA:5,_ZNK5QListIP4CardEeqIS1_EENSt9enable_ifIX13conjunction_vISt11disjunctionIJSt10is_base_ofIS2_T_EN11QTypeTraits18has_operator_equalIS7_EEEEEEbE4typeERKS2_
FNDA:0,_ZNK5QListIP6PlayerEeqIS1_EENSt9enable_ifIX13conjunction_vISt11disjunctionIJSt10is_base_ofIS2_T_EN11QTypeTraits18has_operator_equalIS7_EEEEEEbE4typeERKS2_
FNDA:0,_ZNK23QListSpecialMethodsBaseI7QStringE4selfEv
FNDA:0,_ZNK23QListSpecialMethodsBaseIP4CardE4selfEv
FNDA:0,_ZNK23QListSpecialMethodsBaseIP6PlayerE4selfEv
FNDA:0,_ZNK5QListIP4CardEltIS1_EENSt9enable_ifIX13conjunction_vISt11disjunctionIJSt10is_base_ofIS2_T_EN11QTypeTraits22has_operator_less_thanIS7_EEEEEEbE4typeERKS2_
FNDA:0,_ZNK5QListIP6PlayerEltIS1_EENSt9enable_ifIX13conjunction_vISt11disjunctionIJSt10is_base_ofIS2_T_EN11QTypeTraits22has_operator_less_thanIS7_EEEEEEbE4typeERKS2_
FNDA:0,_ZNK5QListI7QStringE4sizeEv
FNDA:0,_ZNK5QListIP11QPushButtonE4sizeEv
FNDA:711,_ZNK5QListIP4CardE4sizeEv
FNDA:0,_ZNK5QListIP6PlayerE4sizeEv
FNDA:0,_ZNK5QListISt4pairI7QStringiEE4sizeEv
FNDA:13,_ZNK5QListIiE4sizeEv
FNDA:0,_ZNK5QListIP4CardE7isEmptyEv
FNDA:0,_ZN5QListI7QStringE6detachEv
FNDA:0,_ZN5QListIP11QPushButtonE6detachEv
FNDA:2779,_ZN5QListIP4CardE6detachEv
FNDA:18,_ZN5QListIP6PlayerE6detachEv
FNDA:0,_ZN5QListIP6QFrameE6detachEv
FNDA:0,_ZN5QListIP6QLabelE6detachEv
FNDA:0,_ZN5QListISt4pairI7QStringiEE6detachEv
FNDA:113,_ZN5QListIiE6detachEv
FNDA:0,_ZN5QListI7QStringE4dataEv
FNDA:0,_ZN5QListIP11QPushButtonE4dataEv
FNDA:114,_ZN5QListIP4CardE4dataEv
FNDA:0,_ZN5QListIP6PlayerE4dataEv
FNDA:0,_ZN5QListIP6QFrameE4dataEv
FNDA:0,_ZN5QListIP6QLabelE4dataEv
FNDA:0,_ZN5QListISt4pairI7QStringiEE4dataEv
FNDA:108,_ZN5QListIiE4dataEv
FNDA:17,_ZNK5QListIP4CardE4dataEv
FNDA:0,_ZNK5QListIP6PlayerE4dataEv
FNDA:5,_ZNK5QListIiE4dataEv
FNDA:25,_ZN5QListIP4CardE5clearEv
FNDA:0,_ZN5QListIP6PlayerE5clearEv
FNDA:9,_ZNK5QListIP4CardE2atEx
FNDA:0,_ZNK5QListIP6PlayerE2atEx
FNDA:5,_ZNK5QListIiE2atEx
FNDA:0,_ZN5QListI7QStringEixEx
FNDA:0,_ZN5QListIP11QPushButtonEixEx
FNDA:114,_ZN5QListIP4CardEixEx
FNDA:0,_ZN5QListIP6PlayerEixEx
FNDA:0,_ZN5QListIP6QFrameEixEx
FNDA:0,_ZN5QListIP6QLabelEixEx
FNDA:0,_ZN5QListISt4pairI7QStringiEEixEx
FNDA:108,_ZN5QListIiEixEx
FNDA:9,_ZNK5QListIP4CardEixEx
FNDA:5,_ZNK5QListIiEixEx
FNDA:0,_ZN5QListI7QStringE6appendERKS0_
FNDA:0,_ZN5QListIP11QPushButtonE6appendES1_
FNDA:2101,_ZN5QListIP4CardE6appendES1_
FNDA:4,_ZN5QListIP6PlayerE6appendES1_
FNDA:0,_ZN5QListIP6QFrameE6appendES1_
FNDA:0,_ZN5QListIP6QLabelE6appendES1_
FNDA:0,_ZN5QListISt4pairI7QStringiEE6appendERKS2_
FNDA:5,_ZN5QListIiE6appendEi
FNDA:25,_ZN5QListIP4CardE6appendERKS2_
FNDA:2,_ZN5QListIP4CardE8takeLastEv
FNDA:0,_ZN5QListIP4CardE8removeAtEx
FNDA:1,_ZN5QListIP4CardE9removeOneIS1_EEbRKT_
FNDA:0,_ZN5QListI7QStringE5beginEv
FNDA:139,_ZN5QListIP4CardE5beginEv
FNDA:7,_ZN5QListIP6PlayerE5beginEv
FNDA:0,_ZN5QListISt4pairI7QStringiEE5beginEv
FNDA:0,_ZN5QListIiE5beginEv
FNDA:0,_ZN5QListI7QStringE3endEv
FNDA:0,_ZN5QListIP11QPushButtonE3endEv
FNDA:2526,_ZN5QListIP4CardE3endEv
FNDA:11,_ZN5QListIP6PlayerE3endEv
FNDA:0,_ZN5QListIP6QFrameE3endEv
FNDA:0,_ZN5QListIP6QLabelE3endEv
FNDA:0,_ZN5QListISt4pairI7QStringiEE3endEv
FNDA:5,_ZN5QListIiE3endEv
FNDA:10,_ZNK5QListIP4CardE5beginEv
FNDA:0,_ZNK5QListIP6PlayerE5beginEv
FNDA:4,_ZNK5QListIP4CardE3endEv
FNDA:0,_ZNK5QListIP6PlayerE3endEv
FNDA:1,_ZNK5QListIP4CardE6cbeginEv
FNDA:1,_ZNK5QListIP4CardE4cendEv
FNDA:32,_ZNK5QListIP4CardE10constBeginEv
FNDA:25,_ZNK5QListIP4CardE8constEndEv
FNDA:7,_ZN5QListIP4CardE5eraseENS2_14const_iteratorE
FNDA:0,_ZN5QListIP11QPushButtonE4lastEv
FNDA:357,_ZN5QListIP4CardE4lastEv
FNDA:0,_ZN5QListIP6PlayerE4lastEv
FNDA:0,_ZN5QListIiE4lastEv
FNDA:4,_ZNK5QListIP4CardE4lastEv
FNDA:0,_ZN5QListI7QStringE9push_backERKS0_
FNDA:0,_ZN5QListIP11QPushButtonE9push_backES1_
FNDA:2100,_ZN5QListIP4CardE9push_backES1_
FNDA:4,_ZN5QListIP6PlayerE9push_backES1_
FNDA:0,_ZN5QListIP6QFrameE9push_backES1_
FNDA:0,_ZN5QListIP6QLabelE9push_backES1_
FNDA:0,_ZN5QListISt4pairI7QStringiEE9push_backERKS2_
FNDA:5,_ZN5QListIiE9push_backEi
FNDA:356,_ZN5QListIP4CardE8pop_backEv
FNDA:0,_ZN5QListIiE8pop_backEv
FNDA:2,_ZNK5QListIP4CardE5emptyEv
FNDA:355,_ZN5QListIP4CardE4backEv
FNDA:0,_ZN5QListIP6PlayerE4backEv
FNDA:0,_ZN5QListIiE4backEv
FNDA:4,_ZNK5QListIP4CardE4backEv
FNDA:7,_ZN5QListIP4CardE6removeExx
FNDA:356,_ZN5QListIP4CardE10removeLastEv
FNDA:0,_ZN5QListIiE10removeLastEv
FNDA:25,_ZN5QListIP4CardE6appendENS2_14const_iteratorES3_
FNDA:0,_ZN5QListI7QStringE11emplaceBackIJRKS0_EEERS0_DpOT_
FNDA:0,_ZN5QListIP11QPushButtonE11emplaceBackIJRS1_EEES4_DpOT_
FNDA:2101,_ZN5QListIP4CardE11emplaceBackIJRS1_EEES4_DpOT_
FNDA:4,_ZN5QListIP6PlayerE11emplaceBackIJRS1_EEES4_DpOT_
FNDA:0,_ZN5QListIP6QFrameE11emplaceBackIJRS1_EEES4_DpOT_
FNDA:0,_ZN5QListIP6QLabelE11emplaceBackIJRS1_EEES4_DpOT_
FNDA:0,_ZN5QListISt4pairI7QStringiEE11emplaceBackIJRKS2_EEERS2_DpOT_
FNDA:5,_ZN5QListIiE11emplaceBackIJRiEEES2_DpOT_
FNDA:7,_ZN5QListIP4CardE5eraseENS2_14const_iteratorES3_
FNDA:0,_ZN9QtPrivate7indexOfIP4CardS2_EExRK5QListIT_ERKT0_x
FNDA:0,_ZN9QtPrivate7indexOfIP6PlayerS2_EExRK5QListIT_ERKT0_x
FNDA:0,_ZNK23QListSpecialMethodsBaseIP4CardE7indexOfIS1_EExRKT_x
FNDA:0,_ZNK23QListSpecialMethodsBaseIP6PlayerE7indexOfIS1_EExRKT_x
FNF:202
FNH:84
DA:33,0
DA:123,5277
DA:125,4116
DA:128,2
DA:129,1545
DA:130,0
DA:142,1460
DA:143,107
DA:144,70
DA:145,70
DA:146,55
DA:158,116
DA:160,2473
DA:194,84
DA:196,6
DA:197,5
DA:200,6
DA:201,0
DA:214,0
DA:218,16
DA:230,7
DA:232,4
DA:262,71
DA:263,4
DA:264,4
DA:266,4
DA:267,3
DA:268,4
DA:276,17
DA:277,17
DA:279,17
DA:280,17
DA:281,17
DA:322,5
DA:324,5
DA:325,0
DA:326,5
DA:327,1
DA:330,4
DA:339,0
DA:345,0
DA:346,0
DA:378,724
DA:382,0
DA:401,2910
DA:406,222
DA:407,22
DA:409,25
DA:410,25
DA:411,19
DA:412,6
DA:414,0
DA:415,0
DA:417,6
DA:421,14
DA:424,14
DA:426,222
DA:430,222
DA:432,14
DA:433,2110
DA:443,25
DA:445,25
DA:446,25
DA:529,2
DA:552,0
DA:560,1
DA:562,1
DA:587,146
DA:588,2542
DA:590,10
DA:591,4
DA:592,1
DA:593,1
DA:594,32
DA:595,25
DA:604,7
DA:610,357
DA:611,4
DA:651,2109
DA:655,356
DA:661,2
DA:662,2
DA:665,355
DA:666,4
DA:766,7
DA:771,7
DA:772,0
DA:774,7
DA:775,7
DA:787,356
DA:790,356
DA:791,356
DA:792,356
DA:802,25
DA:804,25
DA:805,25
DA:854,2110
DA:856,2110
DA:857,2110
DA:861,7
DA:867,7
DA:868,7
DA:869,7
DA:871,7
DA:899,0
DA:901,0
DA:902,0
DA:903,0
DA:904,0
DA:905,0
DA:906,0
DA:907,0
DA:908,0
DA:910,0
DA:934,0
DA:936,0
LF:116
LH:91
end_of_record
TN:
SF:/home/marija/Qt/6.5.3/gcc_64/include/QtCore/qmetatype.h
FN:1003,1003,_ZN9QtPrivate17MetaObjectForTypeIN12QMediaPlayer11MediaStatusEvE5valueEv
FN:1004,1004,_ZN9QtPrivate17MetaObjectForTypeIN12QMediaPlayer11MediaStatusEvE18metaObjectFunctionEPKNS_18QMetaTypeInterfaceE
FN:1057,1060,_ZN9QtPrivate39SequentialContainerTransformationHelperIN12QMediaPlayer11MediaStatusELb0EE17registerConverterEv
FN:1062,1065,_ZN9QtPrivate39SequentialContainerTransformationHelperIN12QMediaPlayer11MediaStatusELb0EE19registerMutableViewEv
FN:1090,1093,_ZN9QtPrivate40AssociativeContainerTransformationHelperIN12QMediaPlayer11MediaStatusELb0EE17registerConverterEv
FN:1095,1098,_ZN9QtPrivate40AssociativeContainerTransformationHelperIN12QMediaPlayer11MediaStatusELb0EE19registerMutableViewEv
FN:1153,1156,_ZN9QtPrivate6IsPairIN12QMediaPlayer11MediaStatusEE17registerConverterEv
FN:1167,1167,_ZN9QtPrivate26MetaTypeSmartPointerHelperIN12QMediaPlayer11MediaStatusEvE17registerConverterEv
FN:1174,1174,_ZN9QtPrivate21MetaTypeQFutureHelperIN12QMediaPlayer11MediaStatusEE17registerConverterEv
FN:1219,1219,_ZN12QMetaTypeId2IN12QMediaPlayer11MediaStatusEE14qt_metatype_idEv
FN:1236,1237,_ZN9QtPrivate17QMetaTypeIdHelperIN12QMediaPlayer11MediaStatusELb1EE14qt_metatype_idEv
FN:1309,1335,_Z41qRegisterNormalizedMetaTypeImplementationIN12QMediaPlayer11MediaStatusEEiRK10QByteArray
FN:1348,1351,_Z27qRegisterNormalizedMetaTypeIN12QMediaPlayer11MediaStatusEEiRK10QByteArray
FN:1477,1490,_ZN18QMetaTypeIdQObjectIN12QMediaPlayer11MediaStatusELi16EE14qt_metatype_idEv
FN:2327,2328,_ZN9QtPrivate24QEqualityOperatorForTypeI5QListIP4CardELb1EE6equalsEPKNS_18QMetaTypeInterfaceEPKvSA_
FN:2327,2328,_ZN9QtPrivate24QEqualityOperatorForTypeI5QListIP6PlayerELb1EE6equalsEPKNS_18QMetaTypeInterfaceEPKvSA_
FN:2327,2328,_ZN9QtPrivate24QEqualityOperatorForTypeIN12QMediaPlayer11MediaStatusELb1EE6equalsEPKNS_18QMetaTypeInterfaceEPKvS8_
FN:2341,2342,_ZN9QtPrivate24QLessThanOperatorForTypeI5QListIP4CardELb1EE8lessThanEPKNS_18QMetaTypeInterfaceEPKvSA_
FN:2341,2342,_ZN9QtPrivate24QLessThanOperatorForTypeI5QListIP6PlayerELb1EE8lessThanEPKNS_18QMetaTypeInterfaceEPKvSA_
FN:2341,2342,_ZN9QtPrivate24QLessThanOperatorForTypeIN12QMediaPlayer11MediaStatusELb1EE8lessThanEPKNS_18QMetaTypeInterfaceEPKvS8_
FN:2354,2355,_ZN9QtPrivate27QDebugStreamOperatorForTypeI5QListIP4CardELb1EE11debugStreamEPKNS_18QMetaTypeInterfaceER6QDebugPKv
FN:2354,2355,_ZN9QtPrivate27QDebugStreamOperatorForTypeI5QListIP6PlayerELb1EE11debugStreamEPKNS_18QMetaTypeInterfaceER6QDebugPKv
FN:2354,2355,_ZN9QtPrivate27QDebugStreamOperatorForTypeIN12QMediaPlayer11MediaStatusELb1EE11debugStreamEPKNS_18QMetaTypeInterfaceER6QDebugPKv
FN:2367,2368,_ZN9QtPrivate26QDataStreamOperatorForTypeIN12QMediaPlayer11MediaStatusELb1EE13dataStreamOutEPKNS_18QMetaTypeInterfaceER11QDataStreamPKv
FN:2369,2370,_ZN9QtPrivate26QDataStreamOperatorForTypeIN12QMediaPlayer11MediaStatusELb1EE12dataStreamInEPKNS_18QMetaTypeInterfaceER11QDataStreamPv
FN:2404,2404,_ZZN9QtPrivate16QMetaTypeForTypeI10GameClientE13getDefaultCtrEvENKUlPKNS_18QMetaTypeInterfaceEPvE_clES5_S6_
FN:2404,2404,_ZZN9QtPrivate16QMetaTypeForTypeI10MainWindowE13getDefaultCtrEvENKUlPKNS_18QMetaTypeInterfaceEPvE_clES5_S6_
FN:2404,2404,_ZZN9QtPrivate16QMetaTypeForTypeI18InstructionsWidgetE13getDefaultCtrEvENKUlPKNS_18QMetaTypeInterfaceEPvE_clES5_S6_
FN:2404,2404,_ZZN9QtPrivate16QMetaTypeForTypeI4GameE13getDefaultCtrEvENKUlPKNS_18QMetaTypeInterfaceEPvE_clES5_S6_
FN:2404,2404,_ZZN9QtPrivate16QMetaTypeForTypeI5QListIP4CardEE13getDefaultCtrEvENKUlPKNS_18QMetaTypeInterfaceEPvE_clES8_S9_
FN:2404,2404,_ZZN9QtPrivate16QMetaTypeForTypeI5QListIP6PlayerEE13getDefaultCtrEvENKUlPKNS_18QMetaTypeInterfaceEPvE_clES8_S9_
FN:2404,2404,_ZZN9QtPrivate16QMetaTypeForTypeI6ClientE13getDefaultCtrEvENKUlPKNS_18QMetaTypeInterfaceEPvE_clES5_S6_
FN:2413,2413,_ZZN9QtPrivate16QMetaTypeForTypeI5QListIP4CardEE10getCopyCtrEvENKUlPKNS_18QMetaTypeInterfaceEPvPKvE_clES8_S9_SB_
FN:2413,2413,_ZZN9QtPrivate16QMetaTypeForTypeI5QListIP6PlayerEE10getCopyCtrEvENKUlPKNS_18QMetaTypeInterfaceEPvPKvE_clES8_S9_SB_
FN:2424,2424,_ZZN9QtPrivate16QMetaTypeForTypeI5QListIP4CardEE10getMoveCtrEvENKUlPKNS_18QMetaTypeInterfaceEPvS9_E_clES8_S9_S9_
FN:2424,2424,_ZZN9QtPrivate16QMetaTypeForTypeI5QListIP6PlayerEE10getMoveCtrEvENKUlPKNS_18QMetaTypeInterfaceEPvS9_E_clES8_S9_S9_
FN:2435,2435,_ZZN9QtPrivate16QMetaTypeForTypeI10GameClientE7getDtorEvENKUlPKNS_18QMetaTypeInterfaceEPvE_clES5_S6_
FN:2435,2435,_ZZN9QtPrivate16QMetaTypeForTypeI10MainWindowE7getDtorEvENKUlPKNS_18QMetaTypeInterfaceEPvE_clES5_S6_
FN:2435,2435,_ZZN9QtPrivate16QMetaTypeForTypeI18InstructionsWidgetE7getDtorEvENKUlPKNS_18QMetaTypeInterfaceEPvE_clES5_S6_
FN:2435,2435,_ZZN9QtPrivate16QMetaTypeForTypeI4GameE7getDtorEvENKUlPKNS_18QMetaTypeInterfaceEPvE_clES5_S6_
FN:2435,2435,_ZZN9QtPrivate16QMetaTypeForTypeI5LobbyE7getDtorEvENKUlPKNS_18QMetaTypeInterfaceEPvE_clES5_S6_
FN:2435,2435,_ZZN9QtPrivate16QMetaTypeForTypeI5QListIP4CardEE7getDtorEvENKUlPKNS_18QMetaTypeInterfaceEPvE_clES8_S9_
FN:2435,2435,_ZZN9QtPrivate16QMetaTypeForTypeI5QListIP6PlayerEE7getDtorEvENKUlPKNS_18QMetaTypeInterfaceEPvE_clES8_S9_
FN:2435,2435,_ZZN9QtPrivate16QMetaTypeForTypeI6ClientE7getDtorEvENKUlPKNS_18QMetaTypeInterfaceEPvE_clES5_S6_
FN:2435,2435,_ZZN9QtPrivate16QMetaTypeForTypeI7GameGUIE7getDtorEvENKUlPKNS_18QMetaTypeInterfaceEPvE_clES5_S6_
FN:2445,2445,_ZZN9QtPrivate16QMetaTypeForTypeIN12QMediaPlayer11MediaStatusEE17getLegacyRegisterEvENKUlvE_clEv
FN:2648,2651,_ZNK9QMetaType4nameEv
FN:440,440,_ZN9QMetaTypeC2Ev
FN:454,458,_ZNK9QMetaType2idEi
FN:760,769,_ZNK9QMetaType14registerHelperEv
FN:989,989,_ZN9QtPrivate17MetaObjectForTypeI10GameClientvE18metaObjectFunctionEPKNS_18QMetaTypeInterfaceE
FN:989,989,_ZN9QtPrivate17MetaObjectForTypeI10MainWindowvE18metaObjectFunctionEPKNS_18QMetaTypeInterfaceE
FN:989,989,_ZN9QtPrivate17MetaObjectForTypeI18InstructionsWidgetvE18metaObjectFunctionEPKNS_18QMetaTypeInterfaceE
FN:989,989,_ZN9QtPrivate17MetaObjectForTypeI4GamevE18metaObjectFunctionEPKNS_18QMetaTypeInterfaceE
FN:989,989,_ZN9QtPrivate17MetaObjectForTypeI5LobbyvE18metaObjectFunctionEPKNS_18QMetaTypeInterfaceE
FN:989,989,_ZN9QtPrivate17MetaObjectForTypeI6ClientvE18metaObjectFunctionEPKNS_18QMetaTypeInterfaceE
FN:989,989,_ZN9QtPrivate17MetaObjectForTypeI7GameGUIvE18metaObjectFunctionEPKNS_18QMetaTypeInterfaceE
FNDA:0,_ZN9QtPrivate17MetaObjectForTypeIN12QMediaPlayer11MediaStatusEvE5valueEv
FNDA:0,_ZN9QtPrivate17MetaObjectForTypeIN12QMediaPlayer11MediaStatusEvE18metaObjectFunctionEPKNS_18QMetaTypeInterfaceE
FNDA:0,_ZN9QtPrivate39SequentialContainerTransformationHelperIN12QMediaPlayer11MediaStatusELb0EE17registerConverterEv
FNDA:0,_ZN9QtPrivate39SequentialContainerTransformationHelperIN12QMediaPlayer11MediaStatusELb0EE19registerMutableViewEv
FNDA:0,_ZN9QtPrivate40AssociativeContainerTransformationHelperIN12QMediaPlayer11MediaStatusELb0EE17registerConverterEv
FNDA:0,_ZN9QtPrivate40AssociativeContainerTransformationHelperIN12QMediaPlayer11MediaStatusELb0EE19registerMutableViewEv
FNDA:0,_ZN9QtPrivate6IsPairIN12QMediaPlayer11MediaStatusEE17registerConverterEv
FNDA:0,_ZN9QtPrivate26MetaTypeSmartPointerHelperIN12QMediaPlayer11MediaStatusEvE17registerConverterEv
FNDA:0,_ZN9QtPrivate21MetaTypeQFutureHelperIN12QMediaPlayer11MediaStatusEE17registerConverterEv
FNDA:0,_ZN12QMetaTypeId2IN12QMediaPlayer11MediaStatusEE14qt_metatype_idEv
FNDA:0,_ZN9QtPrivate17QMetaTypeIdHelperIN12QMediaPlayer11MediaStatusELb1EE14qt_metatype_idEv
FNDA:0,_Z41qRegisterNormalizedMetaTypeImplementationIN12QMediaPlayer11MediaStatusEEiRK10QByteArray
FNDA:0,_Z27qRegisterNormalizedMetaTypeIN12QMediaPlayer11MediaStatusEEiRK10QByteArray
FNDA:0,_ZN18QMetaTypeIdQObjectIN12QMediaPlayer11MediaStatusELi16EE14qt_metatype_idEv
FNDA:0,_ZN9QtPrivate24QEqualityOperatorForTypeI5QListIP4CardELb1EE6equalsEPKNS_18QMetaTypeInterfaceEPKvSA_
FNDA:0,_ZN9QtPrivate24QEqualityOperatorForTypeI5QListIP6PlayerELb1EE6equalsEPKNS_18QMetaTypeInterfaceEPKvSA_
FNDA:0,_ZN9QtPrivate24QEqualityOperatorForTypeIN12QMediaPlayer11MediaStatusELb1EE6equalsEPKNS_18QMetaTypeInterfaceEPKvS8_
FNDA:0,_ZN9QtPrivate24QLessThanOperatorForTypeI5QListIP4CardELb1EE8lessThanEPKNS_18QMetaTypeInterfaceEPKvSA_
FNDA:0,_ZN9QtPrivate24QLessThanOperatorForTypeI5QListIP6PlayerELb1EE8lessThanEPKNS_18QMetaTypeInterfaceEPKvSA_
FNDA:0,_ZN9QtPrivate24QLessThanOperatorForTypeIN12QMediaPlayer11MediaStatusELb1EE8lessThanEPKNS_18QMetaTypeInterfaceEPKvS8_
FNDA:0,_ZN9QtPrivate27QDebugStreamOperatorForTypeI5QListIP4CardELb1EE11debugStreamEPKNS_18QMetaTypeInterfaceER6QDebugPKv
FNDA:0,_ZN9QtPrivate27QDebugStreamOperatorForTypeI5QListIP6PlayerELb1EE11debugStreamEPKNS_18QMetaTypeInterfaceER6QDebugPKv
FNDA:0,_ZN9QtPrivate27QDebugStreamOperatorForTypeIN12QMediaPlayer11MediaStatusELb1EE11debugStreamEPKNS_18QMetaTypeInterfaceER6QDebugPKv
FNDA:0,_ZN9QtPrivate26QDataStreamOperatorForTypeIN12QMediaPlayer11MediaStatusELb1EE13dataStreamOutEPKNS_18QMetaTypeInterfaceER11QDataStreamPKv
FNDA:0,_ZN9QtPrivate26QDataStreamOperatorForTypeIN12QMediaPlayer11MediaStatusELb1EE12dataStreamInEPKNS_18QMetaTypeInterfaceER11QDataStreamPv
FNDA:0,_ZZN9QtPrivate16QMetaTypeForTypeI10GameClientE13getDefaultCtrEvENKUlPKNS_18QMetaTypeInterfaceEPvE_clES5_S6_
FNDA:0,_ZZN9QtPrivate16QMetaTypeForTypeI10MainWindowE13getDefaultCtrEvENKUlPKNS_18QMetaTypeInterfaceEPvE_clES5_S6_
FNDA:0,_ZZN9QtPrivate16QMetaTypeForTypeI18InstructionsWidgetE13getDefaultCtrEvENKUlPKNS_18QMetaTypeInterfaceEPvE_clES5_S6_
FNDA:0,_ZZN9QtPrivate16QMetaTypeForTypeI4GameE13getDefaultCtrEvENKUlPKNS_18QMetaTypeInterfaceEPvE_clES5_S6_
FNDA:0,_ZZN9QtPrivate16QMetaTypeForTypeI5QListIP4CardEE13getDefaultCtrEvENKUlPKNS_18QMetaTypeInterfaceEPvE_clES8_S9_
FNDA:0,_ZZN9QtPrivate16QMetaTypeForTypeI5QListIP6PlayerEE13getDefaultCtrEvENKUlPKNS_18QMetaTypeInterfaceEPvE_clES8_S9_
FNDA:0,_ZZN9QtPrivate16QMetaTypeForTypeI6ClientE13getDefaultCtrEvENKUlPKNS_18QMetaTypeInterfaceEPvE_clES5_S6_
FNDA:0,_ZZN9QtPrivate16QMetaTypeForTypeI5QListIP4CardEE10getCopyCtrEvENKUlPKNS_18QMetaTypeInterfaceEPvPKvE_clES8_S9_SB_
FNDA:0,_ZZN9QtPrivate16QMetaTypeForTypeI5QListIP6PlayerEE10getCopyCtrEvENKUlPKNS_18QMetaTypeInterfaceEPvPKvE_clES8_S9_SB_
FNDA:0,_ZZN9QtPrivate16QMetaTypeForTypeI5QListIP4CardEE10getMoveCtrEvENKUlPKNS_18QMetaTypeInterfaceEPvS9_E_clES8_S9_S9_
FNDA:0,_ZZN9QtPrivate16QMetaTypeForTypeI5QListIP6PlayerEE10getMoveCtrEvENKUlPKNS_18QMetaTypeInterfaceEPvS9_E_clES8_S9_S9_
FNDA:0,_ZZN9QtPrivate16QMetaTypeForTypeI10GameClientE7getDtorEvENKUlPKNS_18QMetaTypeInterfaceEPvE_clES5_S6_
FNDA:0,_ZZN9QtPrivate16QMetaTypeForTypeI10MainWindowE7getDtorEvENKUlPKNS_18QMetaTypeInterfaceEPvE_clES5_S6_
FNDA:0,_ZZN9QtPrivate16QMetaTypeForTypeI18InstructionsWidgetE7getDtorEvENKUlPKNS_18QMetaTypeInterfaceEPvE_clES5_S6_
FNDA:0,_ZZN9QtPrivate16QMetaTypeForTypeI4GameE7getDtorEvENKUlPKNS_18QMetaTypeInterfaceEPvE_clES5_S6_
FNDA:0,_ZZN9QtPrivate16QMetaTypeForTypeI5LobbyE7getDtorEvENKUlPKNS_18QMetaTypeInterfaceEPvE_clES5_S6_
FNDA:0,_ZZN9QtPrivate16QMetaTypeForTypeI5QListIP4CardEE7getDtorEvENKUlPKNS_18QMetaTypeInterfaceEPvE_clES8_S9_
FNDA:0,_ZZN9QtPrivate16QMetaTypeForTypeI5QListIP6PlayerEE7getDtorEvENKUlPKNS_18QMetaTypeInterfaceEPvE_clES8_S9_
FNDA:0,_ZZN9QtPrivate16QMetaTypeForTypeI6ClientE7getDtorEvENKUlPKNS_18QMetaTypeInterfaceEPvE_clES5_S6_
FNDA:0,_ZZN9QtPrivate16QMetaTypeForTypeI7GameGUIE7getDtorEvENKUlPKNS_18QMetaTypeInterfaceEPvE_clES5_S6_
FNDA:0,_ZZN9QtPrivate16QMetaTypeForTypeIN12QMediaPlayer11MediaStatusEE17getLegacyRegisterEvENKUlvE_clEv
FNDA:0,_ZNK9QMetaType4nameEv
FNDA:0,_ZN9QMetaTypeC2Ev
FNDA:0,_ZNK9QMetaType2idEi
FNDA:0,_ZNK9QMetaType14registerHelperEv
FNDA:0,_ZN9QtPrivate17MetaObjectForTypeI10GameClientvE18metaObjectFunctionEPKNS_18QMetaTypeInterfaceE
FNDA:0,_ZN9QtPrivate17MetaObjectForTypeI10MainWindowvE18metaObjectFunctionEPKNS_18QMetaTypeInterfaceE
FNDA:0,_ZN9QtPrivate17MetaObjectForTypeI18InstructionsWidgetvE18metaObjectFunctionEPKNS_18QMetaTypeInterfaceE
FNDA:0,_ZN9QtPrivate17MetaObjectForTypeI4GamevE18metaObjectFunctionEPKNS_18QMetaTypeInterfaceE
FNDA:0,_ZN9QtPrivate17MetaObjectForTypeI5LobbyvE18metaObjectFunctionEPKNS_18QMetaTypeInterfaceE
FNDA:0,_ZN9QtPrivate17MetaObjectForTypeI6ClientvE18metaObjectFunctionEPKNS_18QMetaTypeInterfaceE
FNDA:0,_ZN9QtPrivate17MetaObjectForTypeI7GameGUIvE18metaObjectFunctionEPKNS_18QMetaTypeInterfaceE
FNF:57
FNH:0
DA:440,0
DA:454,0
DA:457,0
DA:760,0
DA:763,0
DA:764,0
DA:765,0
DA:766,0
DA:768,0
DA:989,0
DA:1003,0
DA:1004,0
DA:1057,0
DA:1059,0
DA:1062,0
DA:1064,0
DA:1090,0
DA:1092,0
DA:1095,0
DA:1097,0
DA:1153,0
DA:1155,0
DA:1167,0
DA:1174,0
DA:1219,0
DA:1236,0
DA:1237,0
DA:1309,0
DA:1318,0
DA:1319,0
DA:1321,0
DA:1322,0
DA:1323,0
DA:1324,0
DA:1325,0
DA:1326,0
DA:1328,0
DA:1331,0
DA:1332,0
DA:1334,0
DA:1348,0
DA:1350,0
DA:1477,0
DA:1480,0
DA:1481,0
DA:1482,0
DA:1483,0
DA:1484,0
DA:1485,0
DA:1486,0
DA:1487,0
DA:1488,0
DA:1489,0
DA:2327,0
DA:2328,0
DA:2341,0
DA:2342,0
DA:2354,0
DA:2355,0
DA:2367,0
DA:2368,0
DA:2369,0
DA:2370,0
DA:2404,0
DA:2413,0
DA:2414,0
DA:2424,0
DA:2425,0
DA:2435,0
DA:2436,0
DA:2445,0
DA:2648,0
DA:2650,0
LF:73
LH:0
end_of_record
TN:
SF:/home/marija/Qt/6.5.3/gcc_64/include/QtCore/qminmax.h
FN:42,42,_Z4qMaxIxERKT_S2_S2_
FN:58,64,_Z4qMaxIixEN11QTypeTraits6detail8PromotedIT_T0_NSt9enable_ifIXaaaaaaaaaaaaaa15is_arithmetic_vIS3_E15is_arithmetic_vIS4_Eeq19is_floating_point_vIS3_E19is_floating_point_vIS4_Eeq11is_signed_vIS3_E11is_signed_vIS4_Ent9is_same_vIS3_bEnt9is_same_vIS4_bEnt9is_same_vIS3_cEnt9is_same_vIS4_cEEvE4typeEE4typeERKS3_RKS4_
FNDA:99,_Z4qMaxIxERKT_S2_S2_
FNDA:0,_Z4qMaxIixEN11QTypeTraits6detail8PromotedIT_T0_NSt9enable_ifIXaaaaaaaaaaaaaa15is_arithmetic_vIS3_E15is_arithmetic_vIS4_Eeq19is_floating_point_vIS3_E19is_floating_point_vIS4_Eeq11is_signed_vIS3_E11is_signed_vIS4_Ent9is_same_vIS3_bEnt9is_same_vIS4_bEnt9is_same_vIS3_cEnt9is_same_vIS4_cEEvE4typeEE4typeERKS3_RKS4_
FNF:2
FNH:1
DA:42,99
DA:58,0
DA:61,0
DA:62,0
DA:63,0
LF:5
LH:1
end_of_record
TN:
SF:/home/marija/Qt/6.5.3/gcc_64/include/QtCore/qnamespace.h
FN:248,248,_ZN2QtorENS_10WindowTypeES0_
FNDA:0,_ZN2QtorENS_10WindowTypeES0_
FNF:1
FNH:0
DA:248,0
LF:1
LH:0
end_of_record
TN:
SF:/home/marija/Qt/6.5.3/gcc_64/include/QtCore/qobject.h
FN:201,228,_ZN7QObject7connectIM12QMediaPlayerFvNS1_11MediaStatusEEMS1_FvvEEEN11QMetaObject10ConnectionEPKN9QtPrivate15FunctionPointerIT_E6ObjectESB_PKNSA_IT0_E6ObjectESG_N2Qt14ConnectionTypeE
FN:201,228,_ZN7QObject7connectIM12QMediaPlayerFvxEM10MainWindowFviEEEN11QMetaObject10ConnectionEPKN9QtPrivate15FunctionPointerIT_E6ObjectESB_PKNSA_IT0_E6ObjectESG_N2Qt14ConnectionTypeE
FN:201,228,_ZN7QObject7connectIM15QAbstractButtonFvbEM10MainWindowFvvEEEN11QMetaObject10ConnectionEPKN9QtPrivate15FunctionPointerIT_E6ObjectESB_PKNSA_IT0_E6ObjectESG_N2Qt14ConnectionTypeE
FN:201,228,_ZN7QObject7connectIM15QAbstractButtonFvbEM5LobbyFvvEEEN11QMetaObject10ConnectionEPKN9QtPrivate15FunctionPointerIT_E6ObjectESB_PKNSA_IT0_E6ObjectESG_N2Qt14ConnectionTypeE
FN:201,228,_ZN7QObject7connectIM15QAbstractButtonFvbEM7GameGUIFvvEEEN11QMetaObject10ConnectionEPKN9QtPrivate15FunctionPointerIT_E6ObjectESB_PKNSA_IT0_E6ObjectESG_N2Qt14ConnectionTypeE
FN:201,228,_ZN7QObject7connectIM15QAbstractSliderFviEM10MainWindowFviEEEN11QMetaObject10ConnectionEPKN9QtPrivate15FunctionPointerIT_E6ObjectESB_PKNSA_IT0_E6ObjectESG_N2Qt14ConnectionTypeE
FN:201,228,_ZN7QObject7connectIM4GameFv7QStringEM7GameGUIFvS2_EEEN11QMetaObject10ConnectionEPKN9QtPrivate15FunctionPointerIT_E6ObjectESC_PKNSB_IT0_E6ObjectESH_N2Qt14ConnectionTypeE
FN:201,228,_ZN7QObject7connectIM4GameFvP4CardEM7GameGUIFvS3_EEEN11QMetaObject10ConnectionEPKN9QtPrivate15FunctionPointerIT_E6ObjectESD_PKNSC_IT0_E6ObjectESI_N2Qt14ConnectionTypeE
FN:201,228,_ZN7QObject7connectIM4GameFvvEM7GameGUIFvvEEEN11QMetaObject10ConnectionEPKN9QtPrivate15FunctionPointerIT_E6ObjectESB_PKNSA_IT0_E6ObjectESG_N2Qt14ConnectionTypeE
FN:201,228,_ZN7QObject7connectIM6ClientFvvEM5LobbyFvvEEEN11QMetaObject10ConnectionEPKN9QtPrivate15FunctionPointerIT_E6ObjectESB_PKNSA_IT0_E6ObjectESG_N2Qt14ConnectionTypeE
FN:201,228,_ZN7QObject7connectIM6ClientFvvEM7QWidgetFbvEEEN11QMetaObject10ConnectionEPKN9QtPrivate15FunctionPointerIT_E6ObjectESB_PKNSA_IT0_E6ObjectESG_N2Qt14ConnectionTypeE
FN:201,228,_ZN7QObject7connectIM7QThreadFvNS1_14QPrivateSignalEEMS_FvvEEEN11QMetaObject10ConnectionEPKN9QtPrivate15FunctionPointerIT_E6ObjectESB_PKNSA_IT0_E6ObjectESG_N2Qt14ConnectionTypeE
FN:287,313,_ZN7QObject7connectIM15QAbstractButtonFvbEZN7GameGUI16renderCardInHandEiEUlvE_EENSt9enable_ifIXaaeqsrN9QtPrivate15FunctionPointerIT0_EE13ArgumentCountLin1Ent16is_convertible_vIS9_PKcEEN11QMetaObject10ConnectionEE4typeEPKNS8_IT_E6ObjectESH_PKS_S9_N2Qt14ConnectionTypeE
FN:287,313,_ZN7QObject7connectIM15QAbstractButtonFvbEZN7GameGUI25initZerosAndSevensButtonsEvEUlvE_EENSt9enable_ifIXaaeqsrN9QtPrivate15FunctionPointerIT0_EE13ArgumentCountLin1Ent16is_convertible_vIS9_PKcEEN11QMetaObject10ConnectionEE4typeEPKNS8_IT_E6ObjectESH_PKS_S9_N2Qt14ConnectionTypeE
FN:437,443,_Z12qobject_castIP11QHBoxLayoutET_P7QObject
FN:437,443,_Z12qobject_castIP11QPushButtonET_P7QObject
FNDA:0,_ZN7QObject7connectIM12QMediaPlayerFvNS1_11MediaStatusEEMS1_FvvEEEN11QMetaObject10ConnectionEPKN9QtPrivate15FunctionPointerIT_E6ObjectESB_PKNSA_IT0_E6ObjectESG_N2Qt14ConnectionTypeE
FNDA:0,_ZN7QObject7connectIM12QMediaPlayerFvxEM10MainWindowFviEEEN11QMetaObject10ConnectionEPKN9QtPrivate15FunctionPointerIT_E6ObjectESB_PKNSA_IT0_E6ObjectESG_N2Qt14ConnectionTypeE
FNDA:0,_ZN7QObject7connectIM15QAbstractButtonFvbEM10MainWindowFvvEEEN11QMetaObject10ConnectionEPKN9QtPrivate15FunctionPointerIT_E6ObjectESB_PKNSA_IT0_E6ObjectESG_N2Qt14ConnectionTypeE
FNDA:0,_ZN7QObject7connectIM15QAbstractButtonFvbEM5LobbyFvvEEEN11QMetaObject10ConnectionEPKN9QtPrivate15FunctionPointerIT_E6ObjectESB_PKNSA_IT0_E6ObjectESG_N2Qt14ConnectionTypeE
FNDA:0,_ZN7QObject7connectIM15QAbstractButtonFvbEM7GameGUIFvvEEEN11QMetaObject10ConnectionEPKN9QtPrivate15FunctionPointerIT_E6ObjectESB_PKNSA_IT0_E6ObjectESG_N2Qt14ConnectionTypeE
FNDA:0,_ZN7QObject7connectIM15QAbstractSliderFviEM10MainWindowFviEEEN11QMetaObject10ConnectionEPKN9QtPrivate15FunctionPointerIT_E6ObjectESB_PKNSA_IT0_E6ObjectESG_N2Qt14ConnectionTypeE
FNDA:0,_ZN7QObject7connectIM4GameFv7QStringEM7GameGUIFvS2_EEEN11QMetaObject10ConnectionEPKN9QtPrivate15FunctionPointerIT_E6ObjectESC_PKNSB_IT0_E6ObjectESH_N2Qt14ConnectionTypeE
FNDA:0,_ZN7QObject7connectIM4GameFvP4CardEM7GameGUIFvS3_EEEN11QMetaObject10ConnectionEPKN9QtPrivate15FunctionPointerIT_E6ObjectESD_PKNSC_IT0_E6ObjectESI_N2Qt14ConnectionTypeE
FNDA:0,_ZN7QObject7connectIM4GameFvvEM7GameGUIFvvEEEN11QMetaObject10ConnectionEPKN9QtPrivate15FunctionPointerIT_E6ObjectESB_PKNSA_IT0_E6ObjectESG_N2Qt14ConnectionTypeE
FNDA:0,_ZN7QObject7connectIM6ClientFvvEM5LobbyFvvEEEN11QMetaObject10ConnectionEPKN9QtPrivate15FunctionPointerIT_E6ObjectESB_PKNSA_IT0_E6ObjectESG_N2Qt14ConnectionTypeE
FNDA:0,_ZN7QObject7connectIM6ClientFvvEM7QWidgetFbvEEEN11QMetaObject10ConnectionEPKN9QtPrivate15FunctionPointerIT_E6ObjectESB_PKNSA_IT0_E6ObjectESG_N2Qt14ConnectionTypeE
FNDA:0,_ZN7QObject7connectIM7QThreadFvNS1_14QPrivateSignalEEMS_FvvEEEN11QMetaObject10ConnectionEPKN9QtPrivate15FunctionPointerIT_E6ObjectESB_PKNSA_IT0_E6ObjectESG_N2Qt14ConnectionTypeE
FNDA:0,_ZN7QObject7connectIM15QAbstractButtonFvbEZN7GameGUI16renderCardInHandEiEUlvE_EENSt9enable_ifIXaaeqsrN9QtPrivate15FunctionPointerIT0_EE13ArgumentCountLin1Ent16is_convertible_vIS9_PKcEEN11QMetaObject10ConnectionEE4typeEPKNS8_IT_E6ObjectESH_PKS_S9_N2Qt14ConnectionTypeE
FNDA:0,_ZN7QObject7connectIM15QAbstractButtonFvbEZN7GameGUI25initZerosAndSevensButtonsEvEUlvE_EENSt9enable_ifIXaaeqsrN9QtPrivate15FunctionPointerIT0_EE13ArgumentCountLin1Ent16is_convertible_vIS9_PKcEEN11QMetaObject10ConnectionEE4typeEPKNS8_IT_E6ObjectESH_PKS_S9_N2Qt14ConnectionTypeE
FNDA:0,_Z12qobject_castIP11QHBoxLayoutET_P7QObject
FNDA:0,_Z12qobject_castIP11QPushButtonET_P7QObject
FNF:16
FNH:0
DA:201,0
DA:219,0
DA:220,0
DA:221,0
DA:225,0
DA:227,0
DA:287,0
DA:291,0
DA:295,0
DA:304,0
DA:305,0
DA:306,0
DA:309,0
DA:311,0
DA:312,0
DA:437,0
DA:442,0
LF:17
LH:0
end_of_record
TN:
SF:/home/marija/Qt/6.5.3/gcc_64/include/QtCore/qobject_impl.h
FN:35,35,_ZN9QtPrivate15ConnectionTypesINS_4ListIJN7QThread14QPrivateSignalEEEELb0EE5typesEv
FN:35,35,_ZN9QtPrivate15ConnectionTypesINS_4ListIJP4CardEEELb0EE5typesEv
FN:37,37,_ZN9QtPrivate15ConnectionTypesINS_4ListIJEEELb1EE5typesEv
FN:39,39,_ZN9QtPrivate15ConnectionTypesINS_4ListIJ7QStringEEELb1EE5typesEv
FN:39,39,_ZN9QtPrivate15ConnectionTypesINS_4ListIJN12QMediaPlayer11MediaStatusEEEELb1EE5typesEv
FN:39,39,_ZN9QtPrivate15ConnectionTypesINS_4ListIJbEEELb1EE5typesEv
FN:39,39,_ZN9QtPrivate15ConnectionTypesINS_4ListIJiEEELb1EE5typesEv
FN:39,39,_ZN9QtPrivate15ConnectionTypesINS_4ListIJxEEELb1EE5typesEv
FNDA:0,_ZN9QtPrivate15ConnectionTypesINS_4ListIJN7QThread14QPrivateSignalEEEELb0EE5typesEv
FNDA:0,_ZN9QtPrivate15ConnectionTypesINS_4ListIJP4CardEEELb0EE5typesEv
FNDA:0,_ZN9QtPrivate15ConnectionTypesINS_4ListIJEEELb1EE5typesEv
FNDA:0,_ZN9QtPrivate15ConnectionTypesINS_4ListIJ7QStringEEELb1EE5typesEv
FNDA:0,_ZN9QtPrivate15ConnectionTypesINS_4ListIJN12QMediaPlayer11MediaStatusEEEELb1EE5typesEv
FNDA:0,_ZN9QtPrivate15ConnectionTypesINS_4ListIJbEEELb1EE5typesEv
FNDA:0,_ZN9QtPrivate15ConnectionTypesINS_4ListIJiEEELb1EE5typesEv
FNDA:0,_ZN9QtPrivate15ConnectionTypesINS_4ListIJxEEELb1EE5typesEv
FNF:8
FNH:0
DA:35,0
DA:37,0
DA:39,0
LF:3
LH:0
end_of_record
TN:
SF:/home/marija/Qt/6.5.3/gcc_64/include/QtCore/qobjectdefs.h
FN:232,233,_ZNK11QMetaObject4castEP7QObject
FNDA:0,_ZNK11QMetaObject4castEP7QObject
FNF:1
FNH:0
DA:232,0
DA:233,0
LF:2
LH:0
end_of_record
TN:
SF:/home/marija/Qt/6.5.3/gcc_64/include/QtCore/qobjectdefs_impl.h
FN:110,123,_ZN9QtPrivate16assertObjectTypeI10MainWindowEEvP7QObject
FN:110,123,_ZN9QtPrivate16assertObjectTypeI12QMediaPlayerEEvP7QObject
FN:110,123,_ZN9QtPrivate16assertObjectTypeI5LobbyEEvP7QObject
FN:110,123,_ZN9QtPrivate16assertObjectTypeI7GameGUIEEvP7QObject
FN:110,123,_ZN9QtPrivate16assertObjectTypeI7QObjectEEvPS1_
FN:110,123,_ZN9QtPrivate16assertObjectTypeI7QWidgetEEvP7QObject
FN:128,130,_ZN9QtPrivate11FunctorCallINS_11IndexesListIJEEENS_4ListIJEEEvZN7GameGUI16renderCardInHandEiEUlvE_E4callERS6_PPv
FN:128,130,_ZN9QtPrivate11FunctorCallINS_11IndexesListIJEEENS_4ListIJEEEvZN7GameGUI25initZerosAndSevensButtonsEvEUlvE_E4callERS6_PPv
FN:134,138,_ZN9QtPrivate11FunctorCallINS_11IndexesListIJEEENS_4ListIJEEEvM10MainWindowFvvEE4callES7_PS5_PPv
FN:134,138,_ZN9QtPrivate11FunctorCallINS_11IndexesListIJEEENS_4ListIJEEEvM12QMediaPlayerFvvEE4callES7_PS5_PPv
FN:134,138,_ZN9QtPrivate11FunctorCallINS_11IndexesListIJEEENS_4ListIJEEEvM5LobbyFvvEE4callES7_PS5_PPv
FN:134,138,_ZN9QtPrivate11FunctorCallINS_11IndexesListIJEEENS_4ListIJEEEvM7GameGUIFvvEE4callES7_PS5_PPv
FN:134,138,_ZN9QtPrivate11FunctorCallINS_11IndexesListIJEEENS_4ListIJEEEvM7QObjectFvvEE4callES7_PS5_PPv
FN:134,138,_ZN9QtPrivate11FunctorCallINS_11IndexesListIJEEENS_4ListIJEEEvM7QWidgetFbvEE4callES7_PS5_PPv
FN:134,138,_ZN9QtPrivate11FunctorCallINS_11IndexesListIJLi0EEEENS_4ListIJ7QStringEEEvM7GameGUIFvS4_EE4callES8_PS6_PPv
FN:134,138,_ZN9QtPrivate11FunctorCallINS_11IndexesListIJLi0EEEENS_4ListIJP4CardEEEvM7GameGUIFvS5_EE4callES9_PS7_PPv
FN:134,138,_ZN9QtPrivate11FunctorCallINS_11IndexesListIJLi0EEEENS_4ListIJiEEEvM10MainWindowFviEE4callES7_PS5_PPv
FN:134,138,_ZN9QtPrivate11FunctorCallINS_11IndexesListIJLi0EEEENS_4ListIJxEEEvM10MainWindowFviEE4callES7_PS5_PPv
FN:173,175,_ZN9QtPrivate15FunctionPointerIM10MainWindowFviEE4callINS_4ListIJiEEEvEEvS3_PS1_PPv
FN:173,175,_ZN9QtPrivate15FunctionPointerIM10MainWindowFviEE4callINS_4ListIJxEEEvEEvS3_PS1_PPv
FN:173,175,_ZN9QtPrivate15FunctionPointerIM10MainWindowFvvEE4callINS_4ListIJEEEvEEvS3_PS1_PPv
FN:173,175,_ZN9QtPrivate15FunctionPointerIM12QMediaPlayerFvvEE4callINS_4ListIJEEEvEEvS3_PS1_PPv
FN:173,175,_ZN9QtPrivate15FunctionPointerIM5LobbyFvvEE4callINS_4ListIJEEEvEEvS3_PS1_PPv
FN:173,175,_ZN9QtPrivate15FunctionPointerIM7GameGUIFv7QStringEE4callINS_4ListIJS2_EEEvEEvS4_PS1_PPv
FN:173,175,_ZN9QtPrivate15FunctionPointerIM7GameGUIFvP4CardEE4callINS_4ListIJS3_EEEvEEvS5_PS1_PPv
FN:173,175,_ZN9QtPrivate15FunctionPointerIM7GameGUIFvvEE4callINS_4ListIJEEEvEEvS3_PS1_PPv
FN:173,175,_ZN9QtPrivate15FunctionPointerIM7QObjectFvvEE4callINS_4ListIJEEEvEEvS3_PS1_PPv
FN:173,175,_ZN9QtPrivate15FunctionPointerIM7QWidgetFbvEE4callINS_4ListIJEEEvEEvS3_PS1_PPv
FN:242,244,_ZN9QtPrivate7FunctorIZN7GameGUI16renderCardInHandEiEUlvE_Li0EE4callINS_4ListIJEEEvEEvRS2_PvPS8_
FN:242,244,_ZN9QtPrivate7FunctorIZN7GameGUI25initZerosAndSevensButtonsEvEUlvE_Li0EE4callINS_4ListIJEEEvEEvRS2_PvPS8_
FN:358,358,_ZN9QtPrivate15QSlotObjectBaseC2EPFviPS0_P7QObjectPPvPbE
FN:377,377,_ZN9QtPrivate15QSlotObjectBaseD2Ev
FN:425,439,_ZN9QtPrivate11QSlotObjectIM10MainWindowFviENS_4ListIJiEEEvE4implEiPNS_15QSlotObjectBaseEP7QObjectPPvPb
FN:425,439,_ZN9QtPrivate11QSlotObjectIM10MainWindowFviENS_4ListIJxEEEvE4implEiPNS_15QSlotObjectBaseEP7QObjectPPvPb
FN:425,439,_ZN9QtPrivate11QSlotObjectIM10MainWindowFvvENS_4ListIJEEEvE4implEiPNS_15QSlotObjectBaseEP7QObjectPPvPb
FN:425,439,_ZN9QtPrivate11QSlotObjectIM12QMediaPlayerFvvENS_4ListIJEEEvE4implEiPNS_15QSlotObjectBaseEP7QObjectPPvPb
FN:425,439,_ZN9QtPrivate11QSlotObjectIM5LobbyFvvENS_4ListIJEEEvE4implEiPNS_15QSlotObjectBaseEP7QObjectPPvPb
FN:425,439,_ZN9QtPrivate11QSlotObjectIM7GameGUIFv7QStringENS_4ListIJS2_EEEvE4implEiPNS_15QSlotObjectBaseEP7QObjectPPvPb
FN:425,439,_ZN9QtPrivate11QSlotObjectIM7GameGUIFvP4CardENS_4ListIJS3_EEEvE4implEiPNS_15QSlotObjectBaseEP7QObjectPPvPb
FN:425,439,_ZN9QtPrivate11QSlotObjectIM7GameGUIFvvENS_4ListIJEEEvE4implEiPNS_15QSlotObjectBaseEP7QObjectPPvPb
FN:425,439,_ZN9QtPrivate11QSlotObjectIM7QObjectFvvENS_4ListIJEEEvE4implEiPNS_15QSlotObjectBaseEPS1_PPvPb
FN:425,439,_ZN9QtPrivate11QSlotObjectIM7QWidgetFbvENS_4ListIJEEEvE4implEiPNS_15QSlotObjectBaseEP7QObjectPPvPb
FN:441,441,_ZN9QtPrivate11QSlotObjectIM10MainWindowFviENS_4ListIJiEEEvEC2ES3_
FN:441,441,_ZN9QtPrivate11QSlotObjectIM10MainWindowFviENS_4ListIJxEEEvEC2ES3_
FN:441,441,_ZN9QtPrivate11QSlotObjectIM10MainWindowFvvENS_4ListIJEEEvEC2ES3_
FN:441,441,_ZN9QtPrivate11QSlotObjectIM12QMediaPlayerFvvENS_4ListIJEEEvEC2ES3_
FN:441,441,_ZN9QtPrivate11QSlotObjectIM5LobbyFvvENS_4ListIJEEEvEC2ES3_
FN:441,441,_ZN9QtPrivate11QSlotObjectIM7GameGUIFv7QStringENS_4ListIJS2_EEEvEC2ES4_
FN:441,441,_ZN9QtPrivate11QSlotObjectIM7GameGUIFvP4CardENS_4ListIJS3_EEEvEC2ES5_
FN:441,441,_ZN9QtPrivate11QSlotObjectIM7GameGUIFvvENS_4ListIJEEEvEC2ES3_
FN:441,441,_ZN9QtPrivate11QSlotObjectIM7QObjectFvvENS_4ListIJEEEvEC2ES3_
FN:441,441,_ZN9QtPrivate11QSlotObjectIM7QWidgetFbvENS_4ListIJEEEvEC2ES3_
FN:450,463,_ZN9QtPrivate18QFunctorSlotObjectIZN7GameGUI16renderCardInHandEiEUlvE_Li0ENS_4ListIJEEEvE4implEiPNS_15QSlotObjectBaseEP7QObjectPPvPb
FN:450,463,_ZN9QtPrivate18QFunctorSlotObjectIZN7GameGUI25initZerosAndSevensButtonsEvEUlvE_Li0ENS_4ListIJEEEvE4implEiPNS_15QSlotObjectBaseEP7QObjectPPvPb
FN:465,465,_ZN9QtPrivate18QFunctorSlotObjectIZN7GameGUI16renderCardInHandEiEUlvE_Li0ENS_4ListIJEEEvEC2ES2_
FN:465,465,_ZN9QtPrivate18QFunctorSlotObjectIZN7GameGUI25initZerosAndSevensButtonsEvEUlvE_Li0ENS_4ListIJEEEvEC2ES2_
FN:55,55,_ZN9QtPrivate16ApplyReturnValueIvEC2EPv
FN:63,63,_ZN9QtPrivatecmIbEEvT_RKNS_16ApplyReturnValueIvEE
FNDA:0,_ZN9QtPrivate16assertObjectTypeI10MainWindowEEvP7QObject
FNDA:0,_ZN9QtPrivate16assertObjectTypeI12QMediaPlayerEEvP7QObject
FNDA:0,_ZN9QtPrivate16assertObjectTypeI5LobbyEEvP7QObject
FNDA:0,_ZN9QtPrivate16assertObjectTypeI7GameGUIEEvP7QObject
FNDA:0,_ZN9QtPrivate16assertObjectTypeI7QObjectEEvPS1_
FNDA:0,_ZN9QtPrivate16assertObjectTypeI7QWidgetEEvP7QObject
FNDA:0,_ZN9QtPrivate11FunctorCallINS_11IndexesListIJEEENS_4ListIJEEEvZN7GameGUI16renderCardInHandEiEUlvE_E4callERS6_PPv
FNDA:0,_ZN9QtPrivate11FunctorCallINS_11IndexesListIJEEENS_4ListIJEEEvZN7GameGUI25initZerosAndSevensButtonsEvEUlvE_E4callERS6_PPv
FNDA:0,_ZN9QtPrivate11FunctorCallINS_11IndexesListIJEEENS_4ListIJEEEvM10MainWindowFvvEE4callES7_PS5_PPv
FNDA:0,_ZN9QtPrivate11FunctorCallINS_11IndexesListIJEEENS_4ListIJEEEvM12QMediaPlayerFvvEE4callES7_PS5_PPv
FNDA:0,_ZN9QtPrivate11FunctorCallINS_11IndexesListIJEEENS_4ListIJEEEvM5LobbyFvvEE4callES7_PS5_PPv
FNDA:0,_ZN9QtPrivate11FunctorCallINS_11IndexesListIJEEENS_4ListIJEEEvM7GameGUIFvvEE4callES7_PS5_PPv
FNDA:0,_ZN9QtPrivate11FunctorCallINS_11IndexesListIJEEENS_4ListIJEEEvM7QObjectFvvEE4callES7_PS5_PPv
FNDA:0,_ZN9QtPrivate11FunctorCallINS_11IndexesListIJEEENS_4ListIJEEEvM7QWidgetFbvEE4callES7_PS5_PPv
FNDA:0,_ZN9QtPrivate11FunctorCallINS_11IndexesListIJLi0EEEENS_4ListIJ7QStringEEEvM7GameGUIFvS4_EE4callES8_PS6_PPv
FNDA:0,_ZN9QtPrivate11FunctorCallINS_11IndexesListIJLi0EEEENS_4ListIJP4CardEEEvM7GameGUIFvS5_EE4callES9_PS7_PPv
FNDA:0,_ZN9QtPrivate11FunctorCallINS_11IndexesListIJLi0EEEENS_4ListIJiEEEvM10MainWindowFviEE4callES7_PS5_PPv
FNDA:0,_ZN9QtPrivate11FunctorCallINS_11IndexesListIJLi0EEEENS_4ListIJxEEEvM10MainWindowFviEE4callES7_PS5_PPv
FNDA:0,_ZN9QtPrivate15FunctionPointerIM10MainWindowFviEE4callINS_4ListIJiEEEvEEvS3_PS1_PPv
FNDA:0,_ZN9QtPrivate15FunctionPointerIM10MainWindowFviEE4callINS_4ListIJxEEEvEEvS3_PS1_PPv
FNDA:0,_ZN9QtPrivate15FunctionPointerIM10MainWindowFvvEE4callINS_4ListIJEEEvEEvS3_PS1_PPv
FNDA:0,_ZN9QtPrivate15FunctionPointerIM12QMediaPlayerFvvEE4callINS_4ListIJEEEvEEvS3_PS1_PPv
FNDA:0,_ZN9QtPrivate15FunctionPointerIM5LobbyFvvEE4callINS_4ListIJEEEvEEvS3_PS1_PPv
FNDA:0,_ZN9QtPrivate15FunctionPointerIM7GameGUIFv7QStringEE4callINS_4ListIJS2_EEEvEEvS4_PS1_PPv
FNDA:0,_ZN9QtPrivate15FunctionPointerIM7GameGUIFvP4CardEE4callINS_4ListIJS3_EEEvEEvS5_PS1_PPv
FNDA:0,_ZN9QtPrivate15FunctionPointerIM7GameGUIFvvEE4callINS_4ListIJEEEvEEvS3_PS1_PPv
FNDA:0,_ZN9QtPrivate15FunctionPointerIM7QObjectFvvEE4callINS_4ListIJEEEvEEvS3_PS1_PPv
FNDA:0,_ZN9QtPrivate15FunctionPointerIM7QWidgetFbvEE4callINS_4ListIJEEEvEEvS3_PS1_PPv
FNDA:0,_ZN9QtPrivate7FunctorIZN7GameGUI16renderCardInHandEiEUlvE_Li0EE4callINS_4ListIJEEEvEEvRS2_PvPS8_
FNDA:0,_ZN9QtPrivate7FunctorIZN7GameGUI25initZerosAndSevensButtonsEvEUlvE_Li0EE4callINS_4ListIJEEEvEEvRS2_PvPS8_
FNDA:0,_ZN9QtPrivate15QSlotObjectBaseC2EPFviPS0_P7QObjectPPvPbE
FNDA:0,_ZN9QtPrivate15QSlotObjectBaseD2Ev
FNDA:0,_ZN9QtPrivate11QSlotObjectIM10MainWindowFviENS_4ListIJiEEEvE4implEiPNS_15QSlotObjectBaseEP7QObjectPPvPb
FNDA:0,_ZN9QtPrivate11QSlotObjectIM10MainWindowFviENS_4ListIJxEEEvE4implEiPNS_15QSlotObjectBaseEP7QObjectPPvPb
FNDA:0,_ZN9QtPrivate11QSlotObjectIM10MainWindowFvvENS_4ListIJEEEvE4implEiPNS_15QSlotObjectBaseEP7QObjectPPvPb
FNDA:0,_ZN9QtPrivate11QSlotObjectIM12QMediaPlayerFvvENS_4ListIJEEEvE4implEiPNS_15QSlotObjectBaseEP7QObjectPPvPb
FNDA:0,_ZN9QtPrivate11QSlotObjectIM5LobbyFvvENS_4ListIJEEEvE4implEiPNS_15QSlotObjectBaseEP7QObjectPPvPb
FNDA:0,_ZN9QtPrivate11QSlotObjectIM7GameGUIFv7QStringENS_4ListIJS2_EEEvE4implEiPNS_15QSlotObjectBaseEP7QObjectPPvPb
FNDA:0,_ZN9QtPrivate11QSlotObjectIM7GameGUIFvP4CardENS_4ListIJS3_EEEvE4implEiPNS_15QSlotObjectBaseEP7QObjectPPvPb
FNDA:0,_ZN9QtPrivate11QSlotObjectIM7GameGUIFvvENS_4ListIJEEEvE4implEiPNS_15QSlotObjectBaseEP7QObjectPPvPb
FNDA:0,_ZN9QtPrivate11QSlotObjectIM7QObjectFvvENS_4ListIJEEEvE4implEiPNS_15QSlotObjectBaseEPS1_PPvPb
FNDA:0,_ZN9QtPrivate11QSlotObjectIM7QWidgetFbvENS_4ListIJEEEvE4implEiPNS_15QSlotObjectBaseEP7QObjectPPvPb
FNDA:0,_ZN9QtPrivate11QSlotObjectIM10MainWindowFviENS_4ListIJiEEEvEC2ES3_
FNDA:0,_ZN9QtPrivate11QSlotObjectIM10MainWindowFviENS_4ListIJxEEEvEC2ES3_
FNDA:0,_ZN9QtPrivate11QSlotObjectIM10MainWindowFvvENS_4ListIJEEEvEC2ES3_
FNDA:0,_ZN9QtPrivate11QSlotObjectIM12QMediaPlayerFvvENS_4ListIJEEEvEC2ES3_
FNDA:0,_ZN9QtPrivate11QSlotObjectIM5LobbyFvvENS_4ListIJEEEvEC2ES3_
FNDA:0,_ZN9QtPrivate11QSlotObjectIM7GameGUIFv7QStringENS_4ListIJS2_EEEvEC2ES4_
FNDA:0,_ZN9QtPrivate11QSlotObjectIM7GameGUIFvP4CardENS_4ListIJS3_EEEvEC2ES5_
FNDA:0,_ZN9QtPrivate11QSlotObjectIM7GameGUIFvvENS_4ListIJEEEvEC2ES3_
FNDA:0,_ZN9QtPrivate11QSlotObjectIM7QObjectFvvENS_4ListIJEEEvEC2ES3_
FNDA:0,_ZN9QtPrivate11QSlotObjectIM7QWidgetFbvENS_4ListIJEEEvEC2ES3_
FNDA:0,_ZN9QtPrivate18QFunctorSlotObjectIZN7GameGUI16renderCardInHandEiEUlvE_Li0ENS_4ListIJEEEvE4implEiPNS_15QSlotObjectBaseEP7QObjectPPvPb
FNDA:0,_ZN9QtPrivate18QFunctorSlotObjectIZN7GameGUI25initZerosAndSevensButtonsEvEUlvE_Li0ENS_4ListIJEEEvE4implEiPNS_15QSlotObjectBaseEP7QObjectPPvPb
FNDA:0,_ZN9QtPrivate18QFunctorSlotObjectIZN7GameGUI16renderCardInHandEiEUlvE_Li0ENS_4ListIJEEEvEC2ES2_
FNDA:0,_ZN9QtPrivate18QFunctorSlotObjectIZN7GameGUI25initZerosAndSevensButtonsEvEUlvE_Li0ENS_4ListIJEEEvEC2ES2_
FNDA:0,_ZN9QtPrivate16ApplyReturnValueIvEC2EPv
FNDA:0,_ZN9QtPrivatecmIbEEvT_RKNS_16ApplyReturnValueIvEE
FNF:58
FNH:0
DA:55,0
DA:63,0
DA:110,0
DA:123,0
DA:128,0
DA:129,0
DA:130,0
DA:134,0
DA:136,0
DA:137,0
DA:138,0
DA:173,0
DA:174,0
DA:175,0
DA:242,0
DA:243,0
DA:244,0
DA:358,0
DA:377,0
DA:425,0
DA:427,0
DA:428,0
DA:429,0
DA:430,0
DA:431,0
DA:432,0
DA:433,0
DA:434,0
DA:435,0
DA:436,0
DA:437,0
DA:439,0
DA:441,0
DA:450,0
DA:452,0
DA:453,0
DA:454,0
DA:455,0
DA:456,0
DA:457,0
DA:458,0
DA:459,0
DA:463,0
DA:465,0
LF:44
LH:0
end_of_record
TN:
SF:/home/marija/Qt/6.5.3/gcc_64/include/QtCore/qpair.h
FN:19,23,_Z9qMakePairIP15QTypedArrayDataI7QStringEPS1_EDcOT_OT0_
FN:19,23,_Z9qMakePairIP15QTypedArrayDataIP11QPushButtonEPS2_EDcOT_OT0_
FN:19,23,_Z9qMakePairIP15QTypedArrayDataIP4CardEPS2_EDcOT_OT0_
FN:19,23,_Z9qMakePairIP15QTypedArrayDataIP6PlayerEPS2_EDcOT_OT0_
FN:19,23,_Z9qMakePairIP15QTypedArrayDataIP6QFrameEPS2_EDcOT_OT0_
FN:19,23,_Z9qMakePairIP15QTypedArrayDataIP6QLabelEPS2_EDcOT_OT0_
FN:19,23,_Z9qMakePairIP15QTypedArrayDataISt4pairI7QStringiEEPS3_EDcOT_OT0_
FN:19,23,_Z9qMakePairIP15QTypedArrayDataIiEPiEDcOT_OT0_
FNDA:0,_Z9qMakePairIP15QTypedArrayDataI7QStringEPS1_EDcOT_OT0_
FNDA:0,_Z9qMakePairIP15QTypedArrayDataIP11QPushButtonEPS2_EDcOT_OT0_
FNDA:219,_Z9qMakePairIP15QTypedArrayDataIP4CardEPS2_EDcOT_OT0_
FNDA:3,_Z9qMakePairIP15QTypedArrayDataIP6PlayerEPS2_EDcOT_OT0_
FNDA:0,_Z9qMakePairIP15QTypedArrayDataIP6QFrameEPS2_EDcOT_OT0_
FNDA:0,_Z9qMakePairIP15QTypedArrayDataIP6QLabelEPS2_EDcOT_OT0_
FNDA:0,_Z9qMakePairIP15QTypedArrayDataISt4pairI7QStringiEEPS3_EDcOT_OT0_
FNDA:3,_Z9qMakePairIP15QTypedArrayDataIiEPiEDcOT_OT0_
FNF:8
FNH:3
DA:19,225
DA:22,225
LF:2
LH:2
end_of_record
TN:
SF:/home/marija/Qt/6.5.3/gcc_64/include/QtCore/qpoint.h
FN:115,115,_ZN6QPointC2Eii
FN:55,56,_ZmiRK6QPointS1_
FNDA:0,_ZN6QPointC2Eii
FNDA:0,_ZmiRK6QPointS1_
FNF:2
FNH:0
DA:55,0
DA:56,0
DA:115,0
LF:3
LH:0
end_of_record
TN:
SF:/home/marija/Qt/6.5.3/gcc_64/include/QtCore/qrect.h
FN:154,155,_ZN5QRectC2Eiiii
FN:184,185,_ZNK5QRect1xEv
FN:187,188,_ZNK5QRect1yEv
FN:232,233,_ZNK5QRect6centerEv
FN:235,236,_ZNK5QRect5widthEv
FN:238,239,_ZNK5QRect6heightEv
FNDA:0,_ZN5QRectC2Eiiii
FNDA:0,_ZNK5QRect1xEv
FNDA:0,_ZNK5QRect1yEv
FNDA:0,_ZNK5QRect6centerEv
FNDA:0,_ZNK5QRect5widthEv
FNDA:0,_ZNK5QRect6heightEv
FNF:6
FNH:0
DA:154,0
DA:155,0
DA:184,0
DA:185,0
DA:187,0
DA:188,0
DA:232,0
DA:233,0
DA:235,0
DA:236,0
DA:238,0
DA:239,0
LF:12
LH:0
end_of_record
TN:
SF:/home/marija/Qt/6.5.3/gcc_64/include/QtCore/qscopedpointer.h
FN:89,92,_ZNK14QScopedPointerI11QObjectData21QScopedPointerDeleterIS0_EEptEv
FNDA:0,_ZNK14QScopedPointerI11QObjectData21QScopedPointerDeleterIS0_EEptEv
FNF:1
FNH:0
DA:89,0
DA:91,0
LF:2
LH:0
end_of_record
TN:
SF:/home/marija/Qt/6.5.3/gcc_64/include/QtCore/qsize.h
FN:111,111,_ZN5QSizeC2Ev
FN:113,113,_ZN5QSizeC2Eii
FN:124,125,_ZNK5QSize5widthEv
FN:127,128,_ZNK5QSize6heightEv
FNDA:0,_ZN5QSizeC2Ev
FNDA:0,_ZN5QSizeC2Eii
FNDA:0,_ZNK5QSize5widthEv
FNDA:0,_ZNK5QSize6heightEv
FNF:4
FNH:0
DA:111,0
DA:113,0
DA:124,0
DA:125,0
DA:127,0
DA:128,0
LF:6
LH:0
end_of_record
TN:
SF:/home/marija/Qt/6.5.3/gcc_64/include/QtCore/qstring.h
FN:1028,1030,_ZN7QStringC2EPKc
FN:1034,1035,_ZN7QStringaSEPKc
FN:1044,1045,_ZN7QString6appendEPKc
FN:1052,1053,_ZN7QStringpLEPKc
FN:1114,1114,_ZN7QString9push_backE5QChar
FN:1139,1139,_ZNK7QString6isNullEv
FN:1309,1310,_ZNK7QString7isEmptyEv
FN:1313,1320,_ZNK7QString4dataEv
FN:1321,1326,_ZN7QString4dataEv
FN:1327,1328,_ZNK7QString9constDataEv
FN:1329,1330,_ZN7QString6detachEv
FN:1335,1336,_ZN7QStringC2ERKS_
FN:1397,1397,_ZN7QStringC2Ev
FN:1398,1398,_ZN7QStringD2Ev
FN:1420,1421,_ZN7QStringixEx
FN:1440,1441,_ZNK7QString8containsERKS_N2Qt15CaseSensitivityE
FN:1450,1451,_ZNK7QStringeqEPKc
FN:1452,1453,_ZNK7QStringneEPKc
FN:1524,1525,_ZplO7QStringRKS_
FN:1533,1534,_ZplRK7QStringPKc
FN:1535,1536,_ZplO7QStringPKc
FN:1537,1538,_ZplPKcRK7QString
FN:1548,1549,_ZNK7QString11toStdStringB5cxx11Ev
FN:1551,1552,_ZN7QString13fromStdStringERKNSt7__cxx1112basic_stringIcSt11char_traitsIcESaIcEEE
FN:1588,1588,_Z4swapR7QStringS0_
FN:468,468,_ZN7QStringC2EOS_
FN:470,470,_ZN7QStringaSEOS_
FN:471,471,_ZN7QString4swapERS_
FN:472,472,_ZNK7QString4sizeEv
FN:477,477,_ZNK7QString6lengthEv
FN:569,570,_ZNK7QString11lastIndexOfE5QCharN2Qt15CaseSensitivityE
FN:710,710,_ZN7QStringpLERKS_
FN:713,713,_ZN7QStringpLE20QBasicUtf8StringViewILb0EE
FN:809,810,_ZNKR7QString6toUtf8Ev
FN:835,838,_ZN7QString8fromUtf8EPKcx
FN:940,941,_ZeqRK7QStringS1_
FNDA:0,_ZN7QStringC2EPKc
FNDA:2,_ZN7QStringaSEPKc
FNDA:0,_ZN7QString6appendEPKc
FNDA:0,_ZN7QStringpLEPKc
FNDA:0,_ZN7QString9push_backE5QChar
FNDA:0,_ZNK7QString6isNullEv
FNDA:0,_ZNK7QString7isEmptyEv
FNDA:0,_ZNK7QString4dataEv
FNDA:1,_ZN7QString4dataEv
FNDA:0,_ZNK7QString9constDataEv
FNDA:1,_ZN7QString6detachEv
FNDA:5,_ZN7QStringC2ERKS_
FNDA:28,_ZN7QStringC2Ev
FNDA:38,_ZN7QStringD2Ev
FNDA:1,_ZN7QStringixEx
FNDA:0,_ZNK7QString8containsERKS_N2Qt15CaseSensitivityE
FNDA:0,_ZNK7QStringeqEPKc
FNDA:0,_ZNK7QStringneEPKc
FNDA:0,_ZplO7QStringRKS_
FNDA:0,_ZplRK7QStringPKc
FNDA:0,_ZplO7QStringPKc
FNDA:3,_ZplPKcRK7QString
FNDA:0,_ZNK7QString11toStdStringB5cxx11Ev
FNDA:0,_ZN7QString13fromStdStringERKNSt7__cxx1112basic_stringIcSt11char_traitsIcESaIcEEE
FNDA:0,_Z4swapR7QStringS0_
FNDA:4,_ZN7QStringC2EOS_
FNDA:2,_ZN7QStringaSEOS_
FNDA:2,_ZN7QString4swapERS_
FNDA:0,_ZNK7QString4sizeEv
FNDA:0,_ZNK7QString6lengthEv
FNDA:0,_ZNK7QString11lastIndexOfE5QCharN2Qt15CaseSensitivityE
FNDA:3,_ZN7QStringpLERKS_
FNDA:0,_ZN7QStringpLE20QBasicUtf8StringViewILb0EE
FNDA:0,_ZNKR7QString6toUtf8Ev
FNDA:0,_ZN7QString8fromUtf8EPKcx
FNDA:0,_ZeqRK7QStringS1_
FNF:36
FNH:12
DA:468,4
DA:470,2
DA:471,2
DA:472,0
DA:477,0
DA:569,0
DA:570,0
DA:710,3
DA:713,0
DA:809,0
DA:810,0
DA:835,0
DA:837,0
DA:940,0
DA:941,0
DA:1028,0
DA:1029,0
DA:1030,0
DA:1034,2
DA:1035,2
DA:1044,0
DA:1045,0
DA:1052,0
DA:1053,0
DA:1114,0
DA:1139,0
DA:1309,0
DA:1310,0
DA:1313,0
DA:1316,0
DA:1321,1
DA:1323,1
DA:1325,1
DA:1327,0
DA:1328,0
DA:1329,1
DA:1330,1
DA:1335,5
DA:1336,5
DA:1397,28
DA:1398,38
DA:1420,1
DA:1421,1
DA:1440,0
DA:1441,0
DA:1450,0
DA:1451,0
DA:1452,0
DA:1453,0
DA:1524,0
DA:1525,0
DA:1533,0
DA:1534,0
DA:1535,0
DA:1536,0
DA:1537,3
DA:1538,3
DA:1548,0
DA:1549,0
DA:1551,0
DA:1552,0
DA:1588,0
LF:62
LH:19
end_of_record
TN:
SF:/home/marija/Qt/6.5.3/gcc_64/include/QtCore/qstringlist.h
FN:117,118,_ZNK19QListSpecialMethodsI7QStringE8containsERKS0_N2Qt15CaseSensitivityE
FNDA:0,_ZNK19QListSpecialMethodsI7QStringE8containsERKS0_N2Qt15CaseSensitivityE
FNF:1
FNH:0
DA:117,0
DA:118,0
LF:2
LH:0
end_of_record
TN:
SF:/home/marija/Qt/6.5.3/gcc_64/include/QtCore/qstringview.h
FN:137,138,_ZN11QStringView10castHelperI5QCharEEPKDsPKT_
FN:148,156,_ZN11QStringViewC2I5QCharLb1EEEPKT_x
FN:179,180,_ZN11QStringViewC2I7QStringLb1EEERKT_
FNDA:0,_ZN11QStringView10castHelperI5QCharEEPKDsPKT_
FNDA:0,_ZN11QStringViewC2I5QCharLb1EEEPKT_x
FNDA:0,_ZN11QStringViewC2I7QStringLb1EEERKT_
FNF:3
FNH:0
DA:137,0
DA:138,0
DA:148,0
DA:154,0
DA:156,0
DA:179,0
DA:180,0
LF:7
LH:0
end_of_record
TN:
SF:/home/marija/Qt/6.5.3/gcc_64/include/QtCore/qswap.h
FN:43,48,_Z11qt_ptr_swapI15QTypedArrayDataI7QStringEEvRPT_S5_
FN:43,48,_Z11qt_ptr_swapI15QTypedArrayDataIDsEEvRPT_S4_
FN:43,48,_Z11qt_ptr_swapI15QTypedArrayDataIP11QPushButtonEEvRPT_S6_
FN:43,48,_Z11qt_ptr_swapI15QTypedArrayDataIP4CardEEvRPT_S6_
FN:43,48,_Z11qt_ptr_swapI15QTypedArrayDataIP6PlayerEEvRPT_S6_
FN:43,48,_Z11qt_ptr_swapI15QTypedArrayDataIP6QFrameEEvRPT_S6_
FN:43,48,_Z11qt_ptr_swapI15QTypedArrayDataIP6QLabelEEvRPT_S6_
FN:43,48,_Z11qt_ptr_swapI15QTypedArrayDataISt4pairI7QStringiEEEvRPT_S7_
FN:43,48,_Z11qt_ptr_swapI15QTypedArrayDataIiEEvRPT_S4_
FN:43,48,_Z11qt_ptr_swapI7QStringEvRPT_S3_
FN:43,48,_Z11qt_ptr_swapIDsEvRPT_S2_
FN:43,48,_Z11qt_ptr_swapIP11QPushButtonEvRPT_S4_
FN:43,48,_Z11qt_ptr_swapIP4CardEvRPT_S4_
FN:43,48,_Z11qt_ptr_swapIP6PlayerEvRPT_S4_
FN:43,48,_Z11qt_ptr_swapIP6QFrameEvRPT_S4_
FN:43,48,_Z11qt_ptr_swapIP6QLabelEvRPT_S4_
FN:43,48,_Z11qt_ptr_swapISt4pairI7QStringiEEvRPT_S5_
FN:43,48,_Z11qt_ptr_swapIiEvRPT_S2_
FNDA:0,_Z11qt_ptr_swapI15QTypedArrayDataI7QStringEEvRPT_S5_
FNDA:2,_Z11qt_ptr_swapI15QTypedArrayDataIDsEEvRPT_S4_
FNDA:0,_Z11qt_ptr_swapI15QTypedArrayDataIP11QPushButtonEEvRPT_S6_
FNDA:98,_Z11qt_ptr_swapI15QTypedArrayDataIP4CardEEvRPT_S6_
FNDA:2,_Z11qt_ptr_swapI15QTypedArrayDataIP6PlayerEEvRPT_S6_
FNDA:0,_Z11qt_ptr_swapI15QTypedArrayDataIP6QFrameEEvRPT_S6_
FNDA:0,_Z11qt_ptr_swapI15QTypedArrayDataIP6QLabelEEvRPT_S6_
FNDA:0,_Z11qt_ptr_swapI15QTypedArrayDataISt4pairI7QStringiEEEvRPT_S7_
FNDA:2,_Z11qt_ptr_swapI15QTypedArrayDataIiEEvRPT_S4_
FNDA:0,_Z11qt_ptr_swapI7QStringEvRPT_S3_
FNDA:2,_Z11qt_ptr_swapIDsEvRPT_S2_
FNDA:0,_Z11qt_ptr_swapIP11QPushButtonEvRPT_S4_
FNDA:98,_Z11qt_ptr_swapIP4CardEvRPT_S4_
FNDA:2,_Z11qt_ptr_swapIP6PlayerEvRPT_S4_
FNDA:0,_Z11qt_ptr_swapIP6QFrameEvRPT_S4_
FNDA:0,_Z11qt_ptr_swapIP6QLabelEvRPT_S4_
FNDA:0,_Z11qt_ptr_swapISt4pairI7QStringiEEvRPT_S5_
FNDA:2,_Z11qt_ptr_swapIiEvRPT_S2_
FNF:18
FNH:8
DA:43,208
DA:45,208
DA:46,208
DA:47,208
DA:48,208
LF:5
LH:5
end_of_record
TN:
SF:/home/marija/Qt/6.5.3/gcc_64/include/QtCore/qutf8stringview.h
FN:148,149,_ZN20QBasicUtf8StringViewILb0EE10castHelperEPKc
FN:158,160,_ZN20QBasicUtf8StringViewILb0EEC2IcLb1EEEPKT_x
FN:174,176,_ZN20QBasicUtf8StringViewILb0EEC2IPKcLb1EEERKT_
FNDA:0,_ZN20QBasicUtf8StringViewILb0EE10castHelperEPKc
FNDA:0,_ZN20QBasicUtf8StringViewILb0EEC2IcLb1EEEPKT_x
FNDA:0,_ZN20QBasicUtf8StringViewILb0EEC2IPKcLb1EEERKT_
FNF:3
FNH:0
DA:148,0
DA:149,0
DA:158,0
DA:159,0
DA:160,0
DA:174,0
DA:176,0
LF:7
LH:0
end_of_record
TN:
SF:/home/marija/Qt/6.5.3/gcc_64/include/QtGui/qfont.h
FN:299,300,_ZN5QFont7setBoldEb
FN:307,309,_ZN5QFont9setItalicEb
FNDA:0,_ZN5QFont7setBoldEb
FNDA:0,_ZN5QFont9setItalicEb
FNF:2
FNH:0
DA:299,0
DA:300,0
DA:307,0
DA:308,0
DA:309,0
LF:5
LH:0
end_of_record
TN:
SF:/home/marija/Qt/6.5.3/gcc_64/include/QtMultimedia/qmediaplayer.h
FN:196,196,_Zls6QDebugN12QMediaPlayer11MediaStatusE
FN:75,75,_Z20qt_getEnumMetaObjectN12QMediaPlayer11MediaStatusE
FNDA:0,_Zls6QDebugN12QMediaPlayer11MediaStatusE
FNDA:0,_Z20qt_getEnumMetaObjectN12QMediaPlayer11MediaStatusE
FNF:2
FNH:0
DA:75,0
DA:196,0
LF:2
LH:0
end_of_record
TN:
SF:/home/marija/Qt/6.5.3/gcc_64/include/QtWidgets/qwidget.h
FN:831,832,_ZN7QWidget14setMinimumSizeERK5QSize
FN:834,835,_ZN7QWidget14setMaximumSizeERK5QSize
FN:873,874,_ZNK7QWidget9isVisibleEv
FN:882,883,_ZN7QWidget6resizeEii
FN:885,886,_ZN7QWidget11setGeometryEiiii
FN:888,889,_ZNK7QWidget4rectEv
FN:891,892,_ZNK7QWidget8geometryEv
FN:900,901,_ZNK7QWidget6heightEv
FN:909,914,_ZNK7QWidget13testAttributeEN2Qt15WidgetAttributeE
FNDA:0,_ZN7QWidget14setMinimumSizeERK5QSize
FNDA:0,_ZN7QWidget14setMaximumSizeERK5QSize
FNDA:0,_ZNK7QWidget9isVisibleEv
FNDA:0,_ZN7QWidget6resizeEii
FNDA:0,_ZN7QWidget11setGeometryEiiii
FNDA:0,_ZNK7QWidget4rectEv
FNDA:0,_ZNK7QWidget8geometryEv
FNDA:0,_ZNK7QWidget6heightEv
FNDA:0,_ZNK7QWidget13testAttributeEN2Qt15WidgetAttributeE
FNF:9
FNH:0
DA:831,0
DA:832,0
DA:834,0
DA:835,0
DA:873,0
DA:874,0
DA:882,0
DA:883,0
DA:885,0
DA:886,0
DA:888,0
DA:889,0
DA:891,0
DA:892,0
DA:900,0
DA:901,0
DA:909,0
DA:911,0
DA:912,0
DA:913,0
LF:20
LH:0
end_of_record
TN:
SF:/usr/include/c++/10/atomic
FN:770,770,_ZNSt6atomicIiEC2Ei
FNDA:0,_ZNSt6atomicIiEC2Ei
FNF:1
FNH:0
DA:770,0
LF:1
LH:0
end_of_record
TN:
SF:/usr/include/c++/10/bits/alloc_traits.h
FN:459,460,_ZNSt16allocator_traitsISaIN5Catch11MessageInfoEEE8allocateERS2_m
FN:459,460,_ZNSt16allocator_traitsISaIN5Catch11SectionInfoEEE8allocateERS2_m
FN:459,460,_ZNSt16allocator_traitsISaIN5Catch12_GLOBAL__N_110ColumnInfoEEE8allocateERS3_m
FN:459,460,_ZNSt16allocator_traitsISaIN5Catch13ScopedMessageEEE8allocateERS2_m
FN:459,460,_ZNSt16allocator_traitsISaIN5Catch13SummaryColumnEEE8allocateERS2_m
FN:459,460,_ZNSt16allocator_traitsISaIN5Catch14AssertionStatsEEE8allocateERS2_m
FN:459,460,_ZNSt16allocator_traitsISaIN5Catch14SectionEndInfoEEE8allocateERS2_m
FN:459,460,_ZNSt16allocator_traitsISaIN5Catch5clara6detail11HelpColumnsEEE8allocateERS4_m
FN:459,460,_ZNSt16allocator_traitsISaIN5Catch5clara6detail3ArgEEE8allocateERS4_m
FN:459,460,_ZNSt16allocator_traitsISaIN5Catch5clara6detail3OptEEE8allocateERS4_m
FN:459,460,_ZNSt16allocator_traitsISaIN5Catch5clara6detail5TokenEEE8allocateERS4_m
FN:459,460,_ZNSt16allocator_traitsISaIN5Catch5clara8TextFlow6Column8iteratorEEE8allocateERS5_m
FN:459,460,_ZNSt16allocator_traitsISaIN5Catch5clara8TextFlow6ColumnEEE8allocateERS4_m
FN:459,460,_ZNSt16allocator_traitsISaIN5Catch8TestCaseEEE8allocateERS2_m
FN:459,460,_ZNSt16allocator_traitsISaIN5Catch8TestSpec11FilterMatchEEE8allocateERS3_m
FN:459,460,_ZNSt16allocator_traitsISaIN5Catch8TestSpec6FilterEEE8allocateERS3_m
FN:459,460,_ZNSt16allocator_traitsISaIN5Catch9StringRefEEE8allocateERS2_m
FN:459,460,_ZNSt16allocator_traitsISaINSt15__exception_ptr13exception_ptrEEE8allocateERS2_m
FN:459,460,_ZNSt16allocator_traitsISaINSt7__cxx1112basic_stringIcSt11char_traitsIcESaIcEEEEE8allocateERS6_m
FN:459,460,_ZNSt16allocator_traitsISaINSt7__cxx1112regex_traitsIcE10_RegexMaskEEE8allocateERS4_m
FN:459,460,_ZNSt16allocator_traitsISaINSt7__cxx119sub_matchIN9__gnu_cxx17__normal_iteratorIPKcNS0_12basic_stringIcSt11char_traitsIcESaIcEEEEEEEEE8allocateERSD_m
FN:459,460,_ZNSt16allocator_traitsISaINSt8__detail6_StateIcEEEE8allocateERS3_m
FN:459,460,_ZNSt16allocator_traitsISaINSt8__detail9_StateSeqINSt7__cxx1112regex_traitsIcEEEEEE8allocateERS6_m
FN:459,460,_ZNSt16allocator_traitsISaIPKN5Catch8TestCaseEEE8allocateERS4_m
FN:459,460,_ZNSt16allocator_traitsISaIPN5Catch10ISingletonEEE8allocateERS3_m
FN:459,460,_ZNSt16allocator_traitsISaIPN5Catch16TestCaseTracking8ITrackerEEE8allocateERS4_m
FN:459,460,_ZNSt16allocator_traitsISaIPNSt8__detail9_StateSeqINSt7__cxx1112regex_traitsIcEEEEEE8allocateERS7_m
FN:459,460,_ZNSt16allocator_traitsISaIPcEE8allocateERS1_m
FN:459,460,_ZNSt16allocator_traitsISaIPlEE8allocateERS1_m
FN:459,460,_ZNSt16allocator_traitsISaISt10shared_ptrIN5Catch16IReporterFactoryEEEE8allocateERS4_m
FN:459,460,_ZNSt16allocator_traitsISaISt10shared_ptrIN5Catch16TestCaseTracking8ITrackerEEEE8allocateERS5_m
FN:459,460,_ZNSt16allocator_traitsISaISt10shared_ptrIN5Catch22CumulativeReporterBaseINS1_13JunitReporterEE11SectionNodeEEEE8allocateERS7_m
FN:459,460,_ZNSt16allocator_traitsISaISt10shared_ptrIN5Catch22CumulativeReporterBaseINS1_13JunitReporterEE4NodeINS1_12TestRunStatsENS5_INS1_14TestGroupStatsENS5_INS1_13TestCaseStatsENS4_11SectionNodeEEEEEEEEEE8allocateERSE_m
FN:459,460,_ZNSt16allocator_traitsISaISt10shared_ptrIN5Catch22CumulativeReporterBaseINS1_13JunitReporterEE4NodeINS1_13TestCaseStatsENS4_11SectionNodeEEEEEE8allocateERSA_m
FN:459,460,_ZNSt16allocator_traitsISaISt10shared_ptrIN5Catch22CumulativeReporterBaseINS1_13JunitReporterEE4NodeINS1_14TestGroupStatsENS5_INS1_13TestCaseStatsENS4_11SectionNodeEEEEEEEE8allocateERSC_m
FN:459,460,_ZNSt16allocator_traitsISaISt10shared_ptrIN5Catch8TestSpec7PatternEEEE8allocateERS5_m
FN:459,460,_ZNSt16allocator_traitsISaISt10unique_ptrIKN5Catch20IExceptionTranslatorESt14default_deleteIS3_EEEE8allocateERS7_m
FN:459,460,_ZNSt16allocator_traitsISaISt10unique_ptrIN5Catch18IStreamingReporterESt14default_deleteIS2_EEEE8allocateERS6_m
FN:459,460,_ZNSt16allocator_traitsISaISt10unique_ptrIN5Catch6Detail8EnumInfoESt14default_deleteIS3_EEEE8allocateERS7_m
FN:459,460,_ZNSt16allocator_traitsISaISt10unique_ptrINSt7__cxx1119basic_ostringstreamIcSt11char_traitsIcESaIcEEESt14default_deleteIS6_EEEE8allocateERSA_m
FN:459,460,_ZNSt16allocator_traitsISaISt13_Rb_tree_nodeIN5Catch8TestCaseEEEE8allocateERS4_m
FN:459,460,_ZNSt16allocator_traitsISaISt13_Rb_tree_nodeIN5Catch9VerbosityEEEE8allocateERS4_m
FN:459,460,_ZNSt16allocator_traitsISaISt13_Rb_tree_nodeINSt7__cxx1112basic_stringIcSt11char_traitsIcESaIcEEEEEE8allocateERS8_m
FN:459,460,_ZNSt16allocator_traitsISaISt13_Rb_tree_nodeIPKN5Catch8TestCaseEEEE8allocateERS6_m
FN:459,460,_ZNSt16allocator_traitsISaISt13_Rb_tree_nodeISt4pairIKNSt7__cxx1112basic_stringIcSt11char_traitsIcESaIcEEEN5Catch7TagInfoEEEEE8allocateERSD_m
FN:459,460,_ZNSt16allocator_traitsISaISt13_Rb_tree_nodeISt4pairIKNSt7__cxx1112basic_stringIcSt11char_traitsIcESaIcEEEN5Catch8TagAliasEEEEE8allocateERSD_m
FN:459,460,_ZNSt16allocator_traitsISaISt13_Rb_tree_nodeISt4pairIKNSt7__cxx1112basic_stringIcSt11char_traitsIcESaIcEEESt10shared_ptrIN5Catch16IReporterFactoryEEEEEE8allocateERSF_m
FN:459,460,_ZNSt16allocator_traitsISaISt13_Rb_tree_nodeISt4pairIKllEEEE8allocateERS5_m
FN:459,460,_ZNSt16allocator_traitsISaISt23_Sp_counted_ptr_inplaceIN5Catch10Generators16GeneratorTrackerESaIS3_ELN9__gnu_cxx12_Lock_policyE2EEEE8allocateERS8_m
FN:459,460,_ZNSt16allocator_traitsISaISt23_Sp_counted_ptr_inplaceIN5Catch16TestCaseTracking14SectionTrackerESaIS3_ELN9__gnu_cxx12_Lock_policyE2EEEE8allocateERS8_m
FN:459,460,_ZNSt16allocator_traitsISaISt23_Sp_counted_ptr_inplaceIN5Catch17ReporterRegistrarINS1_11XmlReporterEE15ReporterFactoryESaIS5_ELN9__gnu_cxx12_Lock_policyE2EEEE8allocateERSA_m
FN:459,460,_ZNSt16allocator_traitsISaISt23_Sp_counted_ptr_inplaceIN5Catch17ReporterRegistrarINS1_13JunitReporterEE15ReporterFactoryESaIS5_ELN9__gnu_cxx12_Lock_policyE2EEEE8allocateERSA_m
FN:459,460,_ZNSt16allocator_traitsISaISt23_Sp_counted_ptr_inplaceIN5Catch17ReporterRegistrarINS1_15CompactReporterEE15ReporterFactoryESaIS5_ELN9__gnu_cxx12_Lock_policyE2EEEE8allocateERSA_m
FN:459,460,_ZNSt16allocator_traitsISaISt23_Sp_counted_ptr_inplaceIN5Catch17ReporterRegistrarINS1_15ConsoleReporterEE15ReporterFactoryESaIS5_ELN9__gnu_cxx12_Lock_policyE2EEEE8allocateERSA_m
FN:459,460,_ZNSt16allocator_traitsISaISt23_Sp_counted_ptr_inplaceIN5Catch22CumulativeReporterBaseINS1_13JunitReporterEE11SectionNodeESaIS5_ELN9__gnu_cxx12_Lock_policyE2EEEE8allocateERSA_m
FN:459,460,_ZNSt16allocator_traitsISaISt23_Sp_counted_ptr_inplaceIN5Catch22CumulativeReporterBaseINS1_13JunitReporterEE4NodeINS1_12TestRunStatsENS5_INS1_14TestGroupStatsENS5_INS1_13TestCaseStatsENS4_11SectionNodeEEEEEEESaISC_ELN9__gnu_cxx12_Lock_policyE2EEEE8allocateERSH_m
FN:459,460,_ZNSt16allocator_traitsISaISt23_Sp_counted_ptr_inplaceIN5Catch22CumulativeReporterBaseINS1_13JunitReporterEE4NodeINS1_13TestCaseStatsENS4_11SectionNodeEEESaIS8_ELN9__gnu_cxx12_Lock_policyE2EEEE8allocateERSD_m
FN:459,460,_ZNSt16allocator_traitsISaISt23_Sp_counted_ptr_inplaceIN5Catch22CumulativeReporterBaseINS1_13JunitReporterEE4NodeINS1_14TestGroupStatsENS5_INS1_13TestCaseStatsENS4_11SectionNodeEEEEESaISA_ELN9__gnu_cxx12_Lock_policyE2EEEE8allocateERSF_m
FN:459,460,_ZNSt16allocator_traitsISaISt23_Sp_counted_ptr_inplaceIN5Catch5clara6detail11BoundLambdaIZNS1_21makeCommandLineParserERNS1_10ConfigDataEEUlRKNSt7__cxx1112basic_stringIcSt11char_traitsIcESaIcEEEE0_EESaISG_ELN9__gnu_cxx12_Lock_policyE2EEEE8allocateERSL_m
FN:459,460,_ZNSt16allocator_traitsISaISt23_Sp_counted_ptr_inplaceIN5Catch5clara6detail11BoundLambdaIZNS1_21makeCommandLineParserERNS1_10ConfigDataEEUlRKNSt7__cxx1112basic_stringIcSt11char_traitsIcESaIcEEEE1_EESaISG_ELN9__gnu_cxx12_Lock_policyE2EEEE8allocateERSL_m
FN:459,460,_ZNSt16allocator_traitsISaISt23_Sp_counted_ptr_inplaceIN5Catch5clara6detail11BoundLambdaIZNS1_21makeCommandLineParserERNS1_10ConfigDataEEUlRKNSt7__cxx1112basic_stringIcSt11char_traitsIcESaIcEEEE2_EESaISG_ELN9__gnu_cxx12_Lock_policyE2EEEE8allocateERSL_m
FN:459,460,_ZNSt16allocator_traitsISaISt23_Sp_counted_ptr_inplaceIN5Catch5clara6detail11BoundLambdaIZNS1_21makeCommandLineParserERNS1_10ConfigDataEEUlRKNSt7__cxx1112basic_stringIcSt11char_traitsIcESaIcEEEE3_EESaISG_ELN9__gnu_cxx12_Lock_policyE2EEEE8allocateERSL_m
FN:459,460,_ZNSt16allocator_traitsISaISt23_Sp_counted_ptr_inplaceIN5Catch5clara6detail11BoundLambdaIZNS1_21makeCommandLineParserERNS1_10ConfigDataEEUlRKNSt7__cxx1112basic_stringIcSt11char_traitsIcESaIcEEEE4_EESaISG_ELN9__gnu_cxx12_Lock_policyE2EEEE8allocateERSL_m
FN:459,460,_ZNSt16allocator_traitsISaISt23_Sp_counted_ptr_inplaceIN5Catch5clara6detail11BoundLambdaIZNS1_21makeCommandLineParserERNS1_10ConfigDataEEUlRKNSt7__cxx1112basic_stringIcSt11char_traitsIcESaIcEEEE5_EESaISG_ELN9__gnu_cxx12_Lock_policyE2EEEE8allocateERSL_m
FN:459,460,_ZNSt16allocator_traitsISaISt23_Sp_counted_ptr_inplaceIN5Catch5clara6detail11BoundLambdaIZNS1_21makeCommandLineParserERNS1_10ConfigDataEEUlRKNSt7__cxx1112basic_stringIcSt11char_traitsIcESaIcEEEE6_EESaISG_ELN9__gnu_cxx12_Lock_policyE2EEEE8allocateERSL_m
FN:459,460,_ZNSt16allocator_traitsISaISt23_Sp_counted_ptr_inplaceIN5Catch5clara6detail11BoundLambdaIZNS1_21makeCommandLineParserERNS1_10ConfigDataEEUlRKNSt7__cxx1112basic_stringIcSt11char_traitsIcESaIcEEEE_EESaISG_ELN9__gnu_cxx12_Lock_policyE2EEEE8allocateERSL_m
FN:459,460,_ZNSt16allocator_traitsISaISt23_Sp_counted_ptr_inplaceIN5Catch5clara6detail11BoundLambdaIZNS1_21makeCommandLineParserERNS1_10ConfigDataEEUlbE9_EESaIS8_ELN9__gnu_cxx12_Lock_policyE2EEEE8allocateERSD_m
FN:459,460,_ZNSt16allocator_traitsISaISt23_Sp_counted_ptr_inplaceIN5Catch5clara6detail11BoundLambdaIZNS1_21makeCommandLineParserERNS1_10ConfigDataEEUliE8_EESaIS8_ELN9__gnu_cxx12_Lock_policyE2EEEE8allocateERSD_m
FN:459,460,_ZNSt16allocator_traitsISaISt23_Sp_counted_ptr_inplaceIN5Catch5clara6detail12BoundFlagRefESaIS4_ELN9__gnu_cxx12_Lock_policyE2EEEE8allocateERS9_m
FN:459,460,_ZNSt16allocator_traitsISaISt23_Sp_counted_ptr_inplaceIN5Catch5clara6detail13BoundValueRefINSt7__cxx1112basic_stringIcSt11char_traitsIcESaIcEEEEESaISB_ELN9__gnu_cxx12_Lock_policyE2EEEE8allocateERSG_m
FN:459,460,_ZNSt16allocator_traitsISaISt23_Sp_counted_ptr_inplaceIN5Catch5clara6detail13BoundValueRefISt6vectorINSt7__cxx1112basic_stringIcSt11char_traitsIcESaIcEEESaISB_EEEESaISE_ELN9__gnu_cxx12_Lock_policyE2EEEE8allocateERSJ_m
FN:459,460,_ZNSt16allocator_traitsISaISt23_Sp_counted_ptr_inplaceIN5Catch5clara6detail13BoundValueRefIdEESaIS5_ELN9__gnu_cxx12_Lock_policyE2EEEE8allocateERSA_m
FN:459,460,_ZNSt16allocator_traitsISaISt23_Sp_counted_ptr_inplaceIN5Catch5clara6detail13BoundValueRefIjEESaIS5_ELN9__gnu_cxx12_Lock_policyE2EEEE8allocateERSA_m
FN:459,460,_ZNSt16allocator_traitsISaISt23_Sp_counted_ptr_inplaceIN5Catch5clara6detail13BoundValueRefIlEESaIS5_ELN9__gnu_cxx12_Lock_policyE2EEEE8allocateERSA_m
FN:459,460,_ZNSt16allocator_traitsISaISt23_Sp_counted_ptr_inplaceIN5Catch5clara6detail15BoundFlagLambdaIZNS1_21makeCommandLineParserERNS1_10ConfigDataEEUlbE7_EESaIS8_ELN9__gnu_cxx12_Lock_policyE2EEEE8allocateERSD_m
FN:459,460,_ZNSt16allocator_traitsISaISt23_Sp_counted_ptr_inplaceIN5Catch5clara6detail15BoundFlagLambdaIZNS3_4HelpC4ERbEUlbE_EESaIS8_ELN9__gnu_cxx12_Lock_policyE2EEEE8allocateERSD_m
FN:459,460,_ZNSt16allocator_traitsISaISt23_Sp_counted_ptr_inplaceIN5Catch6ConfigESaIS2_ELN9__gnu_cxx12_Lock_policyE2EEEE8allocateERS7_m
FN:459,460,_ZNSt16allocator_traitsISaISt23_Sp_counted_ptr_inplaceIN5Catch8TestSpec10TagPatternESaIS3_ELN9__gnu_cxx12_Lock_policyE2EEEE8allocateERS8_m
FN:459,460,_ZNSt16allocator_traitsISaISt23_Sp_counted_ptr_inplaceIN5Catch8TestSpec11NamePatternESaIS3_ELN9__gnu_cxx12_Lock_policyE2EEEE8allocateERS8_m
FN:459,460,_ZNSt16allocator_traitsISaISt23_Sp_counted_ptr_inplaceIN5Catch8TestSpec15ExcludedPatternESaIS3_ELN9__gnu_cxx12_Lock_policyE2EEEE8allocateERS8_m
FN:459,460,_ZNSt16allocator_traitsISaISt23_Sp_counted_ptr_inplaceINSt7__cxx1112basic_stringIcSt11char_traitsIcESaIcEEESaIS6_ELN9__gnu_cxx12_Lock_policyE2EEEE8allocateERSB_m
FN:459,460,_ZNSt16allocator_traitsISaISt23_Sp_counted_ptr_inplaceINSt8__detail4_NFAINSt7__cxx1112regex_traitsIcEEEESaIS6_ELN9__gnu_cxx12_Lock_policyE2EEEE8allocateERSB_m
FN:459,460,_ZNSt16allocator_traitsISaISt4pairIN9__gnu_cxx17__normal_iteratorIPKcNSt7__cxx1112basic_stringIcSt11char_traitsIcESaIcEEEEEiEEE8allocateERSD_m
FN:459,460,_ZNSt16allocator_traitsISaISt4pairINSt7__cxx1112basic_stringIcSt11char_traitsIcESaIcEEES6_EEE8allocateERS8_m
FN:459,460,_ZNSt16allocator_traitsISaISt4pairIccEEE8allocateERS2_m
FN:459,460,_ZNSt16allocator_traitsISaISt4pairIiN5Catch9StringRefEEEE8allocateERS4_m
FN:459,460,_ZNSt16allocator_traitsISaISt4pairIlSt6vectorINSt7__cxx119sub_matchIN9__gnu_cxx17__normal_iteratorIPKcNS2_12basic_stringIcSt11char_traitsIcESaIcEEEEEEESaISE_EEEEE8allocateERSI_m
FN:459,460,_ZNSt16allocator_traitsISaISt4pairImPKN5Catch8TestCaseEEEE8allocateERS6_m
FN:459,460,_ZNSt16allocator_traitsISaIcEE8allocateERS0_m
FN:459,460,_ZNSt16allocator_traitsISaIlEE8allocateERS0_m
FN:459,460,_ZNSt16allocator_traitsISaImEE8allocateERS0_m
FN:491,492,_ZNSt16allocator_traitsISaIN5Catch11MessageInfoEEE10deallocateERS2_PS1_m
FN:491,492,_ZNSt16allocator_traitsISaIN5Catch11SectionInfoEEE10deallocateERS2_PS1_m
FN:491,492,_ZNSt16allocator_traitsISaIN5Catch12_GLOBAL__N_110ColumnInfoEEE10deallocateERS3_PS2_m
FN:491,492,_ZNSt16allocator_traitsISaIN5Catch13ScopedMessageEEE10deallocateERS2_PS1_m
FN:491,492,_ZNSt16allocator_traitsISaIN5Catch13SummaryColumnEEE10deallocateERS2_PS1_m
FN:491,492,_ZNSt16allocator_traitsISaIN5Catch14AssertionStatsEEE10deallocateERS2_PS1_m
FN:491,492,_ZNSt16allocator_traitsISaIN5Catch14SectionEndInfoEEE10deallocateERS2_PS1_m
FN:491,492,_ZNSt16allocator_traitsISaIN5Catch5clara6detail11HelpColumnsEEE10deallocateERS4_PS3_m
FN:491,492,_ZNSt16allocator_traitsISaIN5Catch5clara6detail3ArgEEE10deallocateERS4_PS3_m
FN:491,492,_ZNSt16allocator_traitsISaIN5Catch5clara6detail3OptEEE10deallocateERS4_PS3_m
FN:491,492,_ZNSt16allocator_traitsISaIN5Catch5clara6detail5TokenEEE10deallocateERS4_PS3_m
FN:491,492,_ZNSt16allocator_traitsISaIN5Catch5clara8TextFlow6Column8iteratorEEE10deallocateERS5_PS4_m
FN:491,492,_ZNSt16allocator_traitsISaIN5Catch5clara8TextFlow6ColumnEEE10deallocateERS4_PS3_m
FN:491,492,_ZNSt16allocator_traitsISaIN5Catch8TestCaseEEE10deallocateERS2_PS1_m
FN:491,492,_ZNSt16allocator_traitsISaIN5Catch8TestSpec11FilterMatchEEE10deallocateERS3_PS2_m
FN:491,492,_ZNSt16allocator_traitsISaIN5Catch8TestSpec6FilterEEE10deallocateERS3_PS2_m
FN:491,492,_ZNSt16allocator_traitsISaIN5Catch9StringRefEEE10deallocateERS2_PS1_m
FN:491,492,_ZNSt16allocator_traitsISaINSt15__exception_ptr13exception_ptrEEE10deallocateERS2_PS1_m
FN:491,492,_ZNSt16allocator_traitsISaINSt7__cxx1112basic_stringIcSt11char_traitsIcESaIcEEEEE10deallocateERS6_PS5_m
FN:491,492,_ZNSt16allocator_traitsISaINSt7__cxx1112regex_traitsIcE10_RegexMaskEEE10deallocateERS4_PS3_m
FN:491,492,_ZNSt16allocator_traitsISaINSt7__cxx119sub_matchIN9__gnu_cxx17__normal_iteratorIPKcNS0_12basic_stringIcSt11char_traitsIcESaIcEEEEEEEEE10deallocateERSD_PSC_m
FN:491,492,_ZNSt16allocator_traitsISaINSt8__detail6_StateIcEEEE10deallocateERS3_PS2_m
FN:491,492,_ZNSt16allocator_traitsISaINSt8__detail9_StateSeqINSt7__cxx1112regex_traitsIcEEEEEE10deallocateERS6_PS5_m
FN:491,492,_ZNSt16allocator_traitsISaIPKN5Catch8TestCaseEEE10deallocateERS4_PS3_m
FN:491,492,_ZNSt16allocator_traitsISaIPN5Catch10ISingletonEEE10deallocateERS3_PS2_m
FN:491,492,_ZNSt16allocator_traitsISaIPN5Catch16TestCaseTracking8ITrackerEEE10deallocateERS4_PS3_m
FN:491,492,_ZNSt16allocator_traitsISaIPNSt8__detail9_StateSeqINSt7__cxx1112regex_traitsIcEEEEEE10deallocateERS7_PS6_m
FN:491,492,_ZNSt16allocator_traitsISaIPcEE10deallocateERS1_PS0_m
FN:491,492,_ZNSt16allocator_traitsISaIPlEE10deallocateERS1_PS0_m
FN:491,492,_ZNSt16allocator_traitsISaISt10shared_ptrIN5Catch16IReporterFactoryEEEE10deallocateERS4_PS3_m
FN:491,492,_ZNSt16allocator_traitsISaISt10shared_ptrIN5Catch16TestCaseTracking8ITrackerEEEE10deallocateERS5_PS4_m
FN:491,492,_ZNSt16allocator_traitsISaISt10shared_ptrIN5Catch22CumulativeReporterBaseINS1_13JunitReporterEE11SectionNodeEEEE10deallocateERS7_PS6_m
FN:491,492,_ZNSt16allocator_traitsISaISt10shared_ptrIN5Catch22CumulativeReporterBaseINS1_13JunitReporterEE4NodeINS1_12TestRunStatsENS5_INS1_14TestGroupStatsENS5_INS1_13TestCaseStatsENS4_11SectionNodeEEEEEEEEEE10deallocateERSE_PSD_m
FN:491,492,_ZNSt16allocator_traitsISaISt10shared_ptrIN5Catch22CumulativeReporterBaseINS1_13JunitReporterEE4NodeINS1_13TestCaseStatsENS4_11SectionNodeEEEEEE10deallocateERSA_PS9_m
FN:491,492,_ZNSt16allocator_traitsISaISt10shared_ptrIN5Catch22CumulativeReporterBaseINS1_13JunitReporterEE4NodeINS1_14TestGroupStatsENS5_INS1_13TestCaseStatsENS4_11SectionNodeEEEEEEEE10deallocateERSC_PSB_m
FN:491,492,_ZNSt16allocator_traitsISaISt10shared_ptrIN5Catch8TestSpec7PatternEEEE10deallocateERS5_PS4_m
FN:491,492,_ZNSt16allocator_traitsISaISt10unique_ptrIKN5Catch20IExceptionTranslatorESt14default_deleteIS3_EEEE10deallocateERS7_PS6_m
FN:491,492,_ZNSt16allocator_traitsISaISt10unique_ptrIN5Catch18IStreamingReporterESt14default_deleteIS2_EEEE10deallocateERS6_PS5_m
FN:491,492,_ZNSt16allocator_traitsISaISt10unique_ptrIN5Catch6Detail8EnumInfoESt14default_deleteIS3_EEEE10deallocateERS7_PS6_m
FN:491,492,_ZNSt16allocator_traitsISaISt10unique_ptrINSt7__cxx1119basic_ostringstreamIcSt11char_traitsIcESaIcEEESt14default_deleteIS6_EEEE10deallocateERSA_PS9_m
FN:491,492,_ZNSt16allocator_traitsISaISt13_Rb_tree_nodeIN5Catch8TestCaseEEEE10deallocateERS4_PS3_m
FN:491,492,_ZNSt16allocator_traitsISaISt13_Rb_tree_nodeIN5Catch9VerbosityEEEE10deallocateERS4_PS3_m
FN:491,492,_ZNSt16allocator_traitsISaISt13_Rb_tree_nodeINSt7__cxx1112basic_stringIcSt11char_traitsIcESaIcEEEEEE10deallocateERS8_PS7_m
FN:491,492,_ZNSt16allocator_traitsISaISt13_Rb_tree_nodeIPKN5Catch8TestCaseEEEE10deallocateERS6_PS5_m
FN:491,492,_ZNSt16allocator_traitsISaISt13_Rb_tree_nodeISt4pairIKNSt7__cxx1112basic_stringIcSt11char_traitsIcESaIcEEEN5Catch7TagInfoEEEEE10deallocateERSD_PSC_m
FN:491,492,_ZNSt16allocator_traitsISaISt13_Rb_tree_nodeISt4pairIKNSt7__cxx1112basic_stringIcSt11char_traitsIcESaIcEEEN5Catch8TagAliasEEEEE10deallocateERSD_PSC_m
FN:491,492,_ZNSt16allocator_traitsISaISt13_Rb_tree_nodeISt4pairIKNSt7__cxx1112basic_stringIcSt11char_traitsIcESaIcEEESt10shared_ptrIN5Catch16IReporterFactoryEEEEEE10deallocateERSF_PSE_m
FN:491,492,_ZNSt16allocator_traitsISaISt13_Rb_tree_nodeISt4pairIKllEEEE10deallocateERS5_PS4_m
FN:491,492,_ZNSt16allocator_traitsISaISt23_Sp_counted_ptr_inplaceIN5Catch10Generators16GeneratorTrackerESaIS3_ELN9__gnu_cxx12_Lock_policyE2EEEE10deallocateERS8_PS7_m
FN:491,492,_ZNSt16allocator_traitsISaISt23_Sp_counted_ptr_inplaceIN5Catch16TestCaseTracking14SectionTrackerESaIS3_ELN9__gnu_cxx12_Lock_policyE2EEEE10deallocateERS8_PS7_m
FN:491,492,_ZNSt16allocator_traitsISaISt23_Sp_counted_ptr_inplaceIN5Catch17ReporterRegistrarINS1_11XmlReporterEE15ReporterFactoryESaIS5_ELN9__gnu_cxx12_Lock_policyE2EEEE10deallocateERSA_PS9_m
FN:491,492,_ZNSt16allocator_traitsISaISt23_Sp_counted_ptr_inplaceIN5Catch17ReporterRegistrarINS1_13JunitReporterEE15ReporterFactoryESaIS5_ELN9__gnu_cxx12_Lock_policyE2EEEE10deallocateERSA_PS9_m
FN:491,492,_ZNSt16allocator_traitsISaISt23_Sp_counted_ptr_inplaceIN5Catch17ReporterRegistrarINS1_15CompactReporterEE15ReporterFactoryESaIS5_ELN9__gnu_cxx12_Lock_policyE2EEEE10deallocateERSA_PS9_m
FN:491,492,_ZNSt16allocator_traitsISaISt23_Sp_counted_ptr_inplaceIN5Catch17ReporterRegistrarINS1_15ConsoleReporterEE15ReporterFactoryESaIS5_ELN9__gnu_cxx12_Lock_policyE2EEEE10deallocateERSA_PS9_m
FN:491,492,_ZNSt16allocator_traitsISaISt23_Sp_counted_ptr_inplaceIN5Catch22CumulativeReporterBaseINS1_13JunitReporterEE11SectionNodeESaIS5_ELN9__gnu_cxx12_Lock_policyE2EEEE10deallocateERSA_PS9_m
FN:491,492,_ZNSt16allocator_traitsISaISt23_Sp_counted_ptr_inplaceIN5Catch22CumulativeReporterBaseINS1_13JunitReporterEE4NodeINS1_12TestRunStatsENS5_INS1_14TestGroupStatsENS5_INS1_13TestCaseStatsENS4_11SectionNodeEEEEEEESaISC_ELN9__gnu_cxx12_Lock_policyE2EEEE10deallocateERSH_PSG_m
FN:491,492,_ZNSt16allocator_traitsISaISt23_Sp_counted_ptr_inplaceIN5Catch22CumulativeReporterBaseINS1_13JunitReporterEE4NodeINS1_13TestCaseStatsENS4_11SectionNodeEEESaIS8_ELN9__gnu_cxx12_Lock_policyE2EEEE10deallocateERSD_PSC_m
FN:491,492,_ZNSt16allocator_traitsISaISt23_Sp_counted_ptr_inplaceIN5Catch22CumulativeReporterBaseINS1_13JunitReporterEE4NodeINS1_14TestGroupStatsENS5_INS1_13TestCaseStatsENS4_11SectionNodeEEEEESaISA_ELN9__gnu_cxx12_Lock_policyE2EEEE10deallocateERSF_PSE_m
FN:491,492,_ZNSt16allocator_traitsISaISt23_Sp_counted_ptr_inplaceIN5Catch5clara6detail11BoundLambdaIZNS1_21makeCommandLineParserERNS1_10ConfigDataEEUlRKNSt7__cxx1112basic_stringIcSt11char_traitsIcESaIcEEEE0_EESaISG_ELN9__gnu_cxx12_Lock_policyE2EEEE10deallocateERSL_PSK_m
FN:491,492,_ZNSt16allocator_traitsISaISt23_Sp_counted_ptr_inplaceIN5Catch5clara6detail11BoundLambdaIZNS1_21makeCommandLineParserERNS1_10ConfigDataEEUlRKNSt7__cxx1112basic_stringIcSt11char_traitsIcESaIcEEEE1_EESaISG_ELN9__gnu_cxx12_Lock_policyE2EEEE10deallocateERSL_PSK_m
FN:491,492,_ZNSt16allocator_traitsISaISt23_Sp_counted_ptr_inplaceIN5Catch5clara6detail11BoundLambdaIZNS1_21makeCommandLineParserERNS1_10ConfigDataEEUlRKNSt7__cxx1112basic_stringIcSt11char_traitsIcESaIcEEEE2_EESaISG_ELN9__gnu_cxx12_Lock_policyE2EEEE10deallocateERSL_PSK_m
FN:491,492,_ZNSt16allocator_traitsISaISt23_Sp_counted_ptr_inplaceIN5Catch5clara6detail11BoundLambdaIZNS1_21makeCommandLineParserERNS1_10ConfigDataEEUlRKNSt7__cxx1112basic_stringIcSt11char_traitsIcESaIcEEEE3_EESaISG_ELN9__gnu_cxx12_Lock_policyE2EEEE10deallocateERSL_PSK_m
FN:491,492,_ZNSt16allocator_traitsISaISt23_Sp_counted_ptr_inplaceIN5Catch5clara6detail11BoundLambdaIZNS1_21makeCommandLineParserERNS1_10ConfigDataEEUlRKNSt7__cxx1112basic_stringIcSt11char_traitsIcESaIcEEEE4_EESaISG_ELN9__gnu_cxx12_Lock_policyE2EEEE10deallocateERSL_PSK_m
FN:491,492,_ZNSt16allocator_traitsISaISt23_Sp_counted_ptr_inplaceIN5Catch5clara6detail11BoundLambdaIZNS1_21makeCommandLineParserERNS1_10ConfigDataEEUlRKNSt7__cxx1112basic_stringIcSt11char_traitsIcESaIcEEEE5_EESaISG_ELN9__gnu_cxx12_Lock_policyE2EEEE10deallocateERSL_PSK_m
FN:491,492,_ZNSt16allocator_traitsISaISt23_Sp_counted_ptr_inplaceIN5Catch5clara6detail11BoundLambdaIZNS1_21makeCommandLineParserERNS1_10ConfigDataEEUlRKNSt7__cxx1112basic_stringIcSt11char_traitsIcESaIcEEEE6_EESaISG_ELN9__gnu_cxx12_Lock_policyE2EEEE10deallocateERSL_PSK_m
FN:491,492,_ZNSt16allocator_traitsISaISt23_Sp_counted_ptr_inplaceIN5Catch5clara6detail11BoundLambdaIZNS1_21makeCommandLineParserERNS1_10ConfigDataEEUlRKNSt7__cxx1112basic_stringIcSt11char_traitsIcESaIcEEEE_EESaISG_ELN9__gnu_cxx12_Lock_policyE2EEEE10deallocateERSL_PSK_m
FN:491,492,_ZNSt16allocator_traitsISaISt23_Sp_counted_ptr_inplaceIN5Catch5clara6detail11BoundLambdaIZNS1_21makeCommandLineParserERNS1_10ConfigDataEEUlbE9_EESaIS8_ELN9__gnu_cxx12_Lock_policyE2EEEE10deallocateERSD_PSC_m
FN:491,492,_ZNSt16allocator_traitsISaISt23_Sp_counted_ptr_inplaceIN5Catch5clara6detail11BoundLambdaIZNS1_21makeCommandLineParserERNS1_10ConfigDataEEUliE8_EESaIS8_ELN9__gnu_cxx12_Lock_policyE2EEEE10deallocateERSD_PSC_m
FN:491,492,_ZNSt16allocator_traitsISaISt23_Sp_counted_ptr_inplaceIN5Catch5clara6detail12BoundFlagRefESaIS4_ELN9__gnu_cxx12_Lock_policyE2EEEE10deallocateERS9_PS8_m
FN:491,492,_ZNSt16allocator_traitsISaISt23_Sp_counted_ptr_inplaceIN5Catch5clara6detail13BoundValueRefINSt7__cxx1112basic_stringIcSt11char_traitsIcESaIcEEEEESaISB_ELN9__gnu_cxx12_Lock_policyE2EEEE10deallocateERSG_PSF_m
FN:491,492,_ZNSt16allocator_traitsISaISt23_Sp_counted_ptr_inplaceIN5Catch5clara6detail13BoundValueRefISt6vectorINSt7__cxx1112basic_stringIcSt11char_traitsIcESaIcEEESaISB_EEEESaISE_ELN9__gnu_cxx12_Lock_policyE2EEEE10deallocateERSJ_PSI_m
FN:491,492,_ZNSt16allocator_traitsISaISt23_Sp_counted_ptr_inplaceIN5Catch5clara6detail13BoundValueRefIdEESaIS5_ELN9__gnu_cxx12_Lock_policyE2EEEE10deallocateERSA_PS9_m
FN:491,492,_ZNSt16allocator_traitsISaISt23_Sp_counted_ptr_inplaceIN5Catch5clara6detail13BoundValueRefIjEESaIS5_ELN9__gnu_cxx12_Lock_policyE2EEEE10deallocateERSA_PS9_m
FN:491,492,_ZNSt16allocator_traitsISaISt23_Sp_counted_ptr_inplaceIN5Catch5clara6detail13BoundValueRefIlEESaIS5_ELN9__gnu_cxx12_Lock_policyE2EEEE10deallocateERSA_PS9_m
FN:491,492,_ZNSt16allocator_traitsISaISt23_Sp_counted_ptr_inplaceIN5Catch5clara6detail15BoundFlagLambdaIZNS1_21makeCommandLineParserERNS1_10ConfigDataEEUlbE7_EESaIS8_ELN9__gnu_cxx12_Lock_policyE2EEEE10deallocateERSD_PSC_m
FN:491,492,_ZNSt16allocator_traitsISaISt23_Sp_counted_ptr_inplaceIN5Catch5clara6detail15BoundFlagLambdaIZNS3_4HelpC4ERbEUlbE_EESaIS8_ELN9__gnu_cxx12_Lock_policyE2EEEE10deallocateERSD_PSC_m
FN:491,492,_ZNSt16allocator_traitsISaISt23_Sp_counted_ptr_inplaceIN5Catch6ConfigESaIS2_ELN9__gnu_cxx12_Lock_policyE2EEEE10deallocateERS7_PS6_m
FN:491,492,_ZNSt16allocator_traitsISaISt23_Sp_counted_ptr_inplaceIN5Catch8TestSpec10TagPatternESaIS3_ELN9__gnu_cxx12_Lock_policyE2EEEE10deallocateERS8_PS7_m
FN:491,492,_ZNSt16allocator_traitsISaISt23_Sp_counted_ptr_inplaceIN5Catch8TestSpec11NamePatternESaIS3_ELN9__gnu_cxx12_Lock_policyE2EEEE10deallocateERS8_PS7_m
FN:491,492,_ZNSt16allocator_traitsISaISt23_Sp_counted_ptr_inplaceIN5Catch8TestSpec15ExcludedPatternESaIS3_ELN9__gnu_cxx12_Lock_policyE2EEEE10deallocateERS8_PS7_m
FN:491,492,_ZNSt16allocator_traitsISaISt23_Sp_counted_ptr_inplaceINSt7__cxx1112basic_stringIcSt11char_traitsIcESaIcEEESaIS6_ELN9__gnu_cxx12_Lock_policyE2EEEE10deallocateERSB_PSA_m
FN:491,492,_ZNSt16allocator_traitsISaISt23_Sp_counted_ptr_inplaceINSt8__detail4_NFAINSt7__cxx1112regex_traitsIcEEEESaIS6_ELN9__gnu_cxx12_Lock_policyE2EEEE10deallocateERSB_PSA_m
FN:491,492,_ZNSt16allocator_traitsISaISt4pairIN9__gnu_cxx17__normal_iteratorIPKcNSt7__cxx1112basic_stringIcSt11char_traitsIcESaIcEEEEEiEEE10deallocateERSD_PSC_m
FN:491,492,_ZNSt16allocator_traitsISaISt4pairINSt7__cxx1112basic_stringIcSt11char_traitsIcESaIcEEES6_EEE10deallocateERS8_PS7_m
FN:491,492,_ZNSt16allocator_traitsISaISt4pairIccEEE10deallocateERS2_PS1_m
FN:491,492,_ZNSt16allocator_traitsISaISt4pairIiN5Catch9StringRefEEEE10deallocateERS4_PS3_m
FN:491,492,_ZNSt16allocator_traitsISaISt4pairIlSt6vectorINSt7__cxx119sub_matchIN9__gnu_cxx17__normal_iteratorIPKcNS2_12basic_stringIcSt11char_traitsIcESaIcEEEEEEESaISE_EEEEE10deallocateERSI_PSH_m
FN:491,492,_ZNSt16allocator_traitsISaISt4pairImPKN5Catch8TestCaseEEEE10deallocateERS6_PS5_m
FN:491,492,_ZNSt16allocator_traitsISaISt6vectorISt10shared_ptrIN5Catch22CumulativeReporterBaseINS2_13JunitReporterEE11SectionNodeEESaIS7_EEEE10deallocateERSA_PS9_m
FN:491,492,_ZNSt16allocator_traitsISaIcEE10deallocateERS0_Pcm
FN:491,492,_ZNSt16allocator_traitsISaIlEE10deallocateERS0_Plm
FN:491,492,_ZNSt16allocator_traitsISaImEE10deallocateERS0_Pmm
FN:507,516,_ZNSt16allocator_traitsISaIN5Catch10Generators16GeneratorTrackerEEE9constructIS2_JRKNS0_16TestCaseTracking15NameAndLocationERNS6_14TrackerContextEPNS6_8ITrackerEEEEvRS3_PT_DpOT0_
FN:507,516,_ZNSt16allocator_traitsISaIN5Catch11MessageInfoEEE9constructIS1_JRKS1_EEEvRS2_PT_DpOT0_
FN:507,516,_ZNSt16allocator_traitsISaIN5Catch11MessageInfoEEE9constructIS1_JRNS0_9StringRefERKNS0_14SourceLineInfoERNS0_9ResultWas6OfTypeEEEEvRS2_PT_DpOT0_
FN:507,516,_ZNSt16allocator_traitsISaIN5Catch11MessageInfoEEE9constructIS1_JS1_EEEvRS2_PT_DpOT0_
FN:507,516,_ZNSt16allocator_traitsISaIN5Catch11SectionInfoEEE9constructIS1_JRKS1_EEEvRS2_PT_DpOT0_
FN:507,516,_ZNSt16allocator_traitsISaIN5Catch11SectionInfoEEE9constructIS1_JS1_EEEvRS2_PT_DpOT0_
FN:507,516,_ZNSt16allocator_traitsISaIN5Catch13ScopedMessageEEE9constructIS1_JRKNS0_14MessageBuilderEEEEvRS2_PT_DpOT0_
FN:507,516,_ZNSt16allocator_traitsISaIN5Catch13SummaryColumnEEE9constructIS1_JS1_EEEvRS2_PT_DpOT0_
FN:507,516,_ZNSt16allocator_traitsISaIN5Catch14AssertionStatsEEE9constructIS1_JRKS1_EEEvRS2_PT_DpOT0_
FN:507,516,_ZNSt16allocator_traitsISaIN5Catch14SectionEndInfoEEE9constructIS1_JRKS1_EEEvRS2_PT_DpOT0_
FN:507,516,_ZNSt16allocator_traitsISaIN5Catch14SectionEndInfoEEE9constructIS1_JS1_EEEvRS2_PT_DpOT0_
FN:507,516,_ZNSt16allocator_traitsISaIN5Catch16TestCaseTracking14SectionTrackerEEE9constructIS2_JNS1_15NameAndLocationERNS1_14TrackerContextEDnEEEvRS3_PT_DpOT0_
FN:507,516,_ZNSt16allocator_traitsISaIN5Catch16TestCaseTracking14SectionTrackerEEE9constructIS2_JRKNS1_15NameAndLocationERNS1_14TrackerContextEPNS1_8ITrackerEEEEvRS3_PT_DpOT0_
FN:507,516,_ZNSt16allocator_traitsISaIN5Catch17ReporterRegistrarINS0_11XmlReporterEE15ReporterFactoryEEE9constructIS4_JEEEvRS5_PT_DpOT0_
FN:507,516,_ZNSt16allocator_traitsISaIN5Catch17ReporterRegistrarINS0_13JunitReporterEE15ReporterFactoryEEE9constructIS4_JEEEvRS5_PT_DpOT0_
FN:507,516,_ZNSt16allocator_traitsISaIN5Catch17ReporterRegistrarINS0_15CompactReporterEE15ReporterFactoryEEE9constructIS4_JEEEvRS5_PT_DpOT0_
