TN:
SF:/home/marija/Desktop/2024_Analysis_12-Uno/12-UNO/UNO/headers/gameGUI.h
FN:30,30,_ZN7GameGUI2trEPKcS1_i
FNDA:0,_ZN7GameGUI2trEPKcS1_i
FNF:1
FNH:0
DA:30,0
LF:1
LH:0
end_of_record
TN:
SF:/home/marija/Desktop/2024_Analysis_12-Uno/12-UNO/UNO/headers/pc.h
FNF:0
FNH:0
DA:26,0
LF:1
LH:0
end_of_record
TN:
SF:/home/marija/Desktop/2024_Analysis_12-Uno/12-UNO/UNO/headers/player.h
FNF:0
FNH:0
DA:52,28
LF:1
LH:1
end_of_record
TN:
SF:/home/marija/Desktop/2024_Analysis_12-Uno/12-UNO/UNO/sources/card.cpp
FN:101,101,_ZNK4Card11getCardTypeEv
FN:103,103,_ZNK4Card10getCardNumEv
FN:105,105,_ZN4Card8setColorENS_5COLORE
FN:107,107,_ZN4Card11setCardTypeENS_9CARD_TYPEE
FN:109,109,_ZN4Card10setCardNumEi
FN:11,36,_ZN4CardC2ENS_5COLORENS_9CARD_TYPEEi
FN:111,115,_ZNK4CardeqERKS_
FN:117,120,_ZNK4CardneERKS_
FN:122,144,_ZNK4Card10isPlayableEPv
FN:146,172,_ZN4Card4playEPv
FN:186,226,_ZN4Card6toHashEv
FN:228,281,_ZN4Card10hashToCardERKi
FN:283,329,_ZNK4Card8toStringB5cxx11Ev
FN:332,336,_ZlsRSoRK4Card
FN:38,51,_ZN4CardC2ENS_5COLOREi
FN:53,65,_ZN4CardC2ENS_5COLORENS_9CARD_TYPEE
FN:67,67,_ZN4CardD0Ev
FN:67,67,_ZN4CardD2Ev
FN:69,82,_ZN4Card9charColorERKc
FN:84,97,_ZN4Card9colorCharERKNS_5COLORE
FN:9,9,_ZN4CardC2Ev
FN:99,99,_ZNK4Card8getColorEv
FNDA:94,_ZNK4Card11getCardTypeEv
FNDA:17,_ZNK4Card10getCardNumEv
FNDA:0,_ZN4Card8setColorENS_5COLORE
FNDA:0,_ZN4Card11setCardTypeENS_9CARD_TYPEE
FNDA:0,_ZN4Card10setCardNumEi
FNDA:1967,_ZN4CardC2ENS_5COLORENS_9CARD_TYPEEi
FNDA:4,_ZNK4CardeqERKS_
FNDA:2,_ZNK4CardneERKS_
FNDA:0,_ZNK4Card10isPlayableEPv
FNDA:0,_ZN4Card4playEPv
FNDA:113,_ZN4Card6toHashEv
FNDA:9,_ZN4Card10hashToCardERKi
FNDA:6,_ZNK4Card8toStringB5cxx11Ev
FNDA:0,_ZlsRSoRK4Card
FNDA:76,_ZN4CardC2ENS_5COLOREi
FNDA:15,_ZN4CardC2ENS_5COLORENS_9CARD_TYPEE
FNDA:1367,_ZN4CardD0Ev
FNDA:1471,_ZN4CardD2Ev
FNDA:0,_ZN4Card9charColorERKc
FNDA:0,_ZN4Card9colorCharERKNS_5COLORE
FNDA:5,_ZN4CardC2Ev
FNDA:32,_ZNK4Card8getColorEv
FNF:22
FNH:14
DA:9,5
DA:11,1967
DA:14,1967
DA:16,1967
DA:17,152
DA:18,1
DA:20,1966
DA:22,3
DA:24,1963
DA:25,1814
DA:26,0
DA:28,1963
DA:29,1380
DA:30,2
DA:32,2
DA:34,1961
DA:35,1
DA:36,1960
DA:38,76
DA:41,76
DA:43,76
DA:44,1
DA:46,75
DA:47,75
DA:48,0
DA:50,0
DA:51,75
DA:53,15
DA:56,15
DA:58,15
DA:60,1
DA:62,14
DA:63,13
DA:64,2
DA:65,12
DA:67,2838
DA:69,0
DA:71,0
DA:73,0
DA:74,0
DA:75,0
DA:76,0
DA:77,0
DA:78,0
DA:79,0
DA:80,0
DA:84,0
DA:86,0
DA:88,0
DA:89,0
DA:90,0
DA:91,0
DA:92,0
DA:93,0
DA:94,0
DA:95,0
DA:99,32
DA:101,94
DA:103,17
DA:105,0
DA:107,0
DA:109,0
DA:111,4
DA:113,7
DA:114,7
DA:117,2
DA:119,2
DA:122,0
DA:125,0
DA:127,0
DA:129,0
DA:132,0
DA:134,0
DA:136,0
DA:138,0
DA:142,0
DA:146,0
DA:148,0
DA:150,0
DA:152,0
DA:153,0
DA:154,0
DA:155,0
DA:156,0
DA:157,0
DA:158,0
DA:159,0
DA:160,0
DA:161,0
DA:162,0
DA:163,0
DA:165,0
DA:166,0
DA:168,0
DA:169,0
DA:170,0
DA:172,0
DA:186,113
DA:188,113
DA:190,113
DA:192,31
DA:193,31
DA:194,31
DA:195,25
DA:196,25
DA:197,25
DA:198,32
DA:199,32
DA:200,32
DA:201,25
DA:202,25
DA:203,25
DA:204,0
DA:205,0
DA:207,113
DA:209,83
DA:210,83
DA:211,83
DA:212,13
DA:213,13
DA:214,13
DA:215,8
DA:216,8
DA:217,8
DA:218,9
DA:219,9
DA:220,9
DA:221,0
DA:222,0
DA:225,113
DA:228,9
DA:230,9
DA:231,9
DA:233,9
DA:235,1
DA:237,1
DA:239,0
DA:241,0
DA:244,8
DA:246,3
DA:247,3
DA:249,5
DA:251,3
DA:252,3
DA:254,2
DA:256,2
DA:257,2
DA:261,0
DA:262,0
DA:265,8
DA:267,2
DA:269,6
DA:271,1
DA:273,5
DA:275,0
DA:279,5
DA:283,6
DA:285,12
DA:287,6
DA:289,0
DA:290,0
DA:291,0
DA:292,2
DA:293,2
DA:294,2
DA:295,4
DA:296,4
DA:297,4
DA:298,0
DA:299,0
DA:300,0
DA:301,0
DA:302,0
DA:305,6
DA:307,6
DA:309,4
DA:310,4
DA:311,4
DA:312,0
DA:313,0
DA:314,0
DA:315,2
DA:316,2
DA:317,2
DA:318,0
DA:319,0
DA:320,0
DA:321,0
DA:322,0
DA:323,0
DA:324,0
DA:325,0
DA:328,18
DA:332,0
DA:334,0
DA:335,0
LF:196
LH:109
end_of_record
TN:
SF:/home/marija/Desktop/2024_Analysis_12-Uno/12-UNO/UNO/sources/client.cpp
FN:13,16,_ZN6ClientC2EP7QObject
FN:136,143,_ZN6Client10getMessageEv
FN:145,149,_ZN6Client11sendMessageE7QString
FN:151,158,_Z8connect1iP8sockaddrj
FN:18,24,_ZN6ClientC2EP7QObject7QStringS2_b
FN:26,26,_ZN6ClientD0Ev
FN:26,26,_ZN6ClientD2Ev
FN:28,28,_ZN6Client6isHostEv
FN:30,134,_ZN6Client3runEv
FNDA:0,_ZN6ClientC2EP7QObject
FNDA:0,_ZN6Client10getMessageEv
FNDA:0,_ZN6Client11sendMessageE7QString
FNDA:0,_Z8connect1iP8sockaddrj
FNDA:0,_ZN6ClientC2EP7QObject7QStringS2_b
FNDA:0,_ZN6ClientD0Ev
FNDA:0,_ZN6ClientD2Ev
FNDA:0,_ZN6Client6isHostEv
FNDA:0,_ZN6Client3runEv
FNF:9
FNH:0
DA:13,0
DA:14,0
DA:16,0
DA:18,0
DA:20,0
DA:21,0
DA:22,0
DA:24,0
DA:26,0
DA:28,0
DA:30,0
DA:32,0
DA:33,0
DA:34,0
DA:36,0
DA:37,0
DA:42,0
DA:43,0
DA:45,0
DA:46,0
DA:48,0
DA:49,0
DA:53,0
DA:55,0
DA:59,0
DA:61,0
DA:63,0
DA:64,0
DA:67,0
DA:69,0
DA:71,0
DA:73,0
DA:75,0
DA:76,0
DA:77,0
DA:78,0
DA:79,0
DA:80,0
DA:81,0
DA:82,0
DA:83,0
DA:84,0
DA:85,0
DA:86,0
DA:87,0
DA:88,0
DA:91,0
DA:93,0
DA:95,0
DA:97,0
DA:99,0
DA:101,0
DA:102,0
DA:104,0
DA:106,0
DA:108,0
DA:111,0
DA:113,0
DA:118,0
DA:119,0
DA:121,0
DA:123,0
DA:125,0
DA:126,0
DA:130,0
DA:131,0
DA:134,0
DA:136,0
DA:139,0
DA:140,0
DA:141,0
DA:142,0
DA:145,0
DA:147,0
DA:149,0
DA:151,0
DA:153,0
DA:155,0
DA:156,0
DA:158,0
LF:80
LH:0
end_of_record
TN:
SF:/home/marija/Desktop/2024_Analysis_12-Uno/12-UNO/UNO/sources/deck.cpp
FN:101,116,_ZN4Deck13drawFirstCardEv
FN:11,44,_ZN4DeckC2Ev
FN:118,118,_ZNK4Deck11getDeckSizeEv
FN:120,120,_ZNK4Deck7isEmptyEv
FN:122,127,_ZN4Deck9spreadOutE5QListIP6PlayerE
FN:46,50,_ZN4DeckD2Ev
FN:52,52,_ZN4DeckC2ERK5QListIiE
FN:54,61,_ZN4Deck6toHashEv
FN:63,70,_ZN4Deck10hashToDeckERK5QListIiE
FN:72,82,_ZN4Deck6refillEP4Pile
FN:84,89,_ZN4Deck7shuffleEv
FN:91,99,_ZN4Deck8drawCardEv
FNDA:6,_ZN4Deck13drawFirstCardEv
FNDA:18,_ZN4DeckC2Ev
FNDA:45,_ZNK4Deck11getDeckSizeEv
FNDA:33,_ZNK4Deck7isEmptyEv
FNDA:1,_ZN4Deck9spreadOutE5QListIP6PlayerE
FNDA:18,_ZN4DeckD2Ev
FNDA:0,_ZN4DeckC2ERK5QListIiE
FNDA:1,_ZN4Deck6toHashEv
FNDA:3,_ZN4Deck10hashToDeckERK5QListIiE
FNDA:1,_ZN4Deck6refillEP4Pile
FNDA:2,_ZN4Deck7shuffleEv
FNDA:355,_ZN4Deck8drawCardEv
FNF:12
FNH:11
DA:11,18
DA:13,18
DA:14,18
DA:15,18
DA:16,18
DA:19,90
DA:22,792
DA:25,720
DA:26,648
DA:27,720
DA:31,288
DA:33,216
DA:34,216
DA:39,90
DA:41,72
DA:42,72
DA:44,18
DA:46,18
DA:48,1283
DA:49,1265
DA:50,18
DA:52,0
DA:54,1
DA:56,1
DA:58,109
DA:59,108
DA:60,1
DA:63,3
DA:65,6
DA:67,8
DA:68,5
DA:69,3
DA:70,3
DA:72,1
DA:74,2
DA:76,2
DA:77,1
DA:78,1
DA:79,1
DA:80,1
DA:81,1
DA:82,1
DA:84,2
DA:86,4
DA:87,2
DA:88,2
DA:89,2
DA:91,355
DA:93,355
DA:94,0
DA:96,355
DA:97,355
DA:98,355
DA:101,6
DA:103,6
DA:105,146
DA:106,70
DA:108,70
DA:111,6
DA:113,6
DA:115,6
DA:118,45
DA:120,33
DA:122,1
DA:124,8
DA:125,35
DA:126,28
DA:127,1
LF:68
LH:66
end_of_record
TN:
SF:/home/marija/Desktop/2024_Analysis_12-Uno/12-UNO/UNO/sources/game.cpp
FN:100,100,_ZN4Game9getWinnerEv
FN:102,102,_ZN4Game9dealHandsEv
FN:104,104,_ZN4Game7getDeckEv
FN:106,110,_ZN4Game8initDeckEv
FN:112,117,_ZN4Game8initPileEv
FN:119,119,_ZN4Game18getNumberOfPlayersEv
FN:121,126,_ZN4Game5delayEi
FN:128,203,_ZN4Game3runEv
FN:14,18,_ZN4GameC2EP7QObject
FN:20,28,_ZN4GameC2EP7QObjectP14GameParameters
FN:205,212,_ZN4Game8drawCardEv
FN:214,214,_ZN4Game6isOverEv
FN:216,227,_ZN4Game20prepareCurrentPlayerEv
FN:229,229,_ZN4Game10getPlayersEv
FN:231,231,_ZN4Game11isDeckEmptyEv
FN:233,237,_ZN4Game9reshuffleEv
FN:239,239,_ZN4Game10getTopCardEv
FN:241,241,_ZN4Game21getCurrentPlayerIndexEv
FN:243,259,_ZN4Game18getNextPlayerIndexEv
FN:261,271,_ZN4Game10nextPlayerEv
FN:273,273,_ZN4Game13getNextPlayerEv
FN:275,275,_ZN4Game16getCurrentPlayerEv
FN:277,281,_ZN4Game8playCardEP4Card
FN:283,283,_ZN4Game11setGameModeENS_9GAME_MODEE
FN:285,285,_ZN4Game13swapDirectionEv
FN:287,287,_ZN4Game12setWildColorEN4Card5COLORE
FN:289,289,_ZN4Game12getWildColorEv
FN:291,299,_ZN4Game16getPlayerAtIndexEi
FN:30,63,_ZN4Game11setupParamsEP14GameParameters
FN:301,301,_ZN4Game11getDeckSizeEv
FN:305,311,_ZN4Game11loadPlayersE5QListI7QStringE
FN:313,318,_ZN4Game8loadDeckE5QListIiE
FN:320,326,_ZN4Game8loadPileEi
FN:334,442,_ZN4Game11processTurnE7QString
FN:444,444,_ZN4Game10emitRenderEv
FN:446,446,_ZN4Game8emitWildEv
FN:448,448,_ZN4Game10emitWinnerEv
FN:450,470,_ZN4Game8playZeroEv
FN:472,472,_ZN4Game15setChosenPlayerEi
FN:474,474,_ZN4Game20getChosenPlayerIndexEv
FN:476,476,_ZN4Game15getChosenPlayerEv
FN:478,478,_ZN4Game14eliminationsOnEv
FN:480,492,_ZN4Game13notEliminatedEv
FN:65,74,_ZN4Game10setupBoardEv
FN:76,80,_ZN4GameD0Ev
FN:76,80,_ZN4GameD2Ev
FN:82,86,_ZN4Game9addPlayerEP6Player
FN:88,88,_ZN4Game3endEv
FN:90,96,_ZN4Game11initPlayersEv
FN:98,98,_ZN4Game9setWinnerEP6Player
FNDA:0,_ZN4Game9getWinnerEv
FNDA:1,_ZN4Game9dealHandsEv
FNDA:0,_ZN4Game7getDeckEv
FNDA:1,_ZN4Game8initDeckEv
FNDA:1,_ZN4Game8initPileEv
FNDA:1,_ZN4Game18getNumberOfPlayersEv
FNDA:0,_ZN4Game5delayEi
FNDA:0,_ZN4Game3runEv
FNDA:1,_ZN4GameC2EP7QObject
FNDA:1,_ZN4GameC2EP7QObjectP14GameParameters
FNDA:28,_ZN4Game8drawCardEv
FNDA:0,_ZN4Game6isOverEv
FNDA:0,_ZN4Game20prepareCurrentPlayerEv
FNDA:0,_ZN4Game10getPlayersEv
FNDA:0,_ZN4Game11isDeckEmptyEv
FNDA:0,_ZN4Game9reshuffleEv
FNDA:0,_ZN4Game10getTopCardEv
FNDA:0,_ZN4Game21getCurrentPlayerIndexEv
FNDA:0,_ZN4Game18getNextPlayerIndexEv
FNDA:0,_ZN4Game10nextPlayerEv
FNDA:0,_ZN4Game13getNextPlayerEv
FNDA:0,_ZN4Game16getCurrentPlayerEv
FNDA:0,_ZN4Game8playCardEP4Card
FNDA:0,_ZN4Game11setGameModeENS_9GAME_MODEE
FNDA:0,_ZN4Game13swapDirectionEv
FNDA:0,_ZN4Game12setWildColorEN4Card5COLORE
FNDA:0,_ZN4Game12getWildColorEv
FNDA:0,_ZN4Game16getPlayerAtIndexEi
FNDA:1,_ZN4Game11setupParamsEP14GameParameters
FNDA:1,_ZN4Game11getDeckSizeEv
FNDA:0,_ZN4Game11loadPlayersE5QListI7QStringE
FNDA:0,_ZN4Game8loadDeckE5QListIiE
FNDA:0,_ZN4Game8loadPileEi
FNDA:0,_ZN4Game11processTurnE7QString
FNDA:0,_ZN4Game10emitRenderEv
FNDA:0,_ZN4Game8emitWildEv
FNDA:0,_ZN4Game10emitWinnerEv
FNDA:0,_ZN4Game8playZeroEv
FNDA:0,_ZN4Game15setChosenPlayerEi
FNDA:0,_ZN4Game20getChosenPlayerIndexEv
FNDA:0,_ZN4Game15getChosenPlayerEv
FNDA:0,_ZN4Game14eliminationsOnEv
FNDA:0,_ZN4Game13notEliminatedEv
FNDA:1,_ZN4Game10setupBoardEv
FNDA:1,_ZN4GameD0Ev
FNDA:1,_ZN4GameD2Ev
FNDA:0,_ZN4Game9addPlayerEP6Player
FNDA:0,_ZN4Game3endEv
FNDA:1,_ZN4Game11initPlayersEv
FNDA:0,_ZN4Game9setWinnerEP6Player
FNF:50
FNH:13
DA:14,1
DA:15,3
DA:17,1
DA:20,1
DA:21,1
DA:23,1
DA:25,1
DA:27,1
DA:28,1
DA:30,1
DA:32,1
DA:34,1
DA:36,1
DA:38,1
DA:39,1
DA:40,1
DA:41,0
DA:42,0
DA:43,0
DA:44,0
DA:45,0
DA:46,0
DA:47,0
DA:48,0
DA:49,0
DA:50,0
DA:51,0
DA:54,1
DA:56,1
DA:58,1
DA:60,1
DA:62,1
DA:63,1
DA:65,1
DA:67,1
DA:68,1
DA:69,1
DA:71,1
DA:72,1
DA:74,1
DA:76,2
DA:78,1
DA:79,1
DA:80,2
DA:82,0
DA:84,0
DA:85,0
DA:86,0
DA:88,0
DA:90,1
DA:92,1
DA:94,4
DA:95,3
DA:96,1
DA:98,0
DA:100,0
DA:102,1
DA:104,0
DA:106,1
DA:108,1
DA:109,1
DA:110,1
DA:112,1
DA:114,1
DA:115,1
DA:116,1
DA:117,1
DA:119,1
DA:121,0
DA:123,0
DA:124,0
DA:125,0
DA:126,0
DA:128,0
DA:132,0
DA:133,0
DA:137,0
DA:140,0
DA:143,0
DA:144,0
DA:146,0
DA:148,0
DA:151,0
DA:153,0
DA:154,0
DA:155,0
DA:158,0
DA:160,0
DA:161,0
DA:162,0
DA:164,0
DA:165,0
DA:166,0
DA:168,0
DA:169,0
DA:174,0
DA:176,0
DA:177,0
DA:178,0
DA:179,0
DA:180,0
DA:181,0
DA:184,0
DA:186,0
DA:187,0
DA:189,0
DA:191,0
DA:192,0
DA:193,0
DA:194,0
DA:197,0
DA:199,0
DA:200,0
DA:202,0
DA:203,0
DA:205,28
DA:207,28
DA:209,0
DA:211,28
DA:214,0
DA:216,0
DA:218,0
DA:220,0
DA:221,0
DA:222,0
DA:223,0
DA:224,0
DA:226,0
DA:229,0
DA:231,0
DA:233,0
DA:235,0
DA:236,0
DA:237,0
DA:239,0
DA:241,0
DA:243,0
DA:245,0
DA:248,0
DA:249,0
DA:251,0
DA:252,0
DA:254,0
DA:257,0
DA:258,0
DA:261,0
DA:263,0
DA:265,0
DA:266,0
DA:267,0
DA:270,0
DA:271,0
DA:273,0
DA:275,0
DA:277,0
DA:279,0
DA:280,0
DA:281,0
DA:283,0
DA:285,0
DA:287,0
DA:289,0
DA:291,0
DA:293,0
DA:295,0
DA:298,0
DA:301,1
DA:305,0
DA:307,0
DA:308,0
DA:309,0
DA:310,0
DA:311,0
DA:313,0
DA:315,0
DA:316,0
DA:317,0
DA:318,0
DA:320,0
DA:322,0
DA:323,0
DA:324,0
DA:325,0
DA:326,0
DA:334,0
DA:336,0
DA:338,0
DA:340,0
DA:342,0
DA:343,0
DA:344,0
DA:345,0
DA:346,0
DA:348,0
DA:349,0
DA:351,0
DA:353,0
DA:355,0
DA:356,0
DA:358,0
DA:363,0
DA:365,0
DA:366,0
DA:368,0
DA:370,0
DA:371,0
DA:372,0
DA:373,0
DA:375,0
DA:377,0
DA:379,0
DA:380,0
DA:382,0
DA:383,0
DA:385,0
DA:386,0
DA:389,0
DA:391,0
DA:393,0
DA:394,0
DA:395,0
DA:398,0
DA:400,0
DA:403,0
DA:405,0
DA:407,0
DA:410,0
DA:412,0
DA:413,0
DA:414,0
DA:417,0
DA:418,0
DA:420,0
DA:421,0
DA:422,0
DA:424,0
DA:426,0
DA:427,0
DA:432,0
DA:434,0
DA:436,0
DA:437,0
DA:442,0
DA:444,0
DA:446,0
DA:448,0
DA:450,0
DA:452,0
DA:454,0
DA:455,0
DA:457,0
DA:459,0
DA:463,0
DA:464,0
DA:466,0
DA:468,0
DA:470,0
DA:472,0
DA:474,0
DA:476,0
DA:478,0
DA:480,0
DA:482,0
DA:484,0
DA:485,0
DA:486,0
DA:487,0
DA:488,0
DA:491,0
LF:269
LH:53
end_of_record
TN:
SF:/home/marija/Desktop/2024_Analysis_12-Uno/12-UNO/UNO/sources/gameGUI.cpp
FN:126,137,_ZN7GameGUI4initEP6Client
FN:139,139,_ZN7GameGUID0Ev
FN:139,139,_ZN7GameGUID2Ev
FN:141,168,_ZN7GameGUI12setupWidgetsEi
FN:170,190,_ZN7GameGUI13generateFrameE7QString
FN:192,229,_ZN7GameGUI21generateFrame8PlayersE7QString
FN:231,277,_ZN7GameGUI14generateButtonE7QStringP6QFrame
FN:279,313,_ZN7GameGUI13generateLabelE7QStringP6QFrame
FN:315,321,_ZN7GameGUI19initMainPlayerFrameEv
FN:323,329,_ZN7GameGUI13init1BotFrameEv
FN:331,350,_ZN7GameGUI14init3BotFramesEv
FN:352,395,_ZN7GameGUI14init7BotFramesEv
FN:38,56,_ZN7GameGUIC2EP7QWidgetP14GameParameters
FN:397,421,_ZN7GameGUI25initZerosAndSevensButtonsEv
FN:414,419,_ZZN7GameGUI25initZerosAndSevensButtonsEvENKUlvE_clEv
FN:423,423,_ZN7GameGUI5debugEv
FN:425,430,_ZN7GameGUI5delayEi
FN:432,460,_ZN7GameGUI14connectButtonsEv
FN:462,474,_ZN7GameGUI14connectSignalsEv
FN:476,489,_ZN7GameGUI11renderTableEP4Card
FN:491,501,_ZN7GameGUI16renderCardOnPileEP4Card
FN:503,535,_ZN7GameGUI21renderMainPlayerFrameEP6Player
FN:537,550,_ZN7GameGUI23renderPlayerCardsInHandE5QListIP4CardE
FN:552,570,_ZN7GameGUI10onDrawCardEv
FN:572,631,_ZN7GameGUI15renderBotFramesE5QListIP6PlayerE
FN:58,124,_ZN7GameGUIC2EP7QWidgetP14GameParametersP6ServerP6Client
FN:633,649,_ZN7GameGUI16renderCardInHandEi
FN:648,648,_ZZN7GameGUI16renderCardInHandEiENKUlvE_clEv
FN:651,699,_ZN7GameGUI15checkIfPlayableEi
FN:701,709,_ZN7GameGUI27renderZerosAndSevensButtonsEv
FN:711,731,_ZN7GameGUI19showChosenWildColorEv
FN:733,750,_ZN7GameGUI15returnCardColorEN4Card5COLORE
FN:752,771,_ZN7GameGUI14returnCardTypeEN4Card9CARD_TYPEE
FN:773,786,_ZN7GameGUI16generateCardPathEP4Card
FN:788,788,_ZN7GameGUI12showWildMenuEv
FN:790,796,_ZN7GameGUI11setWildBlueEv
FN:798,805,_ZN7GameGUI10setWildRedEv
FN:807,814,_ZN7GameGUI13setWildYellowEv
FN:816,823,_ZN7GameGUI12setWildGreenEv
FN:825,829,_ZN7GameGUI8onSayUNOEv
FN:831,835,_ZN7GameGUI17displaySaidUnoMsgE7QString
FN:837,860,_ZN7GameGUI7endTurnEv
FN:862,865,_Z14compareByScorePK6PlayerS1_
FN:867,870,_Z17compareByPositionPK6PlayerS1_
FN:872,950,_ZN7GameGUI13displayWinnerEv
FN:952,964,_ZN7GameGUI10closeEventEP11QCloseEvent
FN:966,985,_ZN7GameGUI12toggleVolumeEv
FNDA:0,_ZN7GameGUI4initEP6Client
FNDA:0,_ZN7GameGUID0Ev
FNDA:0,_ZN7GameGUID2Ev
FNDA:0,_ZN7GameGUI12setupWidgetsEi
FNDA:0,_ZN7GameGUI13generateFrameE7QString
FNDA:0,_ZN7GameGUI21generateFrame8PlayersE7QString
FNDA:0,_ZN7GameGUI14generateButtonE7QStringP6QFrame
FNDA:0,_ZN7GameGUI13generateLabelE7QStringP6QFrame
FNDA:0,_ZN7GameGUI19initMainPlayerFrameEv
FNDA:0,_ZN7GameGUI13init1BotFrameEv
FNDA:0,_ZN7GameGUI14init3BotFramesEv
FNDA:0,_ZN7GameGUI14init7BotFramesEv
FNDA:0,_ZN7GameGUIC2EP7QWidgetP14GameParameters
FNDA:0,_ZN7GameGUI25initZerosAndSevensButtonsEv
FNDA:0,_ZZN7GameGUI25initZerosAndSevensButtonsEvENKUlvE_clEv
FNDA:0,_ZN7GameGUI5debugEv
FNDA:0,_ZN7GameGUI5delayEi
FNDA:0,_ZN7GameGUI14connectButtonsEv
FNDA:0,_ZN7GameGUI14connectSignalsEv
FNDA:0,_ZN7GameGUI11renderTableEP4Card
FNDA:0,_ZN7GameGUI16renderCardOnPileEP4Card
FNDA:0,_ZN7GameGUI21renderMainPlayerFrameEP6Player
FNDA:0,_ZN7GameGUI23renderPlayerCardsInHandE5QListIP4CardE
FNDA:0,_ZN7GameGUI10onDrawCardEv
FNDA:0,_ZN7GameGUI15renderBotFramesE5QListIP6PlayerE
FNDA:0,_ZN7GameGUIC2EP7QWidgetP14GameParametersP6ServerP6Client
FNDA:0,_ZN7GameGUI16renderCardInHandEi
FNDA:0,_ZZN7GameGUI16renderCardInHandEiENKUlvE_clEv
FNDA:0,_ZN7GameGUI15checkIfPlayableEi
FNDA:0,_ZN7GameGUI27renderZerosAndSevensButtonsEv
FNDA:0,_ZN7GameGUI19showChosenWildColorEv
FNDA:0,_ZN7GameGUI15returnCardColorEN4Card5COLORE
FNDA:0,_ZN7GameGUI14returnCardTypeEN4Card9CARD_TYPEE
FNDA:0,_ZN7GameGUI16generateCardPathEP4Card
FNDA:0,_ZN7GameGUI12showWildMenuEv
FNDA:0,_ZN7GameGUI11setWildBlueEv
FNDA:0,_ZN7GameGUI10setWildRedEv
FNDA:0,_ZN7GameGUI13setWildYellowEv
FNDA:0,_ZN7GameGUI12setWildGreenEv
FNDA:0,_ZN7GameGUI8onSayUNOEv
FNDA:0,_ZN7GameGUI17displaySaidUnoMsgE7QString
FNDA:0,_ZN7GameGUI7endTurnEv
FNDA:0,_Z14compareByScorePK6PlayerS1_
FNDA:0,_Z17compareByPositionPK6PlayerS1_
FNDA:0,_ZN7GameGUI13displayWinnerEv
FNDA:0,_ZN7GameGUI10closeEventEP11QCloseEvent
FNDA:0,_ZN7GameGUI12toggleVolumeEv
FNF:47
FNH:0
DA:38,0
DA:40,0
DA:43,0
DA:46,0
DA:48,0
DA:50,0
DA:52,0
DA:54,0
DA:56,0
DA:58,0
DA:59,0
DA:61,0
DA:63,0
DA:65,0
DA:67,0
DA:69,0
DA:71,0
DA:73,0
DA:75,0
DA:77,0
DA:78,0
DA:80,0
DA:82,0
DA:84,0
DA:86,0
DA:88,0
DA:92,0
DA:94,0
DA:96,0
DA:98,0
DA:99,0
DA:100,0
DA:101,0
DA:102,0
DA:103,0
DA:104,0
DA:105,0
DA:106,0
DA:107,0
DA:108,0
DA:109,0
DA:110,0
DA:111,0
DA:114,0
DA:116,0
DA:118,0
DA:120,0
DA:122,0
DA:124,0
DA:126,0
DA:128,0
DA:130,0
DA:132,0
DA:134,0
DA:136,0
DA:137,0
DA:139,0
DA:141,0
DA:143,0
DA:144,0
DA:145,0
DA:147,0
DA:148,0
DA:149,0
DA:150,0
DA:151,0
DA:153,0
DA:154,0
DA:155,0
DA:157,0
DA:159,0
DA:160,0
DA:161,0
DA:162,0
DA:164,0
DA:167,0
DA:168,0
DA:170,0
DA:172,0
DA:173,0
DA:174,0
DA:175,0
DA:177,0
DA:178,0
DA:180,0
DA:181,0
DA:182,0
DA:184,0
DA:185,0
DA:188,0
DA:189,0
DA:192,0
DA:194,0
DA:195,0
DA:196,0
DA:197,0
DA:199,0
DA:200,0
DA:202,0
DA:203,0
DA:204,0
DA:206,0
DA:207,0
DA:208,0
DA:210,0
DA:211,0
DA:212,0
DA:214,0
DA:215,0
DA:216,0
DA:218,0
DA:219,0
DA:220,0
DA:222,0
DA:223,0
DA:224,0
DA:227,0
DA:228,0
DA:231,0
DA:233,0
DA:234,0
DA:235,0
DA:236,0
DA:237,0
DA:238,0
DA:239,0
DA:240,0
DA:241,0
DA:242,0
DA:243,0
DA:244,0
DA:246,0
DA:247,0
DA:248,0
DA:250,0
DA:251,0
DA:252,0
DA:254,0
DA:255,0
DA:256,0
DA:258,0
DA:259,0
DA:260,0
DA:262,0
DA:263,0
DA:264,0
DA:266,0
DA:267,0
DA:268,0
DA:270,0
DA:271,0
DA:272,0
DA:274,0
DA:276,0
DA:279,0
DA:281,0
DA:282,0
DA:283,0
DA:284,0
DA:285,0
DA:286,0
DA:287,0
DA:289,0
DA:290,0
DA:291,0
DA:293,0
DA:294,0
DA:296,0
DA:297,0
DA:298,0
DA:299,0
DA:301,0
DA:302,0
DA:303,0
DA:305,0
DA:306,0
DA:307,0
DA:309,0
DA:310,0
DA:312,0
DA:315,0
DA:317,0
DA:318,0
DA:319,0
DA:320,0
DA:321,0
DA:323,0
DA:325,0
DA:326,0
DA:327,0
DA:328,0
DA:329,0
DA:331,0
DA:334,0
DA:335,0
DA:336,0
DA:337,0
DA:340,0
DA:341,0
DA:342,0
DA:343,0
DA:346,0
DA:347,0
DA:348,0
DA:349,0
DA:350,0
DA:352,0
DA:355,0
DA:356,0
DA:357,0
DA:358,0
DA:361,0
DA:362,0
DA:363,0
DA:364,0
DA:367,0
DA:368,0
DA:369,0
DA:370,0
DA:373,0
DA:374,0
DA:375,0
DA:376,0
DA:379,0
DA:380,0
DA:381,0
DA:382,0
DA:385,0
DA:386,0
DA:387,0
DA:388,0
DA:391,0
DA:392,0
DA:393,0
DA:394,0
DA:395,0
DA:397,0
DA:399,0
DA:401,0
DA:403,0
DA:404,0
DA:405,0
DA:408,0
DA:412,0
DA:414,0
DA:415,0
DA:416,0
DA:417,0
DA:418,0
DA:419,0
DA:421,0
DA:423,0
DA:425,0
DA:427,0
DA:428,0
DA:429,0
DA:430,0
DA:432,0
DA:435,0
DA:438,0
DA:440,0
DA:442,0
DA:444,0
DA:448,0
DA:452,0
DA:455,0
DA:456,0
DA:458,0
DA:460,0
DA:462,0
DA:465,0
DA:467,0
DA:469,0
DA:471,0
DA:473,0
DA:474,0
DA:476,0
DA:478,0
DA:479,0
DA:481,0
DA:483,0
DA:484,0
DA:485,0
DA:486,0
DA:488,0
DA:489,0
DA:491,0
DA:493,0
DA:494,0
DA:496,0
DA:499,0
DA:501,0
DA:503,0
DA:506,0
DA:508,0
DA:510,0
DA:511,0
DA:515,0
DA:518,0
DA:520,0
DA:521,0
DA:523,0
DA:525,0
DA:526,0
DA:527,0
DA:528,0
DA:532,0
DA:533,0
DA:535,0
DA:537,0
DA:539,0
DA:540,0
DA:542,0
DA:543,0
DA:544,0
DA:547,0
DA:548,0
DA:549,0
DA:550,0
DA:552,0
DA:554,0
DA:555,0
DA:557,0
DA:559,0
DA:560,0
DA:561,0
DA:562,0
DA:564,0
DA:565,0
DA:566,0
DA:567,0
DA:568,0
DA:570,0
DA:572,0
DA:575,0
DA:577,0
DA:579,0
DA:581,0
DA:582,0
DA:583,0
DA:586,0
DA:588,0
DA:590,0
DA:593,0
DA:594,0
DA:595,0
DA:597,0
DA:598,0
DA:599,0
DA:601,0
DA:602,0
DA:608,0
DA:609,0
DA:614,0
DA:617,0
DA:620,0
DA:621,0
DA:624,0
DA:626,0
DA:628,0
DA:629,0
DA:631,0
DA:633,0
DA:635,0
DA:637,0
DA:638,0
DA:639,0
DA:641,0
DA:642,0
DA:643,0
DA:645,0
DA:647,0
DA:648,0
DA:649,0
DA:651,0
DA:653,0
DA:655,0
DA:657,0
DA:659,0
DA:661,0
DA:663,0
DA:664,0
DA:666,0
DA:667,0
DA:668,0
DA:670,0
DA:671,0
DA:673,0
DA:674,0
DA:675,0
DA:680,0
DA:681,0
DA:683,0
DA:686,0
DA:688,0
DA:691,0
DA:693,0
DA:694,0
DA:696,0
DA:699,0
DA:701,0
DA:704,0
DA:706,0
DA:707,0
DA:709,0
DA:711,0
DA:713,0
DA:714,0
DA:715,0
DA:716,0
DA:717,0
DA:718,0
DA:719,0
DA:720,0
DA:722,0
DA:724,0
DA:730,0
DA:731,0
DA:733,0
DA:735,0
DA:737,0
DA:738,0
DA:739,0
DA:740,0
DA:741,0
DA:742,0
DA:743,0
DA:744,0
DA:745,0
DA:746,0
DA:747,0
DA:748,0
DA:752,0
DA:754,0
DA:756,0
DA:757,0
DA:758,0
DA:759,0
DA:760,0
DA:761,0
DA:762,0
DA:763,0
DA:764,0
DA:765,0
DA:766,0
DA:767,0
DA:768,0
DA:769,0
DA:773,0
DA:775,0
DA:776,0
DA:777,0
DA:778,0
DA:780,0
DA:781,0
DA:782,0
DA:783,0
DA:785,0
DA:788,0
DA:790,0
DA:793,0
DA:794,0
DA:795,0
DA:796,0
DA:798,0
DA:802,0
DA:803,0
DA:804,0
DA:805,0
DA:807,0
DA:811,0
DA:812,0
DA:813,0
DA:814,0
DA:816,0
DA:820,0
DA:821,0
DA:822,0
DA:823,0
DA:825,0
DA:827,0
DA:828,0
DA:829,0
DA:831,0
DA:833,0
DA:834,0
DA:835,0
DA:837,0
DA:839,0
DA:840,0
DA:842,0
DA:843,0
DA:845,0
DA:846,0
DA:847,0
DA:849,0
DA:851,0
DA:853,0
DA:854,0
DA:855,0
DA:857,0
DA:860,0
DA:862,0
DA:864,0
DA:867,0
DA:869,0
DA:872,0
DA:880,0
DA:882,0
DA:883,0
DA:884,0
DA:885,0
DA:888,0
DA:889,0
DA:891,0
DA:892,0
DA:893,0
DA:894,0
DA:895,0
DA:898,0
DA:899,0
DA:902,0
DA:903,0
DA:904,0
DA:905,0
DA:907,0
DA:908,0
DA:912,0
DA:913,0
DA:914,0
DA:915,0
DA:918,0
DA:919,0
DA:920,0
DA:921,0
DA:922,0
DA:925,0
DA:926,0
DA:927,0
DA:946,0
DA:947,0
DA:949,0
DA:950,0
DA:952,0
DA:954,0
DA:955,0
DA:957,0
DA:958,0
DA:959,0
DA:960,0
DA:961,0
DA:963,0
DA:964,0
DA:966,0
DA:968,0
DA:970,0
DA:971,0
DA:972,0
DA:973,0
DA:974,0
DA:978,0
DA:979,0
DA:980,0
DA:981,0
DA:982,0
DA:984,0
DA:985,0
LF:567
LH:0
end_of_record
TN:
SF:/home/marija/Desktop/2024_Analysis_12-Uno/12-UNO/UNO/sources/gameclient.cpp
FN:12,15,_ZN10GameClientC2EP7QObject
FN:129,132,_ZN10GameClient8isMyTurnEv
FN:134,141,_ZN10GameClient10getMessageEv
FN:143,205,_ZN10GameClient8loadGameEv
FN:17,23,_ZN10GameClientC2EP7QObjectP4Game7QStringb
FN:207,211,_ZN10GameClient11sendMessageE7QString
FN:213,213,_ZN10GameClient7getGameEv
FN:25,25,_ZN10GameClientD0Ev
FN:25,25,_ZN10GameClientD2Ev
FN:27,27,_ZN10GameClient6isHostEv
FN:29,127,_ZN10GameClient3runEv
FNDA:0,_ZN10GameClientC2EP7QObject
FNDA:0,_ZN10GameClient8isMyTurnEv
FNDA:0,_ZN10GameClient10getMessageEv
FNDA:0,_ZN10GameClient8loadGameEv
FNDA:0,_ZN10GameClientC2EP7QObjectP4Game7QStringb
FNDA:0,_ZN10GameClient11sendMessageE7QString
FNDA:0,_ZN10GameClient7getGameEv
FNDA:0,_ZN10GameClientD0Ev
FNDA:0,_ZN10GameClientD2Ev
FNDA:0,_ZN10GameClient6isHostEv
FNDA:0,_ZN10GameClient3runEv
FNF:11
FNH:0
DA:12,0
DA:13,0
DA:15,0
DA:17,0
DA:20,0
DA:21,0
DA:23,0
DA:25,0
DA:27,0
DA:29,0
DA:31,0
DA:33,0
DA:35,0
DA:36,0
DA:38,0
DA:41,0
DA:43,0
DA:47,0
DA:48,0
DA:49,0
DA:53,0
DA:55,0
DA:57,0
DA:60,0
DA:62,0
DA:64,0
DA:68,0
DA:70,0
DA:72,0
DA:73,0
DA:75,0
DA:76,0
DA:78,0
DA:79,0
DA:82,0
DA:84,0
DA:86,0
DA:90,0
DA:96,0
DA:97,0
DA:98,0
DA:100,0
DA:101,0
DA:105,0
DA:106,0
DA:108,0
DA:110,0
DA:111,0
DA:114,0
DA:118,0
DA:119,0
DA:122,0
DA:123,0
DA:125,0
DA:126,0
DA:127,0
DA:129,0
DA:131,0
DA:134,0
DA:137,0
DA:138,0
DA:139,0
DA:140,0
DA:143,0
DA:146,0
DA:148,0
DA:151,0
DA:152,0
DA:157,0
DA:159,0
DA:161,0
DA:162,0
DA:164,0
DA:166,0
DA:168,0
DA:170,0
DA:172,0
DA:176,0
DA:178,0
DA:180,0
DA:184,0
DA:185,0
DA:189,0
DA:191,0
DA:193,0
DA:194,0
DA:197,0
DA:200,0
DA:202,0
DA:204,0
DA:205,0
DA:207,0
DA:209,0
DA:211,0
DA:213,0
LF:95
LH:0
end_of_record
TN:
SF:/home/marija/Desktop/2024_Analysis_12-Uno/12-UNO/UNO/sources/gameserver.cpp
FN:102,108,_ZN10GameServer6refillEv
FN:110,110,_ZNK10GameServer7getGameEv
FN:112,127,_ZNK10GameServer12getDeckOrderB5cxx11Ev
FN:12,15,_ZN10GameServerC2EP7QObject
FN:133,142,_ZN10GameServer11sendMessageENSt7__cxx1112basic_stringIcSt11char_traitsIcESaIcEEEi
FN:144,165,_ZN10GameServer10getMessageB5cxx11Ev
FN:167,177,_ZN10GameServer11processTurnENSt7__cxx1112basic_stringIcSt11char_traitsIcESaIcEEE
FN:17,22,_ZN10GameServerC2EP7QObjectP4Game
FN:24,24,_ZN10GameServerD0Ev
FN:24,24,_ZN10GameServerD2Ev
FN:26,26,_ZN10GameServer11stopWaitingEv
FN:28,28,_ZN10GameServer18setNumberOfPlayersEi
FN:30,70,_ZN10GameServer3runEv
FN:72,75,_ZNK10GameServer10isBotsTurnEv
FN:77,100,_ZN10GameServer11sendInitialEv
FNDA:0,_ZN10GameServer6refillEv
FNDA:0,_ZNK10GameServer7getGameEv
FNDA:0,_ZNK10GameServer12getDeckOrderB5cxx11Ev
FNDA:0,_ZN10GameServerC2EP7QObject
FNDA:0,_ZN10GameServer11sendMessageENSt7__cxx1112basic_stringIcSt11char_traitsIcESaIcEEEi
FNDA:0,_ZN10GameServer10getMessageB5cxx11Ev
FNDA:0,_ZN10GameServer11processTurnENSt7__cxx1112basic_stringIcSt11char_traitsIcESaIcEEE
FNDA:0,_ZN10GameServerC2EP7QObjectP4Game
FNDA:0,_ZN10GameServerD0Ev
FNDA:0,_ZN10GameServerD2Ev
FNDA:0,_ZN10GameServer11stopWaitingEv
FNDA:0,_ZN10GameServer18setNumberOfPlayersEi
FNDA:0,_ZN10GameServer3runEv
FNDA:0,_ZNK10GameServer10isBotsTurnEv
FNDA:0,_ZN10GameServer11sendInitialEv
FNF:15
FNH:0
DA:12,0
DA:13,0
DA:15,0
DA:17,0
DA:19,0
DA:21,0
DA:22,0
DA:24,0
DA:26,0
DA:28,0
DA:30,0
DA:32,0
DA:34,0
DA:36,0
DA:38,0
DA:40,0
DA:41,0
DA:42,0
DA:43,0
DA:45,0
DA:46,0
DA:48,0
DA:50,0
DA:51,0
DA:53,0
DA:57,0
DA:58,0
DA:59,0
DA:61,0
DA:63,0
DA:66,0
DA:67,0
DA:69,0
DA:70,0
DA:72,0
DA:74,0
DA:77,0
DA:79,0
DA:82,0
DA:85,0
DA:87,0
DA:89,0
DA:90,0
DA:94,0
DA:97,0
DA:99,0
DA:100,0
DA:102,0
DA:104,0
DA:105,0
DA:106,0
DA:107,0
DA:108,0
DA:110,0
DA:112,0
DA:114,0
DA:116,0
DA:119,0
DA:121,0
DA:123,0
DA:126,0
DA:133,0
DA:135,0
DA:137,0
DA:139,0
DA:142,0
DA:144,0
DA:146,0
DA:148,0
DA:150,0
DA:151,0
DA:154,0
DA:158,0
DA:160,0
DA:162,0
DA:164,0
DA:167,0
DA:169,0
DA:171,0
DA:172,0
DA:175,0
DA:176,0
LF:82
LH:0
end_of_record
TN:
SF:/home/marija/Desktop/2024_Analysis_12-Uno/12-UNO/UNO/sources/human.cpp
FN:13,13,_ZN5HumanD0Ev
FN:13,13,_ZN5HumanD2Ev
FN:15,15,_ZNK5Human5isBotEv
FN:17,30,_ZN5Human8playCardERKi
FN:32,32,_ZN5Human11chooseColorEv
FN:34,34,_ZN5Human4playEv
FN:36,36,_ZNK5Human4gameEv
FN:38,38,_ZN5Human7setGameEP4Game
FN:40,47,_ZN5Human8drawCardERKi
FN:49,58,_ZN5Human16hasPlayableCardsEv
FN:5,5,_ZN5HumanC2Ev
FN:7,11,_ZN5HumanC2E7QStringP4Game
FNDA:22,_ZN5HumanD0Ev
FNDA:22,_ZN5HumanD2Ev
FNDA:1,_ZNK5Human5isBotEv
FNDA:0,_ZN5Human8playCardERKi
FNDA:1,_ZN5Human11chooseColorEv
FNDA:0,_ZN5Human4playEv
FNDA:0,_ZNK5Human4gameEv
FNDA:0,_ZN5Human7setGameEP4Game
FNDA:7,_ZN5Human8drawCardERKi
FNDA:0,_ZN5Human16hasPlayableCardsEv
FNDA:23,_ZN5HumanC2Ev
FNDA:1,_ZN5HumanC2E7QStringP4Game
FNF:12
FNH:7
DA:5,23
DA:7,1
DA:9,1
DA:11,1
DA:13,44
DA:15,1
DA:17,0
DA:19,0
DA:20,0
DA:22,0
DA:23,0
DA:24,0
DA:28,0
DA:32,1
DA:34,0
DA:36,0
DA:38,0
DA:40,7
DA:42,14
DA:44,7
DA:45,7
DA:47,7
DA:49,0
DA:51,0
DA:52,0
DA:54,0
DA:55,0
DA:57,0
LF:28
LH:12
end_of_record
TN:
SF:/home/marija/Desktop/2024_Analysis_12-Uno/12-UNO/UNO/sources/instructionsWidget.cpp
FN:16,16,_ZN18InstructionsWidgetD0Ev
FN:16,16,_ZN18InstructionsWidgetD2Ev
FN:18,26,_ZN18InstructionsWidget10closeEventEP11QCloseEvent
FN:8,14,_ZN18InstructionsWidgetC2EP7QWidget
FNDA:0,_ZN18InstructionsWidgetD0Ev
FNDA:0,_ZN18InstructionsWidgetD2Ev
FNDA:0,_ZN18InstructionsWidget10closeEventEP11QCloseEvent
FNDA:0,_ZN18InstructionsWidgetC2EP7QWidget
FNF:4
FNH:0
DA:8,0
DA:10,0
DA:12,0
DA:13,0
DA:14,0
DA:16,0
DA:18,0
DA:20,0
DA:21,0
DA:22,0
DA:23,0
DA:24,0
DA:25,0
DA:26,0
LF:14
LH:0
end_of_record
TN:
SF:/home/marija/Desktop/2024_Analysis_12-Uno/12-UNO/UNO/sources/leaderboards.cpp
FN:12,20,_ZN12Leaderboards28generateLeaderboardsFileNameEv
FN:22,40,_ZN12Leaderboards16insertGameScoresE5QListISt4pairI7QStringiEE
FN:42,48,_ZN12Leaderboards8loadJsonE7QString
FN:50,56,_ZN12Leaderboards8saveJsonE13QJsonDocument7QString
FN:58,62,_Z14compareByScoreRKSt4pairI7QStringiES3_
FN:64,86,_ZN12Leaderboards19returnSortedResultsEv
FN:7,10,_ZN12LeaderboardsC2Ev
FNDA:0,_ZN12Leaderboards28generateLeaderboardsFileNameEv
FNDA:0,_ZN12Leaderboards16insertGameScoresE5QListISt4pairI7QStringiEE
FNDA:0,_ZN12Leaderboards8loadJsonE7QString
FNDA:0,_ZN12Leaderboards8saveJsonE13QJsonDocument7QString
FNDA:0,_Z14compareByScoreRKSt4pairI7QStringiES3_
FNDA:0,_ZN12Leaderboards19returnSortedResultsEv
FNDA:0,_ZN12LeaderboardsC2Ev
FNF:7
FNH:0
DA:7,0
DA:8,0
DA:10,0
DA:12,0
DA:14,0
DA:16,0
DA:17,0
DA:18,0
DA:19,0
DA:22,0
DA:24,0
DA:25,0
DA:27,0
DA:29,0
DA:31,0
DA:32,0
DA:35,0
DA:38,0
DA:39,0
DA:40,0
DA:42,0
DA:44,0
DA:45,0
DA:46,0
DA:47,0
DA:50,0
DA:52,0
DA:53,0
DA:54,0
DA:55,0
DA:56,0
DA:58,0
DA:61,0
DA:64,0
DA:66,0
DA:67,0
DA:69,0
DA:70,0
DA:72,0
DA:73,0
DA:76,0
DA:78,0
DA:79,0
DA:80,0
DA:81,0
DA:82,0
DA:83,0
DA:84,0
DA:85,0
LF:49
LH:0
end_of_record
TN:
SF:/home/marija/Desktop/2024_Analysis_12-Uno/12-UNO/UNO/sources/lobby.cpp
FN:10,47,_ZN5LobbyC2EP7QWidgetP14GameParameters
FN:115,120,_ZN5Lobby13initBotFramesEi
FN:122,165,_ZN5Lobby9initNamesEv
FN:167,174,_ZN5Lobby9startGameEv
FN:176,195,_ZN5Lobby12toggleVolumeEv
FN:197,197,_ZN5LobbyD0Ev
FN:197,197,_ZN5LobbyD2Ev
FN:199,209,_ZN5Lobby20startGameBtn_clickedEv
FN:49,72,_ZN5Lobby4initEv
FN:74,81,_ZN5Lobby9initLobbyEv
FN:83,113,_ZN5Lobby10initFramesE7QString
FNDA:0,_ZN5LobbyC2EP7QWidgetP14GameParameters
FNDA:0,_ZN5Lobby13initBotFramesEi
FNDA:0,_ZN5Lobby9initNamesEv
FNDA:0,_ZN5Lobby9startGameEv
FNDA:0,_ZN5Lobby12toggleVolumeEv
FNDA:0,_ZN5LobbyD0Ev
FNDA:0,_ZN5LobbyD2Ev
FNDA:0,_ZN5Lobby20startGameBtn_clickedEv
FNDA:0,_ZN5Lobby4initEv
FNDA:0,_ZN5Lobby9initLobbyEv
FNDA:0,_ZN5Lobby10initFramesE7QString
FNF:11
FNH:0
DA:10,0
DA:12,0
DA:13,0
DA:15,0
DA:17,0
DA:19,0
DA:21,0
DA:23,0
DA:24,0
DA:26,0
DA:28,0
DA:30,0
DA:32,0
DA:34,0
DA:36,0
DA:38,0
DA:40,0
DA:41,0
DA:43,0
DA:45,0
DA:47,0
DA:49,0
DA:51,0
DA:52,0
DA:53,0
DA:55,0
DA:56,0
DA:57,0
DA:58,0
DA:59,0
DA:61,0
DA:62,0
DA:64,0
DA:66,0
DA:68,0
DA:69,0
DA:70,0
DA:71,0
DA:72,0
DA:74,0
DA:76,0
DA:80,0
DA:81,0
DA:83,0
DA:85,0
DA:86,0
DA:87,0
DA:89,0
DA:91,0
DA:92,0
DA:95,0
DA:97,0
DA:98,0
DA:100,0
DA:101,0
DA:102,0
DA:103,0
DA:105,0
DA:106,0
DA:108,0
DA:110,0
DA:111,0
DA:113,0
DA:115,0
DA:117,0
DA:118,0
DA:120,0
DA:122,0
DA:124,0
DA:126,0
DA:127,0
DA:129,0
DA:130,0
DA:131,0
DA:132,0
DA:135,0
DA:136,0
DA:138,0
DA:140,0
DA:141,0
DA:142,0
DA:143,0
DA:144,0
DA:146,0
DA:154,0
DA:155,0
DA:156,0
DA:157,0
DA:158,0
DA:159,0
DA:160,0
DA:161,0
DA:163,0
DA:165,0
DA:167,0
DA:169,0
DA:170,0
DA:171,0
DA:172,0
DA:173,0
DA:174,0
DA:176,0
DA:178,0
DA:180,0
DA:181,0
DA:182,0
DA:183,0
DA:184,0
DA:188,0
DA:189,0
DA:190,0
DA:191,0
DA:192,0
DA:194,0
DA:195,0
DA:197,0
DA:199,0
DA:202,0
DA:204,0
DA:209,0
LF:120
LH:0
end_of_record
TN:
SF:/home/marija/Desktop/2024_Analysis_12-Uno/12-UNO/UNO/sources/mainWindow.cpp
FN:107,112,_ZN10MainWindow19playVSAIBtn_clickedEv
FN:114,119,_ZN10MainWindow21playOnlineBtn_clickedEv
FN:121,126,_ZN10MainWindow15hostBtn_clickedEv
FN:128,133,_ZN10MainWindow15joinBtn_clickedEv
FN:135,140,_ZN10MainWindow20gamemode1Btn_clickedEv
FN:142,147,_ZN10MainWindow20gamemode2Btn_clickedEv
FN:149,153,_ZN10MainWindow20gamemode3Btn_clickedEv
FN:155,159,_ZN10MainWindow20gamemode4Btn_clickedEv
FN:161,166,_ZN10MainWindow18player2Btn_clickedEv
FN:168,173,_ZN10MainWindow18player4Btn_clickedEv
FN:175,180,_ZN10MainWindow18player8Btn_clickedEv
FN:182,187,_ZN10MainWindow20startGameBtn_clickedEv
FN:189,204,_ZN10MainWindow12startGameGUIEP14GameParameters
FN:206,210,_ZN10MainWindow21backToMainBtn_clickedEv
FN:212,216,_ZN10MainWindow25backToGameModeBtn_clickedEv
FN:218,227,_ZN10MainWindow26backToPlayerNumBtn_clickedEv
FN:229,233,_ZN10MainWindow23leaderboardsBtn_clickedEv
FN:235,239,_ZN10MainWindow23backToMainBtn_2_clickedEv
FN:241,245,_ZN10MainWindow23backToMainBtn_3_clickedEv
FN:247,250,_ZN10MainWindow30refreshLeaderboardsBtn_clickedEv
FN:252,255,_ZN10MainWindow24rewindSlider_sliderMovedEi
FN:257,263,_ZN10MainWindow24volumeSlider_sliderMovedEi
FN:265,265,_ZN10MainWindow23playMediaButton_clickedEv
FN:267,267,_ZN10MainWindow23muteMediaButton_clickedEv
FN:269,273,_ZN10MainWindow23backToMainBtn_4_clickedEv
FN:275,278,_ZN10MainWindow15positionChangedEi
FN:280,283,_ZN10MainWindow15durationChangedEi
FN:285,289,_ZN10MainWindow22settingsButton_clickedEv
FN:291,298,_ZN10MainWindow23on_pushButton_2_clickedEv
FN:32,32,_ZN10MainWindowD0Ev
FN:32,32,_ZN10MainWindowD2Ev
FN:34,105,_ZN10MainWindow14connectButtonsEv
FN:6,30,_ZN10MainWindowC2EP7QWidget
FNDA:0,_ZN10MainWindow19playVSAIBtn_clickedEv
FNDA:0,_ZN10MainWindow21playOnlineBtn_clickedEv
FNDA:0,_ZN10MainWindow15hostBtn_clickedEv
FNDA:0,_ZN10MainWindow15joinBtn_clickedEv
FNDA:0,_ZN10MainWindow20gamemode1Btn_clickedEv
FNDA:0,_ZN10MainWindow20gamemode2Btn_clickedEv
FNDA:0,_ZN10MainWindow20gamemode3Btn_clickedEv
FNDA:0,_ZN10MainWindow20gamemode4Btn_clickedEv
FNDA:0,_ZN10MainWindow18player2Btn_clickedEv
FNDA:0,_ZN10MainWindow18player4Btn_clickedEv
FNDA:0,_ZN10MainWindow18player8Btn_clickedEv
FNDA:0,_ZN10MainWindow20startGameBtn_clickedEv
FNDA:0,_ZN10MainWindow12startGameGUIEP14GameParameters
FNDA:0,_ZN10MainWindow21backToMainBtn_clickedEv
FNDA:0,_ZN10MainWindow25backToGameModeBtn_clickedEv
FNDA:0,_ZN10MainWindow26backToPlayerNumBtn_clickedEv
FNDA:0,_ZN10MainWindow23leaderboardsBtn_clickedEv
FNDA:0,_ZN10MainWindow23backToMainBtn_2_clickedEv
FNDA:0,_ZN10MainWindow23backToMainBtn_3_clickedEv
FNDA:0,_ZN10MainWindow30refreshLeaderboardsBtn_clickedEv
FNDA:0,_ZN10MainWindow24rewindSlider_sliderMovedEi
FNDA:0,_ZN10MainWindow24volumeSlider_sliderMovedEi
FNDA:0,_ZN10MainWindow23playMediaButton_clickedEv
FNDA:0,_ZN10MainWindow23muteMediaButton_clickedEv
FNDA:0,_ZN10MainWindow23backToMainBtn_4_clickedEv
FNDA:0,_ZN10MainWindow15positionChangedEi
FNDA:0,_ZN10MainWindow15durationChangedEi
FNDA:0,_ZN10MainWindow22settingsButton_clickedEv
FNDA:0,_ZN10MainWindow23on_pushButton_2_clickedEv
FNDA:0,_ZN10MainWindowD0Ev
FNDA:0,_ZN10MainWindowD2Ev
FNDA:0,_ZN10MainWindow14connectButtonsEv
FNDA:0,_ZN10MainWindowC2EP7QWidget
FNF:33
FNH:0
DA:6,0
DA:8,0
DA:10,0
DA:11,0
DA:12,0
DA:13,0
DA:14,0
DA:15,0
DA:17,0
DA:19,0
DA:20,0
DA:21,0
DA:23,0
DA:24,0
DA:25,0
DA:26,0
DA:27,0
DA:29,0
DA:30,0
DA:32,0
DA:34,0
DA:37,0
DA:39,0
DA:41,0
DA:43,0
DA:47,0
DA:49,0
DA:51,0
DA:53,0
DA:55,0
DA:59,0
DA:61,0
DA:63,0
DA:65,0
DA:69,0
DA:71,0
DA:75,0
DA:77,0
DA:81,0
DA:83,0
DA:85,0
DA:89,0
DA:91,0
DA:93,0
DA:94,0
DA:95,0
DA:97,0
DA:99,0
DA:101,0
DA:103,0
DA:105,0
DA:107,0
DA:109,0
DA:110,0
DA:111,0
DA:112,0
DA:114,0
DA:116,0
DA:117,0
DA:118,0
DA:119,0
DA:121,0
DA:123,0
DA:124,0
DA:125,0
DA:126,0
DA:128,0
DA:130,0
DA:131,0
DA:132,0
DA:133,0
DA:135,0
DA:137,0
DA:138,0
DA:139,0
DA:140,0
DA:142,0
DA:144,0
DA:145,0
DA:146,0
DA:147,0
DA:149,0
DA:151,0
DA:152,0
DA:153,0
DA:155,0
DA:157,0
DA:158,0
DA:159,0
DA:161,0
DA:163,0
DA:164,0
DA:165,0
DA:166,0
DA:168,0
DA:170,0
DA:171,0
DA:172,0
DA:173,0
DA:175,0
DA:177,0
DA:178,0
DA:179,0
DA:180,0
DA:182,0
DA:184,0
DA:185,0
DA:186,0
DA:187,0
DA:189,0
DA:191,0
DA:193,0
DA:194,0
DA:198,0
DA:199,0
DA:201,0
DA:202,0
DA:203,0
DA:204,0
DA:206,0
DA:208,0
DA:209,0
DA:210,0
DA:212,0
DA:214,0
DA:215,0
DA:216,0
DA:218,0
DA:220,0
DA:221,0
DA:222,0
DA:223,0
DA:225,0
DA:226,0
DA:227,0
DA:229,0
DA:231,0
DA:232,0
DA:233,0
DA:235,0
DA:237,0
DA:238,0
DA:239,0
DA:241,0
DA:243,0
DA:244,0
DA:245,0
DA:247,0
DA:249,0
DA:250,0
DA:252,0
DA:254,0
DA:255,0
DA:257,0
DA:259,0
DA:261,0
DA:262,0
DA:263,0
DA:265,0
DA:267,0
DA:269,0
DA:271,0
DA:272,0
DA:273,0
DA:275,0
DA:277,0
DA:278,0
DA:280,0
DA:282,0
DA:283,0
DA:285,0
DA:287,0
DA:288,0
DA:289,0
DA:291,0
DA:293,0
DA:294,0
DA:295,0
DA:296,0
DA:297,0
DA:298,0
LF:181
LH:0
end_of_record
TN:
SF:/home/marija/Desktop/2024_Analysis_12-Uno/12-UNO/UNO/sources/pc.cpp
FN:10,14,_ZN2PCC2E7QStringP4Game
FN:138,228,_ZN2PC4playEv
FN:16,16,_ZN2PCD0Ev
FN:16,16,_ZN2PCD2Ev
FN:18,18,_ZNK2PC5isBotEv
FN:20,20,_ZNK2PC14getCurrentGameEv
FN:22,29,_ZN2PC8drawCardERKi
FN:230,267,_ZN2PC11chooseColorEv
FN:269,278,_ZN2PC16hasPlayableCardsEv
FN:280,291,_ZN2PC16getPlayableCardsEv
FN:31,44,_ZN2PC8playCardERKi
FN:46,136,_ZN2PC12makeDecisionEv
FN:8,8,_ZN2PCC2Ev
FNDA:3,_ZN2PCC2E7QStringP4Game
FNDA:0,_ZN2PC4playEv
FNDA:3,_ZN2PCD0Ev
FNDA:3,_ZN2PCD2Ev
FNDA:1,_ZNK2PC5isBotEv
FNDA:0,_ZNK2PC14getCurrentGameEv
FNDA:21,_ZN2PC8drawCardERKi
FNDA:2,_ZN2PC11chooseColorEv
FNDA:0,_ZN2PC16hasPlayableCardsEv
FNDA:0,_ZN2PC16getPlayableCardsEv
FNDA:0,_ZN2PC8playCardERKi
FNDA:0,_ZN2PC12makeDecisionEv
FNDA:3,_ZN2PCC2Ev
FNF:13
FNH:7
DA:8,3
DA:10,3
DA:12,3
DA:14,3
DA:16,6
DA:18,1
DA:20,0
DA:22,21
DA:24,42
DA:26,21
DA:27,21
DA:29,21
DA:31,0
DA:34,0
DA:36,0
DA:38,0
DA:39,0
DA:40,0
DA:43,0
DA:46,0
DA:49,0
DA:52,0
DA:53,0
DA:55,0
DA:56,0
DA:57,0
DA:59,0
DA:61,0
DA:63,0
DA:64,0
DA:65,0
DA:67,0
DA:68,0
DA:71,0
DA:73,0
DA:75,0
DA:77,0
DA:78,0
DA:81,0
DA:84,0
DA:86,0
DA:88,0
DA:89,0
DA:91,0
DA:93,0
DA:95,0
DA:96,0
DA:97,0
DA:99,0
DA:100,0
DA:102,0
DA:103,0
DA:104,0
DA:105,0
DA:107,0
DA:108,0
DA:110,0
DA:111,0
DA:112,0
DA:113,0
DA:115,0
DA:116,0
DA:118,0
DA:119,0
DA:120,0
DA:121,0
DA:123,0
DA:124,0
DA:126,0
DA:127,0
DA:128,0
DA:132,0
DA:135,0
DA:138,0
DA:140,0
DA:141,0
DA:142,0
DA:143,0
DA:144,0
DA:146,0
DA:147,0
DA:149,0
DA:151,0
DA:153,0
DA:155,0
DA:156,0
DA:160,0
DA:162,0
DA:163,0
DA:165,0
DA:166,0
DA:168,0
DA:169,0
DA:171,0
DA:173,0
DA:175,0
DA:177,0
DA:178,0
DA:182,0
DA:183,0
DA:185,0
DA:186,0
DA:192,0
DA:197,0
DA:199,0
DA:200,0
DA:202,0
DA:204,0
DA:206,0
DA:208,0
DA:211,0
DA:212,0
DA:214,0
DA:215,0
DA:216,0
DA:219,0
DA:221,0
DA:222,0
DA:225,0
DA:227,0
DA:230,2
DA:232,2
DA:233,2
DA:234,2
DA:235,2
DA:237,8
DA:239,6
DA:241,3
DA:242,3
DA:243,3
DA:244,2
DA:245,2
DA:246,2
DA:247,1
DA:248,1
DA:249,1
DA:250,0
DA:251,0
DA:252,0
DA:253,0
DA:254,0
DA:258,2
DA:259,2
DA:260,2
DA:261,0
DA:262,0
DA:263,0
DA:264,0
DA:266,0
DA:269,0
DA:271,0
DA:272,0
DA:274,0
DA:275,0
DA:277,0
DA:280,0
DA:282,0
DA:284,0
DA:286,0
DA:287,0
DA:290,0
LF:161
LH:30
end_of_record
TN:
SF:/home/marija/Desktop/2024_Analysis_12-Uno/12-UNO/UNO/sources/pile.cpp
FN:13,21,_ZN4Pile8pushCardEP4Card
FN:23,33,_ZNK4Pile8lastCardEv
FN:3,3,_ZN4PileC2Ev
FN:35,35,_ZNK4Pile7getSizeEv
FN:37,37,_ZNK4Pile7isEmptyEv
FN:39,44,_ZN4Pile5clearEv
FN:46,46,_ZN4Pile7getPileEv
FN:48,48,_ZN4Pile12getWildColorEv
FN:5,11,_ZN4PileD2Ev
FN:50,50,_ZN4Pile12setWildColorEN4Card5COLORE
FN:52,60,_ZN4Pile3popEv
FNDA:125,_ZN4Pile8pushCardEP4Card
FNDA:5,_ZNK4Pile8lastCardEv
FNDA:18,_ZN4PileC2Ev
FNDA:16,_ZNK4Pile7getSizeEv
FNDA:7,_ZNK4Pile7isEmptyEv
FNDA:2,_ZN4Pile5clearEv
FNDA:1,_ZN4Pile7getPileEv
FNDA:2,_ZN4Pile12getWildColorEv
FNDA:15,_ZN4PileD2Ev
FNDA:2,_ZN4Pile12setWildColorEN4Card5COLORE
FNDA:2,_ZN4Pile3popEv
FNF:11
FNH:11
DA:3,18
DA:5,15
DA:7,23
DA:9,8
DA:11,15
DA:13,125
DA:15,125
DA:17,124
DA:20,1
DA:21,124
DA:23,5
DA:25,5
DA:27,4
DA:31,1
DA:35,16
DA:37,7
DA:39,2
DA:41,2
DA:42,2
DA:43,2
DA:44,2
DA:46,1
DA:48,2
DA:50,2
DA:52,2
DA:54,2
DA:55,1
DA:57,1
DA:58,1
DA:59,1
LF:30
LH:30
end_of_record
TN:
SF:/home/marija/Desktop/2024_Analysis_12-Uno/12-UNO/UNO/sources/player.cpp
FN:10,15,_ZN6PlayerC2E7QString
FN:100,100,_ZNK6Player8hasCardsEv
FN:102,102,_ZNK6Player7saidUNOEv
FN:104,104,_ZN6Player7setNameERK7QString
FN:106,111,_ZN6Player7setHandERK5QListIP4CardE
FN:113,113,_ZNK6Player7getPileEv
FN:115,115,_ZN6Player7setPileEP4Pile
FN:117,117,_ZN6Player9eliminateEv
FN:119,119,_ZN6Player12isEliminatedEv
FN:121,130,_ZN6Player9swapCardsEPS_
FN:132,132,_ZN6Player9takeCardsEPS_
FN:17,21,_ZN6PlayerD0Ev
FN:17,21,_ZN6PlayerD2Ev
FN:23,35,_ZNK6Player7hasCardERK4Card
FN:37,48,_ZN6Player13increaseScoreEP4Card
FN:50,50,_ZNK6Player13getTotalCardsEv
FN:52,52,_ZN6Player10obtainCardEP4Card
FN:56,56,_ZNK6Player9drawnCardEv
FN:58,58,_ZNK6Player7getNameEv
FN:60,60,_ZNK6Player8getScoreEv
FN:62,62,_ZN6Player8getCardsEv
FN:64,64,_ZN6Player8setScoreERKi
FN:66,69,_ZN6Player12setDrawnCardERKb
FN:71,71,_ZNK6Player9hasPlayedEv
FN:73,76,_ZN6Player12setHasPlayedERKb
FN:78,78,_ZNK6Player12finishedTurnEv
FN:8,8,_ZN6PlayerC2Ev
FN:80,83,_ZN6Player15setFinishedTurnERKb
FN:85,85,_ZNK6Player8isMyTurnEv
FN:87,87,_ZN6Player11setIsMyTurnERKb
FN:89,89,_ZNK6Player10playedCardEv
FN:91,94,_ZN6Player13setPlayedCardERKi
FN:96,96,_ZN6Player10removeCardEP4Card
FN:98,98,_ZN6Player6sayUNOERKb
FNDA:4,_ZN6PlayerC2E7QString
FNDA:2,_ZNK6Player8hasCardsEv
FNDA:0,_ZNK6Player7saidUNOEv
FNDA:0,_ZN6Player7setNameERK7QString
FNDA:23,_ZN6Player7setHandERK5QListIP4CardE
FNDA:1,_ZNK6Player7getPileEv
FNDA:1,_ZN6Player7setPileEP4Pile
FNDA:0,_ZN6Player9eliminateEv
FNDA:0,_ZN6Player12isEliminatedEv
FNDA:2,_ZN6Player9swapCardsEPS_
FNDA:2,_ZN6Player9takeCardsEPS_
FNDA:0,_ZN6PlayerD0Ev
FNDA:25,_ZN6PlayerD2Ev
FNDA:4,_ZNK6Player7hasCardERK4Card
FNDA:0,_ZN6Player13increaseScoreEP4Card
FNDA:4,_ZNK6Player13getTotalCardsEv
FNDA:30,_ZN6Player10obtainCardEP4Card
FNDA:0,_ZNK6Player9drawnCardEv
FNDA:0,_ZNK6Player7getNameEv
FNDA:1,_ZNK6Player8getScoreEv
FNDA:6,_ZN6Player8getCardsEv
FNDA:1,_ZN6Player8setScoreERKi
FNDA:0,_ZN6Player12setDrawnCardERKb
FNDA:2,_ZNK6Player9hasPlayedEv
FNDA:2,_ZN6Player12setHasPlayedERKb
FNDA:0,_ZNK6Player12finishedTurnEv
FNDA:26,_ZN6PlayerC2Ev
FNDA:0,_ZN6Player15setFinishedTurnERKb
FNDA:0,_ZNK6Player8isMyTurnEv
FNDA:0,_ZN6Player11setIsMyTurnERKb
FNDA:0,_ZNK6Player10playedCardEv
FNDA:0,_ZN6Player13setPlayedCardERKi
FNDA:1,_ZN6Player10removeCardEP4Card
FNDA:0,_ZN6Player6sayUNOERKb
FNF:34
FNH:18
DA:8,26
DA:10,4
DA:11,4
DA:12,4
DA:14,4
DA:15,4
DA:17,25
DA:19,71
DA:20,46
DA:21,25
DA:23,4
DA:25,10
DA:27,9
DA:28,9
DA:29,16
DA:30,7
DA:31,3
DA:34,1
DA:37,0
DA:39,0
DA:40,0
DA:43,0
DA:44,0
DA:46,0
DA:48,0
DA:50,4
DA:52,30
DA:56,0
DA:58,0
DA:60,1
DA:62,6
DA:64,1
DA:66,0
DA:68,0
DA:69,0
DA:71,2
DA:73,2
DA:75,2
DA:76,2
DA:78,0
DA:80,0
DA:82,0
DA:83,0
DA:85,0
DA:87,0
DA:89,0
DA:91,0
DA:93,0
DA:94,0
DA:96,1
DA:98,0
DA:100,2
DA:102,0
DA:104,0
DA:106,23
DA:108,23
DA:110,23
DA:111,23
DA:113,1
DA:115,1
DA:117,0
DA:119,0
DA:121,2
DA:123,2
DA:125,2
DA:127,2
DA:129,2
DA:130,2
DA:132,2
LF:69
LH:42
end_of_record
TN:
SF:/home/marija/Desktop/2024_Analysis_12-Uno/12-UNO/UNO/sources/server.cpp
FN:12,15,_ZN6ServerC2EP7QObject
FN:159,159,_ZNK6Server7getGameEv
FN:165,175,_ZN6Server11sendMessageENSt7__cxx1112basic_stringIcSt11char_traitsIcESaIcEEEi
FN:17,22,_ZN6ServerC2EP7QObjectP4Game
FN:177,198,_ZN6Server10getMessageB5cxx11Ev
FN:24,24,_ZN6ServerD0Ev
FN:24,24,_ZN6ServerD2Ev
FN:26,26,_ZN6Server11stopWaitingEv
FN:28,28,_ZN6Server18setNumberOfPlayersEi
FN:30,157,_ZN6Server3runEv
FNDA:0,_ZN6ServerC2EP7QObject
FNDA:0,_ZNK6Server7getGameEv
FNDA:0,_ZN6Server11sendMessageENSt7__cxx1112basic_stringIcSt11char_traitsIcESaIcEEEi
FNDA:0,_ZN6ServerC2EP7QObjectP4Game
FNDA:0,_ZN6Server10getMessageB5cxx11Ev
FNDA:0,_ZN6ServerD0Ev
FNDA:0,_ZN6ServerD2Ev
FNDA:0,_ZN6Server11stopWaitingEv
FNDA:0,_ZN6Server18setNumberOfPlayersEi
FNDA:0,_ZN6Server3runEv
FNF:10
FNH:0
DA:12,0
DA:13,0
DA:15,0
DA:17,0
DA:19,0
DA:21,0
DA:22,0
DA:24,0
DA:26,0
DA:28,0
DA:30,0
DA:32,0
DA:34,0
DA:35,0
DA:37,0
DA:38,0
DA:42,0
DA:43,0
DA:44,0
DA:46,0
DA:48,0
DA:49,0
DA:52,0
DA:54,0
DA:55,0
DA:57,0
DA:60,0
DA:64,0
DA:66,0
DA:67,0
DA:68,0
DA:69,0
DA:70,0
DA:71,0
DA:72,0
DA:73,0
DA:74,0
DA:75,0
DA:76,0
DA:77,0
DA:78,0
DA:79,0
DA:82,0
DA:85,0
DA:89,0
DA:90,0
DA:92,0
DA:94,0
DA:96,0
DA:98,0
DA:100,0
DA:101,0
DA:104,0
DA:108,0
DA:110,0
DA:112,0
DA:114,0
DA:116,0
DA:117,0
DA:118,0
DA:119,0
DA:120,0
DA:123,0
DA:125,0
DA:126,0
DA:128,0
DA:130,0
DA:132,0
DA:134,0
DA:135,0
DA:137,0
DA:138,0
DA:140,0
DA:141,0
DA:145,0
DA:147,0
DA:149,0
DA:150,0
DA:151,0
DA:153,0
DA:155,0
DA:157,0
DA:159,0
DA:165,0
DA:168,0
DA:170,0
DA:172,0
DA:175,0
DA:177,0
DA:179,0
DA:181,0
DA:183,0
DA:184,0
DA:187,0
DA:191,0
DA:193,0
DA:195,0
DA:197,0
LF:98
LH:0
end_of_record
TN:
SF:/home/marija/Desktop/2024_Analysis_12-Uno/12-UNO/UNO/sources/wildcard.cpp
FN:14,17,_ZN8WildCardC2E4Card
FN:19,19,_ZN8WildCardD0Ev
FN:19,19,_ZN8WildCardD2Ev
FN:21,31,_ZN8WildCard4playEPv
FN:33,33,_ZNK8WildCard10isPlayableEPv
FN:35,35,_ZN8WildCard12useWildColorERKN4Card5COLORE
FN:37,37,_ZN8WildCard18getChosenWildColorEv
FN:40,46,_ZN8WildCard6toHashEv
FN:5,5,_ZN8WildCardC2Ev
FN:7,12,_ZN8WildCardC2EN4Card9CARD_TYPEE
FNDA:0,_ZN8WildCardC2E4Card
FNDA:104,_ZN8WildCardD0Ev
FNDA:104,_ZN8WildCardD2Ev
FNDA:0,_ZN8WildCard4playEPv
FNDA:1,_ZNK8WildCard10isPlayableEPv
FNDA:0,_ZN8WildCard12useWildColorERKN4Card5COLORE
FNDA:0,_ZN8WildCard18getChosenWildColorEv
FNDA:10,_ZN8WildCard6toHashEv
FNDA:0,_ZN8WildCardC2Ev
FNDA:153,_ZN8WildCardC2EN4Card9CARD_TYPEE
FNF:10
FNH:5
DA:5,0
DA:7,153
DA:8,153
DA:10,149
DA:11,0
DA:12,149
DA:14,0
DA:15,0
DA:17,0
DA:19,208
DA:21,0
DA:24,0
DA:26,0
DA:28,0
DA:29,0
DA:31,0
DA:33,1
DA:35,0
DA:37,0
DA:40,10
DA:42,10
DA:43,5
DA:45,5
LF:23
LH:10
end_of_record
